Component: ARM Compiler 5.05 update 1 (build 106) Tool: armlink [4d0efa]

==============================================================================

Section Cross References

    main.o(i.SoftWareInit) refers to app_debug.o(i.AppDebugInit) for AppDebugInit
    main.o(i.SoftWareInit) refers to app_debug.o(i.DebugMsg) for DebugMsg
    main.o(i.SoftWareInit) refers to bsp.o(i.FeedDog) for FeedDog
    main.o(i.SoftWareInit) refers to app_para.o(i.SysVarInit) for SysVarInit
    main.o(i.SoftWareInit) refers to app_para.o(i.SysParaRead) for SysParaRead
    main.o(i.main) refers to simulation.o(i.Simulation) for Simulation
    main.o(i.main) refers to bsp.o(i.HardWareInit) for HardWareInit
    main.o(i.main) refers to main.o(i.SoftWareInit) for SoftWareInit
    main.o(i.main) refers to app_alarmevent.o(i.AlarmEventInit) for AlarmEventInit
    main.o(i.main) refers to gc65.o(i.GprsAppInit) for GprsAppInit
    main.o(i.main) refers to app_protocol.o(i.ProSendInit) for ProSendInit
    main.o(i.main) refers to app_multfun.o(i.MultFunInit) for MultFunInit
    main.o(i.main) refers to app_vfd.o(i.RS485ComInit) for RS485ComInit
    main.o(i.main) refers to app_vfd.o(i.Task_MeterInit) for Task_MeterInit
    main.o(i.main) refers to app_vfd.o(i.Task_Meter2Init) for Task_Meter2Init
    main.o(i.main) refers to app_protocol.o(i.Task_ProDeal) for Task_ProDeal
    main.o(i.main) refers to app_vfd.o(i.Task_VfdDeal) for Task_VfdDeal
    main.o(i.main) refers to app_vfd.o(i.Task_MeterDeal) for Task_MeterDeal
    main.o(i.main) refers to app_vfd.o(i.Task_Meter2Deal) for Task_Meter2Deal
    main.o(i.main) refers to app_alarmevent.o(i.AlarmEventDeal) for AlarmEventDeal
    main.o(i.main) refers to app_dtucfg.o(i.dtuFactoryConfig) for dtuFactoryConfig
    main.o(i.main) refers to app_debug.o(i.RS485SndDly) for RS485SndDly
    main.o(i.main) refers to app_vfd.o(i.Task_VfdInit) for Task_VfdInit
    main.o(i.main) refers to app_usrcmd.o(i.UsrCmdParse) for UsrCmdParse
    main.o(i.main) refers to app_debug.o(i.DebugMsg) for DebugMsg
    main.o(i.main) refers to app_vfd.o(i.Task_MeterComm) for Task_MeterComm
    main.o(i.main) refers to app_vfd.o(i.Task_VfdComm) for Task_VfdComm
    main.o(i.main) refers to app_vfd.o(i.Task_Meter2Comm) for Task_Meter2Comm
    main.o(i.main) refers to app_protocol.o(i.DevStatToSystem) for DevStatToSystem
    main.o(i.main) refers to app_para.o(i.SysParaStorage) for SysParaStorage
    main.o(i.main) refers to bsp.o(i.FeedDog) for FeedDog
    main.o(i.main) refers to app_multfun.o(i.Task_MultFun_1s) for Task_MultFun_1s
    main.o(i.main) refers to gc65.o(i.TaskGC65) for TaskGC65
    main.o(i.main) refers to app_alarmevent.o(i.AlarmFilterTimer) for AlarmFilterTimer
    main.o(i.main) refers to app_led.o(i.SysComLed) for SysComLed
    main.o(i.main) refers to app_led.o(i.Rs485ComLed) for Rs485ComLed
    main.o(i.main) refers to app_upgrade.o(i.UpgradeTask) for UpgradeTask
    main.o(i.main) refers to app_protocol.o(i.Task_ProSend) for Task_ProSend
    main.o(i.main) refers to app_multfun.o(.data) for AlmDealDelay
    main.o(i.main) refers to app_rtc.o(.data) for TimeFlag
    main.o(i.main) refers to app_dtucfg.o(.data) for GbDtuEnterCfg
    main.o(i.main) refers to app_debug.o(.data) for AppDebug
    main.o(i.main) refers to uart.o(.bss) for UartTest
    main.o(i.main) refers to app_vfd.o(.data) for pMeter
    main.o(i.main) refers to app_para.o(.data) for GpSysPara
    main.o(i.main) refers to app_protocol.o(.data) for RebootTime
    bsp.o(i.Can_Config) refers to stm32f10x_can.o(i.CAN_DeInit) for CAN_DeInit
    bsp.o(i.Can_Config) refers to stm32f10x_can.o(i.CAN_StructInit) for CAN_StructInit
    bsp.o(i.Can_Config) refers to stm32f10x_rcc.o(i.RCC_GetClocksFreq) for RCC_GetClocksFreq
    bsp.o(i.Can_Config) refers to stm32f10x_can.o(i.CAN_Init) for CAN_Init
    bsp.o(i.Can_Config) refers to stm32f10x_can.o(i.CAN_FilterInit) for CAN_FilterInit
    bsp.o(i.Can_Config) refers to stm32f10x_can.o(i.CAN_ITConfig) for CAN_ITConfig
    bsp.o(i.GPIO_Configuration) refers to stm32f10x_gpio.o(i.GPIO_Init) for GPIO_Init
    bsp.o(i.GPIO_Configuration) refers to stm32f10x_gpio.o(i.GPIO_SetBits) for GPIO_SetBits
    bsp.o(i.GPIO_Configuration) refers to stm32f10x_gpio.o(i.GPIO_ResetBits) for GPIO_ResetBits
    bsp.o(i.GPIO_Configuration) refers to stm32f10x_gpio.o(i.GPIO_PinRemapConfig) for GPIO_PinRemapConfig
    bsp.o(i.HardWareInit) refers to stm32f10x_rcc.o(i.RCC_APB2PeriphClockCmd) for RCC_APB2PeriphClockCmd
    bsp.o(i.HardWareInit) refers to stm32f10x_rcc.o(i.RCC_APB1PeriphClockCmd) for RCC_APB1PeriphClockCmd
    bsp.o(i.HardWareInit) refers to stm32f10x_rcc.o(i.RCC_AHBPeriphClockCmd) for RCC_AHBPeriphClockCmd
    bsp.o(i.HardWareInit) refers to bsp.o(i.systick_init) for systick_init
    bsp.o(i.HardWareInit) refers to bsp.o(i.GPIO_Configuration) for GPIO_Configuration
    bsp.o(i.HardWareInit) refers to bsp.o(i.InitIWDG) for InitIWDG
    bsp.o(i.HardWareInit) refers to bsp.o(i.InitUart) for InitUart
    bsp.o(i.HardWareInit) refers to stm32f10x_gpio.o(i.GPIO_ResetBits) for GPIO_ResetBits
    bsp.o(i.HardWareInit) refers to bsp.o(i.InitCan) for InitCan
    bsp.o(i.HardWareInit) refers to bsp.o(i.Can_Config) for Can_Config
    bsp.o(i.HardWareInit) refers to bsp.o(i.InterruptConfig) for InterruptConfig
    bsp.o(i.HardWareInit) refers to spiflash.o(i.SPIFlashInit) for SPIFlashInit
    bsp.o(i.HardWareInit) refers to bsp.o(i.FeedDog) for FeedDog
    bsp.o(i.HardWareInit) refers to app_debug.o(.bss) for DebugCheck
    bsp.o(i.Init485Uart) refers to stm32f10x_usart.o(i.USART_ITConfig) for USART_ITConfig
    bsp.o(i.Init485Uart) refers to stm32f10x_gpio.o(i.GPIO_Init) for GPIO_Init
    bsp.o(i.Init485Uart) refers to stm32f10x_usart.o(i.USART_Init) for USART_Init
    bsp.o(i.Init485Uart) refers to stm32f10x_usart.o(i.USART_ClearITPendingBit) for USART_ClearITPendingBit
    bsp.o(i.Init485Uart) refers to stm32f10x_usart.o(i.USART_Cmd) for USART_Cmd
    bsp.o(i.InitCan) refers to stm32f10x_gpio.o(i.GPIO_Init) for GPIO_Init
    bsp.o(i.InitCan) refers to misc.o(i.NVIC_Init) for NVIC_Init
    bsp.o(i.InitUart) refers to stm32f10x_usart.o(i.USART_ITConfig) for USART_ITConfig
    bsp.o(i.InitUart) refers to stm32f10x_gpio.o(i.GPIO_Init) for GPIO_Init
    bsp.o(i.InitUart) refers to stm32f10x_usart.o(i.USART_Init) for USART_Init
    bsp.o(i.InitUart) refers to stm32f10x_usart.o(i.USART_ClearITPendingBit) for USART_ClearITPendingBit
    bsp.o(i.InitUart) refers to stm32f10x_usart.o(i.USART_Cmd) for USART_Cmd
    bsp.o(i.InitUart) refers to stm32f10x_dma.o(i.DMA_DeInit) for DMA_DeInit
    bsp.o(i.InitUart) refers to stm32f10x_dma.o(i.DMA_Init) for DMA_Init
    bsp.o(i.InitUart) refers to stm32f10x_dma.o(i.DMA_Cmd) for DMA_Cmd
    bsp.o(i.InitUart) refers to stm32f10x_dma.o(i.DMA_ClearFlag) for DMA_ClearFlag
    bsp.o(i.InitUart) refers to stm32f10x_dma.o(i.DMA_ITConfig) for DMA_ITConfig
    bsp.o(i.InitUart) refers to stm32f10x_usart.o(i.USART_DMACmd) for USART_DMACmd
    bsp.o(i.InterruptConfig) refers to misc.o(i.NVIC_PriorityGroupConfig) for NVIC_PriorityGroupConfig
    bsp.o(i.InterruptConfig) refers to misc.o(i.NVIC_Init) for NVIC_Init
    bsp.o(i.InterruptConfig) refers to bsp.o(i.NVIC_SetPriority) for NVIC_SetPriority
    bsp.o(i.systick_init) refers to stm32f10x_rcc.o(i.RCC_GetClocksFreq) for RCC_GetClocksFreq
    bsp.o(i.systick_init) refers to bsp.o(i.NVIC_SetPriority) for NVIC_SetPriority
    app_alarmevent.o(i.AlarmEventDeal) refers to app_para.o(.data) for GpSysStat
    app_alarmevent.o(i.AlarmEventDeal) refers to app_alarmevent.o(.data) for StopFilterTimer
    app_alarmevent.o(i.AlarmEventDeal) refers to app_protocol.o(.bss) for AlmStat
    app_alarmevent.o(i.AlarmEventDeal) refers to app_alarmevent.o(.bss) for AlmFilterTimer
    app_alarmevent.o(i.AlarmEventDeal) refers to app_para.o(.bss) for ParaFat
    app_alarmevent.o(i.AlarmEventInit) refers to aeabi_memset.o(.text) for __aeabi_memset
    app_alarmevent.o(i.AlarmEventInit) refers to rt_memclr.o(.text) for __aeabi_memclr
    app_alarmevent.o(i.AlarmEventInit) refers to app_protocol.o(.bss) for AlmMask
    app_alarmevent.o(i.AlarmEventInit) refers to app_para.o(.data) for GpSysPara
    app_alarmevent.o(i.AlarmEventInit) refers to app_alarmevent.o(.data) for LastAlmFlg
    app_alarmevent.o(i.AlarmFilterTimer) refers to app_alarmevent.o(i.AlarmFilterTimeOver) for AlarmFilterTimeOver
    app_alarmevent.o(i.AlarmFilterTimer) refers to app_alarmevent.o(.data) for AlmFltTimer
    app_alarmevent.o(i.AlarmFilterTimer) refers to app_protocol.o(.bss) for AlmMask
    app_alarmevent.o(i.Alarm_Filter_Deal) refers to app_alarmevent.o(.bss) for AlmFilterTimer
    app_alarmevent.o(i.Alarm_Filter_Deal) refers to app_alarmevent.o(.data) for PreAlmFilterTimer
    app_alarmevent.o(i.Start_Stop_Filter) refers to app_alarmevent.o(.data) for StartFilterTimer
    app_debug.o(i.AppDebugInit) refers to app_debug.o(.data) for AppDebug
    app_debug.o(i.Debug) refers to app_debug.o(i.RS485SndDly) for RS485SndDly
    app_debug.o(i.Debug) refers to bsp.o(i.FeedDog) for FeedDog
    app_debug.o(i.Debug) refers to stm32f10x_gpio.o(i.GPIO_SetBits) for GPIO_SetBits
    app_debug.o(i.Debug) refers to strlen.o(.text) for strlen
    app_debug.o(i.Debug) refers to uart.o(i.UartSendData) for UartSendData
    app_debug.o(i.Debug) refers to stm32f10x_gpio.o(i.GPIO_ResetBits) for GPIO_ResetBits
    app_debug.o(i.Debug) refers to uart.o(.data) for DebugUartRcvStat
    app_debug.o(i.DebugHexMsg) refers to _printf_pad.o(.text) for _printf_pre_padding
    app_debug.o(i.DebugHexMsg) refers to _printf_percent.o(.ARM.Collect$$_printf_percent$$00000000) for _printf_percent
    app_debug.o(i.DebugHexMsg) refers to _printf_x.o(.ARM.Collect$$_printf_percent$$0000000C) for _printf_x
    app_debug.o(i.DebugHexMsg) refers to _printf_hex_int_ll_ptr.o(.text) for _printf_longlong_hex
    app_debug.o(i.DebugHexMsg) refers to app_debug.o(i.Debug) for Debug
    app_debug.o(i.DebugHexMsg) refers to __2sprintf.o(.text) for __2sprintf
    app_debug.o(i.DebugHexMsg) refers to bsp.o(i.FeedDog) for FeedDog
    app_debug.o(i.DebugHexMsg) refers to app_debug.o(.data) for AppDebug
    app_debug.o(i.DebugMsg) refers to app_debug.o(i.Debug) for Debug
    app_debug.o(i.DebugMsg) refers to c89vsnprintf.o(.text) for __c89vsnprintf
    app_debug.o(i.DebugMsg) refers to app_debug.o(.data) for AppDebug
    app_debug.o(i.DebugMsg) refers to app_debug.o(.bss) for DbgMsgstr
    app_debug.o(i.DebugStrMsg) refers to app_debug.o(i.Debug) for Debug
    app_debug.o(i.DebugStrMsg) refers to app_debug.o(i.DebugWithLen) for DebugWithLen
    app_debug.o(i.DebugStrMsg) refers to app_debug.o(.data) for AppDebug
    app_debug.o(i.DebugWithLen) refers to app_debug.o(i.RS485SndDly) for RS485SndDly
    app_debug.o(i.DebugWithLen) refers to bsp.o(i.FeedDog) for FeedDog
    app_debug.o(i.DebugWithLen) refers to stm32f10x_gpio.o(i.GPIO_SetBits) for GPIO_SetBits
    app_debug.o(i.DebugWithLen) refers to uart.o(i.UartSendData) for UartSendData
    app_debug.o(i.DebugWithLen) refers to stm32f10x_gpio.o(i.GPIO_ResetBits) for GPIO_ResetBits
    app_debug.o(i.DebugWithLen) refers to uart.o(.data) for DebugUartRcvStat
    app_debug.o(i.DisableAllDebug) refers to app_debug.o(.data) for AppDebug
    app_debug.o(i.RS485CfgResp) refers to rt_memcpy_v6.o(.text) for __aeabi_memcpy
    app_debug.o(i.RS485CfgResp) refers to app_vfd.o(i.ModbusStartSend) for ModbusStartSend
    app_debug.o(i.RS485CfgResp) refers to app_vfd.o(.data) for pVfd
    app_json.o(i.JSON_AddrAndDataToObject) refers to _printf_percent.o(.ARM.Collect$$_printf_percent$$00000000) for _printf_percent
    app_json.o(i.JSON_AddrAndDataToObject) refers to _printf_d.o(.ARM.Collect$$_printf_percent$$00000009) for _printf_d
    app_json.o(i.JSON_AddrAndDataToObject) refers to _printf_s.o(.ARM.Collect$$_printf_percent$$00000014) for _printf_s
    app_json.o(i.JSON_AddrAndDataToObject) refers to _printf_dec.o(.text) for _printf_int_dec
    app_json.o(i.JSON_AddrAndDataToObject) refers to _printf_str.o(.text) for _printf_str
    app_json.o(i.JSON_AddrAndDataToObject) refers to _printf_f.o(.ARM.Collect$$_printf_percent$$00000003) for _printf_f
    app_json.o(i.JSON_AddrAndDataToObject) refers to printf1.o(x$fpl$printf1) for _printf_fp_dec
    app_json.o(i.JSON_AddrAndDataToObject) refers to strlen.o(.text) for strlen
    app_json.o(i.JSON_AddrAndDataToObject) refers to __2sprintf.o(.text) for __2sprintf
    app_json.o(i.JSON_AddrAndDataToObject) refers to fflt_clz.o(x$fpl$ffltu) for __aeabi_ui2f
    app_json.o(i.JSON_AddrAndDataToObject) refers to f2d.o(x$fpl$f2d) for __aeabi_f2d
    app_json.o(i.JSON_AddrAndDataToObject) refers to ddiv.o(x$fpl$ddiv) for __aeabi_ddiv
    app_json.o(i.JSON_AddrAndDataToObject) refers to app_plt.o(.constdata) for Plt_Mam6080_DataList
    app_json.o(i.JSON_AddrListExtract) refers to app_json.o(i.JSON_ArrayExtract) for JSON_ArrayExtract
    app_json.o(i.JSON_AddrListExtract) refers to strcpy.o(.text) for strcpy
    app_json.o(i.JSON_AddrListExtract) refers to comm.o(i.my_atoi) for my_atoi
    app_json.o(i.JSON_AddrListExtract) refers to app_json.o(.bss) for JsonArrayBuf
    app_json.o(i.JSON_AddrNumberDataToObject) refers to _printf_percent.o(.ARM.Collect$$_printf_percent$$00000000) for _printf_percent
    app_json.o(i.JSON_AddrNumberDataToObject) refers to _printf_d.o(.ARM.Collect$$_printf_percent$$00000009) for _printf_d
    app_json.o(i.JSON_AddrNumberDataToObject) refers to _printf_dec.o(.text) for _printf_int_dec
    app_json.o(i.JSON_AddrNumberDataToObject) refers to _printf_pad.o(.text) for _printf_pre_padding
    app_json.o(i.JSON_AddrNumberDataToObject) refers to _printf_x.o(.ARM.Collect$$_printf_percent$$0000000C) for _printf_x
    app_json.o(i.JSON_AddrNumberDataToObject) refers to _printf_hex_int_ll_ptr.o(.text) for _printf_longlong_hex
    app_json.o(i.JSON_AddrNumberDataToObject) refers to strlen.o(.text) for strlen
    app_json.o(i.JSON_AddrNumberDataToObject) refers to __2sprintf.o(.text) for __2sprintf
    app_json.o(i.JSON_AddrStringDataToObject) refers to _printf_percent.o(.ARM.Collect$$_printf_percent$$00000000) for _printf_percent
    app_json.o(i.JSON_AddrStringDataToObject) refers to _printf_d.o(.ARM.Collect$$_printf_percent$$00000009) for _printf_d
    app_json.o(i.JSON_AddrStringDataToObject) refers to _printf_s.o(.ARM.Collect$$_printf_percent$$00000014) for _printf_s
    app_json.o(i.JSON_AddrStringDataToObject) refers to _printf_dec.o(.text) for _printf_int_dec
    app_json.o(i.JSON_AddrStringDataToObject) refers to _printf_str.o(.text) for _printf_str
    app_json.o(i.JSON_AddrStringDataToObject) refers to strlen.o(.text) for strlen
    app_json.o(i.JSON_AddrStringDataToObject) refers to __2sprintf.o(.text) for __2sprintf
    app_json.o(i.JSON_ArrayExtract) refers to strlen.o(.text) for strlen
    app_json.o(i.JSON_ArrayExtract) refers to strncmp.o(.text) for strncmp
    app_json.o(i.JSON_EventNoInfToObject) refers to _printf_percent.o(.ARM.Collect$$_printf_percent$$00000000) for _printf_percent
    app_json.o(i.JSON_EventNoInfToObject) refers to _printf_d.o(.ARM.Collect$$_printf_percent$$00000009) for _printf_d
    app_json.o(i.JSON_EventNoInfToObject) refers to _printf_dec.o(.text) for _printf_int_dec
    app_json.o(i.JSON_EventNoInfToObject) refers to strlen.o(.text) for strlen
    app_json.o(i.JSON_EventNoInfToObject) refers to __2sprintf.o(.text) for __2sprintf
    app_json.o(i.JSON_EventWithInfToObject) refers to _printf_percent.o(.ARM.Collect$$_printf_percent$$00000000) for _printf_percent
    app_json.o(i.JSON_EventWithInfToObject) refers to _printf_d.o(.ARM.Collect$$_printf_percent$$00000009) for _printf_d
    app_json.o(i.JSON_EventWithInfToObject) refers to _printf_dec.o(.text) for _printf_int_dec
    app_json.o(i.JSON_EventWithInfToObject) refers to _printf_s.o(.ARM.Collect$$_printf_percent$$00000014) for _printf_s
    app_json.o(i.JSON_EventWithInfToObject) refers to _printf_str.o(.text) for _printf_str
    app_json.o(i.JSON_EventWithInfToObject) refers to strlen.o(.text) for strlen
    app_json.o(i.JSON_EventWithInfToObject) refers to __2sprintf.o(.text) for __2sprintf
    app_json.o(i.JSON_ExtractObjNode) refers to app_json.o(i.JSON_Extract) for JSON_Extract
    app_json.o(i.JSON_FlowDataToObject) refers to _printf_percent.o(.ARM.Collect$$_printf_percent$$00000000) for _printf_percent
    app_json.o(i.JSON_FlowDataToObject) refers to _printf_d.o(.ARM.Collect$$_printf_percent$$00000009) for _printf_d
    app_json.o(i.JSON_FlowDataToObject) refers to _printf_s.o(.ARM.Collect$$_printf_percent$$00000014) for _printf_s
    app_json.o(i.JSON_FlowDataToObject) refers to _printf_dec.o(.text) for _printf_int_dec
    app_json.o(i.JSON_FlowDataToObject) refers to _printf_str.o(.text) for _printf_str
    app_json.o(i.JSON_FlowDataToObject) refers to _printf_f.o(.ARM.Collect$$_printf_percent$$00000003) for _printf_f
    app_json.o(i.JSON_FlowDataToObject) refers to printf1.o(x$fpl$printf1) for _printf_fp_dec
    app_json.o(i.JSON_FlowDataToObject) refers to strlen.o(.text) for strlen
    app_json.o(i.JSON_FlowDataToObject) refers to __2sprintf.o(.text) for __2sprintf
    app_json.o(i.JSON_FlowDataToObject) refers to comm.o(i.Hex2Float) for Hex2Float
    app_json.o(i.JSON_FlowDataToObject) refers to f2d.o(x$fpl$f2d) for __aeabi_f2d
    app_json.o(i.JSON_FlowDataToObject) refers to app_plt.o(.constdata) for Xy_DataList
    app_json.o(i.JSON_IsObjectBegin) refers to strlen.o(.text) for strlen
    app_json.o(i.JSON_MeterDataToObject) refers to _printf_percent.o(.ARM.Collect$$_printf_percent$$00000000) for _printf_percent
    app_json.o(i.JSON_MeterDataToObject) refers to _printf_d.o(.ARM.Collect$$_printf_percent$$00000009) for _printf_d
    app_json.o(i.JSON_MeterDataToObject) refers to _printf_s.o(.ARM.Collect$$_printf_percent$$00000014) for _printf_s
    app_json.o(i.JSON_MeterDataToObject) refers to _printf_dec.o(.text) for _printf_int_dec
    app_json.o(i.JSON_MeterDataToObject) refers to _printf_str.o(.text) for _printf_str
    app_json.o(i.JSON_MeterDataToObject) refers to _printf_f.o(.ARM.Collect$$_printf_percent$$00000003) for _printf_f
    app_json.o(i.JSON_MeterDataToObject) refers to printf1.o(x$fpl$printf1) for _printf_fp_dec
    app_json.o(i.JSON_MeterDataToObject) refers to strlen.o(.text) for strlen
    app_json.o(i.JSON_MeterDataToObject) refers to __2sprintf.o(.text) for __2sprintf
    app_json.o(i.JSON_MeterDataToObject) refers to fflt_clz.o(x$fpl$ffltu) for __aeabi_ui2f
    app_json.o(i.JSON_MeterDataToObject) refers to f2d.o(x$fpl$f2d) for __aeabi_f2d
    app_json.o(i.JSON_MeterDataToObject) refers to ddiv.o(x$fpl$ddiv) for __aeabi_ddiv
    app_json.o(i.JSON_MeterDataToObject) refers to fmul.o(x$fpl$fmul) for __aeabi_fmul
    app_json.o(i.JSON_MeterDataToObject) refers to app_para.o(.data) for GpSysStat
    app_json.o(i.JSON_MeterDataToObject) refers to app_plt.o(.constdata) for Xy_DataList
    app_json.o(i.JSON_NumberValToObject) refers to _printf_percent.o(.ARM.Collect$$_printf_percent$$00000000) for _printf_percent
    app_json.o(i.JSON_NumberValToObject) refers to _printf_d.o(.ARM.Collect$$_printf_percent$$00000009) for _printf_d
    app_json.o(i.JSON_NumberValToObject) refers to _printf_s.o(.ARM.Collect$$_printf_percent$$00000014) for _printf_s
    app_json.o(i.JSON_NumberValToObject) refers to _printf_dec.o(.text) for _printf_int_dec
    app_json.o(i.JSON_NumberValToObject) refers to _printf_str.o(.text) for _printf_str
    app_json.o(i.JSON_NumberValToObject) refers to strlen.o(.text) for strlen
    app_json.o(i.JSON_NumberValToObject) refers to __2sprintf.o(.text) for __2sprintf
    app_json.o(i.JSON_ObjectEnd) refers to strlen.o(.text) for strlen
    app_json.o(i.JSON_StringValToObject) refers to _printf_percent.o(.ARM.Collect$$_printf_percent$$00000000) for _printf_percent
    app_json.o(i.JSON_StringValToObject) refers to _printf_s.o(.ARM.Collect$$_printf_percent$$00000014) for _printf_s
    app_json.o(i.JSON_StringValToObject) refers to _printf_str.o(.text) for _printf_str
    app_json.o(i.JSON_StringValToObject) refers to strlen.o(.text) for strlen
    app_json.o(i.JSON_StringValToObject) refers to __2sprintf.o(.text) for __2sprintf
    app_led.o(i.LedOffSet) refers to app_led.o(.data) for LedCtrl
    app_led.o(i.LedOnSet) refers to app_led.o(.data) for LedCtrl
    app_led.o(i.Led_Indicate) refers to stm32f10x_gpio.o(i.GPIO_SetBits) for GPIO_SetBits
    app_led.o(i.Led_Indicate) refers to stm32f10x_gpio.o(i.GPIO_ResetBits) for GPIO_ResetBits
    app_led.o(i.Led_Indicate) refers to app_para.o(.data) for GpSysStat
    app_led.o(i.Led_Indicate) refers to app_led.o(.data) for count
    app_led.o(i.Led_Indicate_Init) refers to app_led.o(.data) for Led_indicate
    app_led.o(i.Led_Indicate_Init) refers to app_para.o(.data) for GpSysStat
    app_led.o(i.Rs485ComLed) refers to stm32f10x_gpio.o(i.GPIO_SetBits) for GPIO_SetBits
    app_led.o(i.Rs485ComLed) refers to app_led.o(i.Led_Indicate) for Led_Indicate
    app_led.o(i.Rs485ComLed) refers to app_para.o(.data) for GpSysStat
    app_led.o(i.Rs485ComLed) refers to app_led.o(.data) for led_step
    app_led.o(i.SysComLed) refers to stm32f10x_gpio.o(i.GPIO_SetBits) for GPIO_SetBits
    app_led.o(i.SysComLed) refers to stm32f10x_gpio.o(i.GPIO_ResetBits) for GPIO_ResetBits
    app_led.o(i.SysComLed) refers to app_protocol.o(i.isGprsCon) for isGprsCon
    app_led.o(i.SysComLed) refers to app_led.o(.data) for LedCtrl
    app_para.o(i.DevParaDefault) refers to rt_memclr.o(.text) for __aeabi_memclr
    app_para.o(i.DevParaDefault) refers to rt_memcpy_v6.o(.text) for __aeabi_memcpy
    app_para.o(i.DevParaDefault) refers to strcpy.o(.text) for strcpy
    app_para.o(i.DevParaDefault) refers to app_debug.o(i.DebugMsg) for DebugMsg
    app_para.o(i.DevParaDefault) refers to app_para.o(.bss) for SysParaBuf
    app_para.o(i.DevParaDefault) refers to app_para.o(.data) for GpSysPara
    app_para.o(i.DevParaRead) refers to app_para.o(i._flashRead) for _flashRead
    app_para.o(i.DevParaRead) refers to comm.o(i.CRC16_1) for CRC16_1
    app_para.o(i.DevParaRead) refers to rt_memcpy_v6.o(.text) for __aeabi_memcpy
    app_para.o(i.DevParaRead) refers to app_para.o(.bss) for TempPara
    app_para.o(i.DevParaRead) refers to app_para.o(.data) for GpSysPara
    app_para.o(i.DevParaWrite) refers to app_para.o(i._flashErase) for _flashErase
    app_para.o(i.DevParaWrite) refers to comm.o(i.CRC16_1) for CRC16_1
    app_para.o(i.DevParaWrite) refers to app_para.o(i._flashWrite) for _flashWrite
    app_para.o(i.DevParaWrite) refers to app_para.o(.data) for GpSysPara
    app_para.o(i.DevParaWrite) refers to app_para.o(.bss) for ParaFat
    app_para.o(i.ParaBackRead) refers to app_para.o(i._flashRead) for _flashRead
    app_para.o(i.ParaBackRead) refers to memcmp.o(.text) for memcmp
    app_para.o(i.ParaBackRead) refers to app_debug.o(i.DebugMsg) for DebugMsg
    app_para.o(i.ParaBackRead) refers to rt_memcpy_v6.o(.text) for __aeabi_memcpy
    app_para.o(i.ParaBackRead) refers to app_para.o(.bss) for TempPara
    app_para.o(i.ParaBackRead) refers to app_para.o(.data) for GpSysPara
    app_para.o(i.SpecAddrRead) refers to rt_memcpy_v6.o(.text) for __aeabi_memcpy
    app_para.o(i.SpecAddrRead) refers to gc65.o(i.GetMultLoc) for GetMultLoc
    app_para.o(i.SpecAddrRead) refers to gc65.o(.bss) for GprsCtrlInfo
    app_para.o(i.SpecAddrRead) refers to app_para.o(.data) for GpSysStat
    app_para.o(i.SysParaRead) refers to app_para.o(i.DevParaRead) for DevParaRead
    app_para.o(i.SysParaRead) refers to app_para.o(i.DevParaDefault) for DevParaDefault
    app_para.o(i.SysParaRead) refers to app_debug.o(i.DebugMsg) for DebugMsg
    app_para.o(i.SysParaRead) refers to app_para.o(.bss) for ParaFat
    app_para.o(i.SysParaRead) refers to app_para.o(.data) for GpAlmInfo
    app_para.o(i.SysParaStorage) refers to app_para.o(i.DevParaWrite) for DevParaWrite
    app_para.o(i.SysParaStorage) refers to app_debug.o(i.DebugMsg) for DebugMsg
    app_para.o(i.SysParaStorage) refers to app_protocol.o(i.IsReg) for IsReg
    app_para.o(i.SysParaStorage) refers to app_para.o(.bss) for ParaFat
    app_para.o(i.SysParaStorage) refers to app_para.o(.data) for GpSysPara
    app_para.o(i.SysParaStorage) refers to app_protocol.o(.bss) for AlmStat
    app_para.o(i.SysVarInit) refers to app_para.o(.bss) for SysParaBuf
    app_para.o(i.SysVarInit) refers to app_para.o(.data) for GpSysPara
    app_para.o(i.SysVarRead) refers to app_plt.o(i.XYMeterVarRead) for XYMeterVarRead
    app_para.o(i.SysVarRead) refers to app_para.o(i.SpecAddrRead) for SpecAddrRead
    app_para.o(i.SysVarRead) refers to app_plt.o(i.Plt3SysVarRead) for Plt3SysVarRead
    app_para.o(i.SysVarRead) refers to app_plt.o(i.PltMam6080OtherVarRead) for PltMam6080OtherVarRead
    app_para.o(i.SysVarRead) refers to app_para.o(i.FieldValOffset) for FieldValOffset
    app_para.o(i.SysVarRead) refers to rt_memcpy_v6.o(.text) for __aeabi_memcpy
    app_para.o(i.SysVarRead) refers to app_para.o(.data) for GpSysPara
    app_para.o(i._flashErase) refers to stm32f10x_flash.o(i.FLASH_Unlock) for FLASH_Unlock
    app_para.o(i._flashErase) refers to stm32f10x_flash.o(i.FLASH_ClearFlag) for FLASH_ClearFlag
    app_para.o(i._flashErase) refers to stm32f10x_flash.o(i.FLASH_ErasePage) for FLASH_ErasePage
    app_para.o(i._flashErase) refers to stm32f10x_flash.o(i.FLASH_Lock) for FLASH_Lock
    app_para.o(i._flashWrite) refers to stm32f10x_flash.o(i.FLASH_Unlock) for FLASH_Unlock
    app_para.o(i._flashWrite) refers to stm32f10x_flash.o(i.FLASH_ClearFlag) for FLASH_ClearFlag
    app_para.o(i._flashWrite) refers to stm32f10x_flash.o(i.FLASH_ProgramWord) for FLASH_ProgramWord
    app_para.o(i._flashWrite) refers to app_debug.o(i.DebugMsg) for DebugMsg
    app_para.o(i._flashWrite) refers to stm32f10x_flash.o(i.FLASH_Lock) for FLASH_Lock
    app_plt.o(i.GetMeter2ReadAddr) refers to app_vfd.o(.bss) for Meter2Ctrl
    app_plt.o(i.GetMeter2ReadAddr) refers to app_plt.o(.constdata) for Xy_DataList
    app_plt.o(i.GetMeterReadAddr) refers to app_vfd.o(.bss) for MeterCtrl
    app_plt.o(i.GetMeterReadAddr) refers to app_plt.o(.constdata) for Xy_DataList
    app_plt.o(i.GetPlt1SpecPara) refers to app_json.o(i.JSON_AddrAndDataToObject) for JSON_AddrAndDataToObject
    app_plt.o(i.GetPlt1SpecPara) refers to app_json.o(i.JSON_AddrNumberDataToObject) for JSON_AddrNumberDataToObject
    app_plt.o(i.GetPlt1SpecPara) refers to app_para.o(.data) for GpSysStat
    app_plt.o(i.GetPlt2SpecPara) refers to app_json.o(i.JSON_AddrAndDataToObject) for JSON_AddrAndDataToObject
    app_plt.o(i.GetPlt2SpecPara) refers to app_para.o(.data) for GpSysStat
    app_plt.o(i.GetPlt3SpecPara) refers to app_json.o(i.JSON_AddrAndDataToObject) for JSON_AddrAndDataToObject
    app_plt.o(i.GetPlt3SpecPara) refers to app_para.o(.data) for GpUsrPara
    app_plt.o(i.GetPltAllPara) refers to app_json.o(i.JSON_ObjectBegin) for JSON_ObjectBegin
    app_plt.o(i.GetPltAllPara) refers to app_protocol.o(i.JSON_RtcTimeGet) for JSON_RtcTimeGet
    app_plt.o(i.GetPltAllPara) refers to app_json.o(i.JSON_NumberValToObject) for JSON_NumberValToObject
    app_plt.o(i.GetPltAllPara) refers to rt_memclr.o(.text) for __aeabi_memclr
    app_plt.o(i.GetPltAllPara) refers to app_para.o(i.SysVarRead) for SysVarRead
    app_plt.o(i.GetPltAllPara) refers to app_json.o(i.JSON_AddrStringDataToObject) for JSON_AddrStringDataToObject
    app_plt.o(i.GetPltAllPara) refers to comm.o(i.DevTwoByteToWord) for DevTwoByteToWord
    app_plt.o(i.GetPltAllPara) refers to app_json.o(i.JSON_AddrNumberDataToObject) for JSON_AddrNumberDataToObject
    app_plt.o(i.GetPltAllPara) refers to app_para.o(i.SpecAddrRead) for SpecAddrRead
    app_plt.o(i.GetPltAllPara) refers to app_json.o(i.JSON_AddrAndDataToObject) for JSON_AddrAndDataToObject
    app_plt.o(i.GetPltAllPara) refers to app_json.o(i.JSON_ObjectEnd) for JSON_ObjectEnd
    app_plt.o(i.GetPltAllPara) refers to strlen.o(.text) for strlen
    app_plt.o(i.GetPltAllPara) refers to app_para.o(.data) for GpSysPara
    app_plt.o(i.GetPltAllPara) refers to app_plt.o(.bss) for VarBuf
    app_plt.o(i.GetPltAllPara) refers to gc65.o(.bss) for GprsCtrlInfo
    app_plt.o(i.GetPltAllPara) refers to app_protocol.o(.data) for ParaUpload
    app_plt.o(i.GetPltReadAddr) refers to app_para.o(.data) for GpSysPara
    app_plt.o(i.GetPltReadAddr) refers to app_vfd.o(.bss) for VfdCtrl
    app_plt.o(i.GetPltReadAddr) refers to app_plt.o(.constdata) for Plt_Mam860_DataList
    app_plt.o(i.Plt1SysVarRead) refers to app_para.o(.data) for GpSysStat
    app_plt.o(i.Plt3SysVarRead) refers to app_para.o(.data) for GpSysStat
    app_plt.o(i.PltDevDataPrase) refers to app_para.o(.data) for GpSysStat
    app_plt.o(i.PltDevDataPrase) refers to app_alarmevent.o(.data) for StartFilterTimer
    app_plt.o(i.PltDevDataPrase) refers to app_protocol.o(.bss) for AlmStat
    app_plt.o(i.PltDevDataPrase) refers to app_multfun.o(.data) for RmtBootTimer
    app_plt.o(i.PltDevDataPrase) refers to app_plt.o(.data) for LastMachineStat
    app_plt.o(i.PltDevDataPrase) refers to app_protocol.o(.data) for ParaUpdate
    app_plt.o(i.PltDevDataPrase) refers to comm.o(i.my_itoa) for my_itoa
    app_plt.o(i.PltDevDataPrase) refers to app_plt.o(i.Plt_PreAlarm_Deal) for Plt_PreAlarm_Deal
    app_plt.o(i.PltDevDataPrase) refers to app_plt.o(i.Plt_RunStata_Deal) for Plt_RunStata_Deal
    app_plt.o(i.PltDevDataPrase) refers to app_plt.o(i.Plt_Fault_Deal) for Plt_Fault_Deal
    app_plt.o(i.PltDevDataPrase) refers to app_plt.o(i.PltMam6080OtherDataPrase) for PltMam6080OtherDataPrase
    app_plt.o(i.PltDevMan860DataPrase) refers to app_para.o(.data) for GpSysStat
    app_plt.o(i.PltDevMan860DataPrase) refers to app_protocol.o(.bss) for AlmStat
    app_plt.o(i.PltDevMan860DataPrase) refers to app_multfun.o(.data) for RmtBootTimer
    app_plt.o(i.PltMam6080OtherDataPrase) refers to app_para.o(.data) for GpSysStat
    app_plt.o(i.PltMam6080OtherVarRead) refers to app_para.o(.data) for GpSysStat
    app_plt.o(i.PltSysVarWriter) refers to comm.o(i.my_atoi) for my_atoi
    app_plt.o(i.PltSysVarWriter) refers to comm.o(i.my_atof) for my_atof
    app_plt.o(i.PltSysVarWriter) refers to daddsub_clz.o(x$fpl$dadd) for __aeabi_dadd
    app_plt.o(i.PltSysVarWriter) refers to dmul.o(x$fpl$dmul) for __aeabi_dmul
    app_plt.o(i.PltSysVarWriter) refers to dfixu.o(x$fpl$dfixu) for __aeabi_d2uiz
    app_plt.o(i.PltSysVarWriter) refers to app_plt.o(i.Server_Writer_Data_Buf) for Server_Writer_Data_Buf
    app_plt.o(i.PltSysVarWriter) refers to app_plt.o(i.PltDevDataPrase) for PltDevDataPrase
    app_plt.o(i.PltSysVarWriter) refers to app_plt.o(.constdata) for Plt_Mam6080_DataList
    app_plt.o(i.PltSysVarWriter) refers to app_para.o(.data) for GpSysPara
    app_plt.o(i.Plt_Fault_Deal) refers to app_protocol.o(.bss) for AlmStat
    app_plt.o(i.Plt_RunStata_Deal) refers to app_para.o(.data) for GpSysStat
    app_plt.o(i.Plt_RunStata_Deal) refers to app_protocol.o(.bss) for AlmStat
    app_plt.o(i.Server_Writer_Data_Buf) refers to app_plt.o(.bss) for Server_Data_Buf
    app_plt.o(i.Server_Writer_Data_Buf) refers to app_plt.o(.data) for RemoteWritePara
    app_plt.o(i.Server_Writer_Data_SendBuf) refers to app_plt.o(.bss) for Server_Data_Buf
    app_plt.o(i.XYDevDataDeal) refers to rt_memcpy_v6.o(.text) for __aeabi_memcpy
    app_plt.o(i.XYDevDataDeal) refers to app_vfd.o(.bss) for MeterCtrl
    app_plt.o(i.XYDevDataDeal) refers to app_para.o(.data) for GpSysStat
    app_plt.o(i.XYMeterVarRead) refers to app_para.o(.data) for GpSysStat
    app_usrcmd.o(i.DebugFtpTest) refers to app_upgrade.o(i.FtpInfoInit) for FtpInfoInit
    app_usrcmd.o(i.UsrCmdCtrl) refers to comm.o(i.my_atoi) for my_atoi
    app_usrcmd.o(i.UsrCmdCtrl) refers to app_protocol.o(i.RebootDelay) for RebootDelay
    app_usrcmd.o(i.UsrCmdCtrl) refers to app_usrcmd.o(i.DebugFtpTest) for DebugFtpTest
    app_usrcmd.o(i.UsrCmdDebug) refers to comm.o(i.my_atoi) for my_atoi
    app_usrcmd.o(i.UsrCmdDebug) refers to app_vfd.o(i.Task_VfdInit) for Task_VfdInit
    app_usrcmd.o(i.UsrCmdDebug) refers to app_debug.o(.data) for AppDebug
    app_usrcmd.o(i.UsrCmdDebug) refers to app_multfun.o(.data) for CfgDelay
    app_usrcmd.o(i.UsrCmdParse) refers to _printf_percent.o(.ARM.Collect$$_printf_percent$$00000000) for _printf_percent
    app_usrcmd.o(i.UsrCmdParse) refers to _printf_s.o(.ARM.Collect$$_printf_percent$$00000014) for _printf_s
    app_usrcmd.o(i.UsrCmdParse) refers to _printf_str.o(.text) for _printf_str
    app_usrcmd.o(i.UsrCmdParse) refers to __2sprintf.o(.text) for __2sprintf
    app_usrcmd.o(i.UsrCmdParse) refers to strtok.o(.text) for strtok
    app_usrcmd.o(i.UsrCmdParse) refers to comm.o(i.stricmp) for stricmp
    app_usrcmd.o(i.UsrCmdParse) refers to app_usrcmd.o(i.UsrCmdSet) for UsrCmdSet
    app_usrcmd.o(i.UsrCmdParse) refers to app_usrcmd.o(i.UsrCmdQuery) for UsrCmdQuery
    app_usrcmd.o(i.UsrCmdParse) refers to app_usrcmd.o(i.UsrCmdCtrl) for UsrCmdCtrl
    app_usrcmd.o(i.UsrCmdParse) refers to app_usrcmd.o(i.UsrCmdTest) for UsrCmdTest
    app_usrcmd.o(i.UsrCmdParse) refers to app_usrcmd.o(i.UsrCmdDebug) for UsrCmdDebug
    app_usrcmd.o(i.UsrCmdQuery) refers to comm.o(i.my_atoi) for my_atoi
    app_usrcmd.o(i.UsrCmdQuery) refers to app_protocol.o(i.isGprsCon) for isGprsCon
    app_usrcmd.o(i.UsrCmdQuery) refers to app_debug.o(i.DebugMsg) for DebugMsg
    app_usrcmd.o(i.UsrCmdQuery) refers to app_debug.o(.bss) for DebugCheck
    app_usrcmd.o(i.UsrCmdQuery) refers to app_para.o(.data) for GpSysPara
    app_usrcmd.o(i.UsrCmdSet) refers to comm.o(i.my_atoi) for my_atoi
    app_usrcmd.o(i.UsrCmdSet) refers to strlen.o(.text) for strlen
    app_usrcmd.o(i.UsrCmdSet) refers to strcpy.o(.text) for strcpy
    app_usrcmd.o(i.UsrCmdSet) refers to app_para.o(.data) for GpSysPara
    app_usrcmd.o(i.UsrCmdSet) refers to app_para.o(.bss) for ParaFat
    app_usrcmd.o(i.UsrCmdTest) refers to comm.o(i.my_atoi) for my_atoi
    app_vfd.o(i.CanBus_ISR_Rx) refers to app_vfd.o(.data) for RevCanFlag
    app_vfd.o(i.CanBus_ISR_Rx) refers to app_vfd.o(.bss) for RevCanBuf
    app_vfd.o(i.DriveCan_sendData) refers to stm32f10x_can.o(i.CAN_Transmit) for CAN_Transmit
    app_vfd.o(i.GetComIndex) refers to app_vfd.o(.data) for pVfd
    app_vfd.o(i.Meter2ClrTimeOut) refers to app_vfd.o(.data) for Meter2OptRlt
    app_vfd.o(i.MeterClrTimeOut) refers to app_vfd.o(.data) for MeterOptRlt
    app_vfd.o(i.MeterReadIndexChg) refers to app_para.o(.data) for GpSysPara
    app_vfd.o(i.MeterReadIndexChg) refers to app_vfd.o(.bss) for MeterCtrl
    app_vfd.o(i.MeterWaitResp) refers to app_vfd.o(.bss) for MeterCtrl
    app_vfd.o(i.ModbusAddrInit) refers to rt_memclr_w.o(.text) for __aeabi_memclr4
    app_vfd.o(i.ModbusRcvCrcChk) refers to comm.o(i.CRC16_1) for CRC16_1
    app_vfd.o(i.ModbusSendNextChar) refers to uart.o(i.UartSendData) for UartSendData
    app_vfd.o(i.ModbusStartSend) refers to app_vfd.o(i.ModbusDelay) for ModbusDelay
    app_vfd.o(i.ModbusStartSend) refers to uart.o(i.UartIntSendData) for UartIntSendData
    app_vfd.o(i.PltParaWrite) refers to app_plt.o(i.GetPltReadAddr) for GetPltReadAddr
    app_vfd.o(i.PltParaWrite) refers to app_plt.o(i.Server_Writer_Data_SendBuf) for Server_Writer_Data_SendBuf
    app_vfd.o(i.PltParaWrite) refers to app_vfd.o(i.ChgVfdAddr) for ChgVfdAddr
    app_vfd.o(i.PltParaWrite) refers to app_vfd.o(i.VfdReadRegPacket) for VfdReadRegPacket
    app_vfd.o(i.PltParaWrite) refers to app_vfd.o(i.VfdWaitResp) for VfdWaitResp
    app_vfd.o(i.PltParaWrite) refers to app_vfd.o(i.ModbusStartSend) for ModbusStartSend
    app_vfd.o(i.PltParaWrite) refers to app_vfd.o(i.VfdSetWhoUse) for VfdSetWhoUse
    app_vfd.o(i.PltParaWrite) refers to app_vfd.o(i.VfdWriteRegPacket) for VfdWriteRegPacket
    app_vfd.o(i.PltParaWrite) refers to app_vfd.o(i.VfdClrTimeOut) for VfdClrTimeOut
    app_vfd.o(i.PltParaWrite) refers to app_vfd.o(i.Rs485ComOptResultAlarm) for Rs485ComOptResultAlarm
    app_vfd.o(i.PltParaWrite) refers to app_vfd.o(i.SetRemoteOptResult) for SetRemoteOptResult
    app_vfd.o(i.PltParaWrite) refers to app_vfd.o(.data) for VfdInitFlag
    app_vfd.o(i.PltParaWrite) refers to app_plt.o(.data) for EnterPltParaWrite
    app_vfd.o(i.PltParaWrite) refers to app_vfd.o(.bss) for VfdCtrl
    app_vfd.o(i.PltParaWrite) refers to app_para.o(.data) for GpSysPara
    app_vfd.o(i.RS4850_ChgToRcv) refers to stm32f10x_gpio.o(i.GPIO_ResetBits) for GPIO_ResetBits
    app_vfd.o(i.RS4850_ChgToSnd) refers to stm32f10x_gpio.o(i.GPIO_SetBits) for GPIO_SetBits
    app_vfd.o(i.RS4850_ChgToSnd) refers to stm32f10x_usart.o(i.USART_ClearFlag) for USART_ClearFlag
    app_vfd.o(i.RS4850_ChgToSnd) refers to stm32f10x_usart.o(i.USART_ITConfig) for USART_ITConfig
    app_vfd.o(i.RS4851_ChgToRcv) refers to stm32f10x_gpio.o(i.GPIO_ResetBits) for GPIO_ResetBits
    app_vfd.o(i.RS4851_ChgToSnd) refers to stm32f10x_gpio.o(i.GPIO_SetBits) for GPIO_SetBits
    app_vfd.o(i.RS4851_ChgToSnd) refers to stm32f10x_usart.o(i.USART_ClearFlag) for USART_ClearFlag
    app_vfd.o(i.RS4851_ChgToSnd) refers to stm32f10x_usart.o(i.USART_ITConfig) for USART_ITConfig
    app_vfd.o(i.RS4852_ChgToRcv) refers to stm32f10x_gpio.o(i.GPIO_ResetBits) for GPIO_ResetBits
    app_vfd.o(i.RS4852_ChgToSnd) refers to stm32f10x_gpio.o(i.GPIO_SetBits) for GPIO_SetBits
    app_vfd.o(i.RS4852_ChgToSnd) refers to stm32f10x_usart.o(i.USART_ClearFlag) for USART_ClearFlag
    app_vfd.o(i.RS4852_ChgToSnd) refers to stm32f10x_usart.o(i.USART_ITConfig) for USART_ITConfig
    app_vfd.o(i.RS485ComInit) refers to app_vfd.o(i.ModbusAddrInit) for ModbusAddrInit
    app_vfd.o(i.RS485ComInit) refers to app_vfd.o(i.ModbusOvTmInit) for ModbusOvTmInit
    app_vfd.o(i.RS485ComInit) refers to app_vfd.o(i.ModbusFunInit) for ModbusFunInit
    app_vfd.o(i.RS485ComInit) refers to app_vfd.o(.data) for pVfd
    app_vfd.o(i.ReadIndexChg) refers to app_para.o(.data) for GpSysPara
    app_vfd.o(i.ReadIndexChg) refers to app_vfd.o(.bss) for VfdCtrl
    app_vfd.o(i.Rs485ComOptResultAlarm) refers to app_vfd.o(i.GetComIndex) for GetComIndex
    app_vfd.o(i.Rs485ComOptResultAlarm) refers to app_vfd.o(.data) for CommErrCnt
    app_vfd.o(i.Rs485ComOptResultAlarm) refers to app_para.o(.data) for GpSysStat
    app_vfd.o(i.Rs485ComOptResultAlarm) refers to app_protocol.o(.data) for ParaUpdate
    app_vfd.o(i.SetMeterReadIndex) refers to app_para.o(.data) for GpSysPara
    app_vfd.o(i.SetMeterReadIndex) refers to app_vfd.o(.bss) for MeterCtrl
    app_vfd.o(i.SetRemoteOptResult) refers to app_vfd.o(.data) for VfdWhoUse
    app_vfd.o(i.Task_Meter2Comm) refers to app_vfd.o(i.Meter2ClrTimeOut) for Meter2ClrTimeOut
    app_vfd.o(i.Task_Meter2Comm) refers to app_plt.o(i.GetMeter2ReadAddr) for GetMeter2ReadAddr
    app_vfd.o(i.Task_Meter2Comm) refers to app_vfd.o(i.ChgVfdAddr) for ChgVfdAddr
    app_vfd.o(i.Task_Meter2Comm) refers to app_vfd.o(i.VfdReadRegPacket) for VfdReadRegPacket
    app_vfd.o(i.Task_Meter2Comm) refers to app_vfd.o(i.MeterWaitResp) for MeterWaitResp
    app_vfd.o(i.Task_Meter2Comm) refers to app_vfd.o(i.ModbusStartSend) for ModbusStartSend
    app_vfd.o(i.Task_Meter2Comm) refers to app_vfd.o(.bss) for Meter2Ctrl
    app_vfd.o(i.Task_Meter2Comm) refers to app_vfd.o(.data) for Meter2Delay
    app_vfd.o(i.Task_Meter2Comm) refers to app_para.o(.data) for GpSysPara
    app_vfd.o(i.Task_Meter2Deal) refers to app_vfd.o(i.ModbusRcvFinish) for ModbusRcvFinish
    app_vfd.o(i.Task_Meter2Deal) refers to app_vfd.o(i.ModbusRcvCrcChk) for ModbusRcvCrcChk
    app_vfd.o(i.Task_Meter2Deal) refers to rt_memcpy_v6.o(.text) for __aeabi_memcpy
    app_vfd.o(i.Task_Meter2Deal) refers to app_plt.o(i.XYDevDataDeal) for XYDevDataDeal
    app_vfd.o(i.Task_Meter2Deal) refers to app_vfd.o(i.ModbusRcvTimeOut) for ModbusRcvTimeOut
    app_vfd.o(i.Task_Meter2Deal) refers to app_vfd.o(i.DriveCan_sendData) for DriveCan_sendData
    app_vfd.o(i.Task_Meter2Deal) refers to app_vfd.o(.data) for GbMeter2EventFlag
    app_vfd.o(i.Task_Meter2Deal) refers to app_vfd.o(.bss) for RecDataBuff2
    app_vfd.o(i.Task_Meter2Deal) refers to app_para.o(.data) for GpSysPara
    app_vfd.o(i.Task_Meter2Init) refers to bsp.o(i.InitUart) for InitUart
    app_vfd.o(i.Task_Meter2Init) refers to app_vfd.o(i.ModbusAddrInit) for ModbusAddrInit
    app_vfd.o(i.Task_Meter2Init) refers to app_vfd.o(i.ModbusOvTmInit) for ModbusOvTmInit
    app_vfd.o(i.Task_Meter2Init) refers to app_vfd.o(i.ModbusFunInit) for ModbusFunInit
    app_vfd.o(i.Task_Meter2Init) refers to app_vfd.o(.data) for pMeter2
    app_vfd.o(i.Task_MeterComm) refers to app_vfd.o(i.ChgVfdAddr) for ChgVfdAddr
    app_vfd.o(i.Task_MeterComm) refers to app_vfd.o(i.VfdWriteMoreRegPacket) for VfdWriteMoreRegPacket
    app_vfd.o(i.Task_MeterComm) refers to app_vfd.o(i.MeterWaitResp) for MeterWaitResp
    app_vfd.o(i.Task_MeterComm) refers to app_vfd.o(i.MeterClrTimeOut) for MeterClrTimeOut
    app_vfd.o(i.Task_MeterComm) refers to app_plt.o(i.GetMeterReadAddr) for GetMeterReadAddr
    app_vfd.o(i.Task_MeterComm) refers to app_vfd.o(i.VfdReadRegPacket) for VfdReadRegPacket
    app_vfd.o(i.Task_MeterComm) refers to app_vfd.o(i.ModbusStartSend) for ModbusStartSend
    app_vfd.o(i.Task_MeterComm) refers to app_vfd.o(i.Rs485ComOptResultAlarm) for Rs485ComOptResultAlarm
    app_vfd.o(i.Task_MeterComm) refers to app_vfd.o(i.MeterReadIndexChg) for MeterReadIndexChg
    app_vfd.o(i.Task_MeterComm) refers to app_vfd.o(.data) for Meter_Writer_Flag
    app_vfd.o(i.Task_MeterComm) refers to app_vfd.o(.bss) for MeterCtrl
    app_vfd.o(i.Task_MeterComm) refers to app_para.o(.data) for GpSysPara
    app_vfd.o(i.Task_MeterDeal) refers to app_vfd.o(i.ModbusRcvFinish) for ModbusRcvFinish
    app_vfd.o(i.Task_MeterDeal) refers to app_vfd.o(i.ModbusRcvCrcChk) for ModbusRcvCrcChk
    app_vfd.o(i.Task_MeterDeal) refers to rt_memcpy_v6.o(.text) for __aeabi_memcpy
    app_vfd.o(i.Task_MeterDeal) refers to app_plt.o(i.XYDevDataDeal) for XYDevDataDeal
    app_vfd.o(i.Task_MeterDeal) refers to app_vfd.o(i.ModbusRcvTimeOut) for ModbusRcvTimeOut
    app_vfd.o(i.Task_MeterDeal) refers to app_vfd.o(.data) for GbMeterEventFlag
    app_vfd.o(i.Task_MeterDeal) refers to app_vfd.o(.bss) for RecDataBuff
    app_vfd.o(i.Task_MeterDeal) refers to app_para.o(.data) for GpSysPara
    app_vfd.o(i.Task_MeterInit) refers to bsp.o(i.InitUart) for InitUart
    app_vfd.o(i.Task_MeterInit) refers to app_vfd.o(i.ModbusAddrInit) for ModbusAddrInit
    app_vfd.o(i.Task_MeterInit) refers to app_vfd.o(i.ModbusOvTmInit) for ModbusOvTmInit
    app_vfd.o(i.Task_MeterInit) refers to app_vfd.o(i.ModbusFunInit) for ModbusFunInit
    app_vfd.o(i.Task_MeterInit) refers to app_vfd.o(i.SetMeterReadIndex) for SetMeterReadIndex
    app_vfd.o(i.Task_MeterInit) refers to app_vfd.o(.data) for pMeter
    app_vfd.o(i.Task_VfdComm) refers to app_vfd.o(i.PltParaWrite) for PltParaWrite
    app_vfd.o(i.Task_VfdComm) refers to app_vfd.o(i.ChgVfdAddr) for ChgVfdAddr
    app_vfd.o(i.Task_VfdComm) refers to app_vfd.o(i.VfdWriteRegPacket) for VfdWriteRegPacket
    app_vfd.o(i.Task_VfdComm) refers to app_vfd.o(i.VfdWaitResp) for VfdWaitResp
    app_vfd.o(i.Task_VfdComm) refers to app_vfd.o(i.VfdSetWhoUse) for VfdSetWhoUse
    app_vfd.o(i.Task_VfdComm) refers to app_vfd.o(i.VfdWriteMoreRegPacket) for VfdWriteMoreRegPacket
    app_vfd.o(i.Task_VfdComm) refers to app_vfd.o(i.VfdClrTimeOut) for VfdClrTimeOut
    app_vfd.o(i.Task_VfdComm) refers to app_plt.o(i.GetPltReadAddr) for GetPltReadAddr
    app_vfd.o(i.Task_VfdComm) refers to app_vfd.o(i.VfdReadRegPacket) for VfdReadRegPacket
    app_vfd.o(i.Task_VfdComm) refers to app_vfd.o(i.ModbusStartSend) for ModbusStartSend
    app_vfd.o(i.Task_VfdComm) refers to app_vfd.o(i.SetRemoteOptResult) for SetRemoteOptResult
    app_vfd.o(i.Task_VfdComm) refers to app_vfd.o(i.Rs485ComOptResultAlarm) for Rs485ComOptResultAlarm
    app_vfd.o(i.Task_VfdComm) refers to app_vfd.o(i.ReadIndexChg) for ReadIndexChg
    app_vfd.o(i.Task_VfdComm) refers to app_vfd.o(.data) for VfdInitFlag
    app_vfd.o(i.Task_VfdComm) refers to app_plt.o(.data) for EnterPltParaWrite
    app_vfd.o(i.Task_VfdComm) refers to app_vfd.o(.bss) for VfdCtrl
    app_vfd.o(i.Task_VfdComm) refers to app_para.o(.data) for GpSysPara
    app_vfd.o(i.Task_VfdComm) refers to app_multfun.o(.data) for RmtBootTimer
    app_vfd.o(i.Task_VfdDeal) refers to app_vfd.o(i.ModbusRcvFinish) for ModbusRcvFinish
    app_vfd.o(i.Task_VfdDeal) refers to app_vfd.o(i.ModbusRcvCrcChk) for ModbusRcvCrcChk
    app_vfd.o(i.Task_VfdDeal) refers to app_plt.o(i.PltDevMan860DataPrase) for PltDevMan860DataPrase
    app_vfd.o(i.Task_VfdDeal) refers to app_plt.o(i.PltDevDataPrase) for PltDevDataPrase
    app_vfd.o(i.Task_VfdDeal) refers to app_vfd.o(i.IsModbusMaster) for IsModbusMaster
    app_vfd.o(i.Task_VfdDeal) refers to app_vfd.o(i.ModbusRcvTimeOut) for ModbusRcvTimeOut
    app_vfd.o(i.Task_VfdDeal) refers to app_vfd.o(.data) for VfdInitFlag
    app_vfd.o(i.Task_VfdDeal) refers to app_para.o(.data) for GpSysPara
    app_vfd.o(i.Task_VfdDeal) refers to app_vfd.o(.bss) for VfdCtrl
    app_vfd.o(i.Task_VfdInit) refers to bsp.o(i.Init485Uart) for Init485Uart
    app_vfd.o(i.Task_VfdInit) refers to app_vfd.o(i.VfdCtrlInit) for VfdCtrlInit
    app_vfd.o(i.Task_VfdInit) refers to app_vfd.o(i.ModbusAddrInit) for ModbusAddrInit
    app_vfd.o(i.Task_VfdInit) refers to app_vfd.o(i.ModbusOvTmInit) for ModbusOvTmInit
    app_vfd.o(i.Task_VfdInit) refers to app_vfd.o(i.ModbusFunInit) for ModbusFunInit
    app_vfd.o(i.Task_VfdInit) refers to app_vfd.o(.data) for VfdInitFlag
    app_vfd.o(i.VfdClrTimeOut) refers to app_vfd.o(.data) for VfdOptRlt
    app_vfd.o(i.VfdCtrlInit) refers to rt_memclr_w.o(.text) for __aeabi_memclr4
    app_vfd.o(i.VfdCtrlInit) refers to app_vfd.o(.data) for VfdDelay
    app_vfd.o(i.VfdCtrlInit) refers to app_vfd.o(.bss) for VfdCtrl
    app_vfd.o(i.VfdReadRegPacket) refers to comm.o(i.CRC16_1) for CRC16_1
    app_vfd.o(i.VfdSetWhoUse) refers to app_vfd.o(.data) for VfdWhoUse
    app_vfd.o(i.VfdWaitResp) refers to app_vfd.o(.bss) for VfdCtrl
    app_vfd.o(i.VfdWriteMoreRegPacket) refers to comm.o(i.CRC16_1) for CRC16_1
    app_vfd.o(i.VfdWriteRegPacket) refers to comm.o(i.CRC16_1) for CRC16_1
    app_vfd.o(i.Vfd_Meter_Write_Data) refers to app_vfd.o(.data) for Meter_Writer_Data
    app_vfd.o(.data) refers to app_vfd.o(.bss) for RS4850Modbus
    app_vfd.o(.data) refers to app_vfd.o(i.RS4850_ChgToSnd) for RS4850_ChgToSnd
    app_vfd.o(.data) refers to app_vfd.o(i.RS4850_ChgToRcv) for RS4850_ChgToRcv
    app_vfd.o(.data) refers to app_vfd.o(i.RS4851_ChgToSnd) for RS4851_ChgToSnd
    app_vfd.o(.data) refers to app_vfd.o(i.RS4851_ChgToRcv) for RS4851_ChgToRcv
    app_vfd.o(.data) refers to app_vfd.o(i.RS4852_ChgToSnd) for RS4852_ChgToSnd
    app_vfd.o(.data) refers to app_vfd.o(i.RS4852_ChgToRcv) for RS4852_ChgToRcv
    comm.o(i.CRC16_1) refers to comm.o(.constdata) for chCRCHTalbe
    comm.o(i.IsIp) refers to strlen.o(.text) for strlen
    comm.o(i.StringToHex) refers to comm.o(i.ASCIIToHex) for ASCIIToHex
    comm.o(i.StringiCmp) refers to strlen.o(.text) for strlen
    comm.o(i.StringiCmp) refers to comm.o(i.memicmp) for memicmp
    comm.o(i.StrtokAfter) refers to strlen.o(.text) for strlen
    comm.o(i.StrtokAfter) refers to memcmp.o(.text) for memcmp
    comm.o(i.StrtokBefore) refers to strlen.o(.text) for strlen
    comm.o(i.StrtokBefore) refers to memcmp.o(.text) for memcmp
    comm.o(i.memicmp) refers to comm.o(i.CharConvert) for CharConvert
    comm.o(i.my_atof) refers to fflt_clz.o(x$fpl$fflt) for __aeabi_i2f
    comm.o(i.my_atof) refers to fdiv.o(x$fpl$fdiv) for __aeabi_fdiv
    comm.o(i.my_atof) refers to f2d.o(x$fpl$f2d) for __aeabi_f2d
    comm.o(i.my_atof) refers to daddsub_clz.o(x$fpl$dadd) for __aeabi_dadd
    comm.o(i.my_atof) refers to fmul.o(x$fpl$fmul) for __aeabi_fmul
    comm.o(i.my_atof) refers to dflt_clz.o(x$fpl$dfltu) for __aeabi_ui2d
    comm.o(i.my_atof) refers to dmul.o(x$fpl$dmul) for __aeabi_dmul
    comm.o(i.my_atof) refers to daddsub_clz.o(x$fpl$dsub) for __aeabi_dsub
    comm.o(i.stricmp) refers to comm.o(i.CharConvert) for CharConvert
    stm32f10x_it.o(i.DMA1_Channel7_IRQHandler) refers to stm32f10x_dma.o(i.DMA_GetFlagStatus) for DMA_GetFlagStatus
    stm32f10x_it.o(i.DMA1_Channel7_IRQHandler) refers to stm32f10x_dma.o(i.DMA_ClearFlag) for DMA_ClearFlag
    stm32f10x_it.o(i.DMA1_Channel7_IRQHandler) refers to stm32f10x_dma.o(i.DMA_Cmd) for DMA_Cmd
    stm32f10x_it.o(i.DMA1_Channel7_IRQHandler) refers to stm32f10x_usart.o(i.USART_ITConfig) for USART_ITConfig
    stm32f10x_it.o(i.SysTick_Handler) refers to app_rtc.o(i.SysTime_Updata) for SysTime_Updata
    stm32f10x_it.o(i.SysTick_Handler) refers to stm32f10x_it.o(i.UartRcvTimeOut) for UartRcvTimeOut
    stm32f10x_it.o(i.SysTick_Handler) refers to stm32f10x_it.o(.data) for Nms
    stm32f10x_it.o(i.SysTick_Handler) refers to app_rtc.o(.data) for TimeFlag
    stm32f10x_it.o(i.SysTick_Handler) refers to app_multfun.o(.data) for CfgDelay
    stm32f10x_it.o(i.SysTick_Handler) refers to app_dtucfg.o(.data) for GbDtuEnterCfg
    stm32f10x_it.o(i.SysTick_Handler) refers to app_debug.o(.data) for AppDebug
    stm32f10x_it.o(i.SysTick_Handler) refers to app_vfd.o(.data) for GbEventFlag
    stm32f10x_it.o(i.UART4_IRQHandler) refers to stm32f10x_usart.o(i.USART_GetITStatus) for USART_GetITStatus
    stm32f10x_it.o(i.UART4_IRQHandler) refers to stm32f10x_usart.o(i.USART_ClearITPendingBit) for USART_ClearITPendingBit
    stm32f10x_it.o(i.UART4_IRQHandler) refers to stm32f10x_usart.o(i.USART_ReceiveData) for USART_ReceiveData
    stm32f10x_it.o(i.UART4_IRQHandler) refers to app_vfd.o(i.ModbusUartIsr) for ModbusUartIsr
    stm32f10x_it.o(i.UART4_IRQHandler) refers to stm32f10x_usart.o(i.USART_GetFlagStatus) for USART_GetFlagStatus
    stm32f10x_it.o(i.UART4_IRQHandler) refers to stm32f10x_usart.o(i.USART_ClearFlag) for USART_ClearFlag
    stm32f10x_it.o(i.UART4_IRQHandler) refers to app_vfd.o(i.ModbusSendNextChar) for ModbusSendNextChar
    stm32f10x_it.o(i.UART4_IRQHandler) refers to app_vfd.o(.bss) for RS4852Modbus
    stm32f10x_it.o(i.USART1_IRQHandler) refers to stm32f10x_usart.o(i.USART_GetITStatus) for USART_GetITStatus
    stm32f10x_it.o(i.USART1_IRQHandler) refers to stm32f10x_usart.o(i.USART_ClearITPendingBit) for USART_ClearITPendingBit
    stm32f10x_it.o(i.USART1_IRQHandler) refers to stm32f10x_usart.o(i.USART_ReceiveData) for USART_ReceiveData
    stm32f10x_it.o(i.USART1_IRQHandler) refers to uart.o(i.UartFirstChar) for UartFirstChar
    stm32f10x_it.o(i.USART1_IRQHandler) refers to app_vfd.o(i.ModbusUartIsr) for ModbusUartIsr
    stm32f10x_it.o(i.USART1_IRQHandler) refers to stm32f10x_usart.o(i.USART_GetFlagStatus) for USART_GetFlagStatus
    stm32f10x_it.o(i.USART1_IRQHandler) refers to stm32f10x_usart.o(i.USART_ClearFlag) for USART_ClearFlag
    stm32f10x_it.o(i.USART1_IRQHandler) refers to app_vfd.o(i.ModbusSendNextChar) for ModbusSendNextChar
    stm32f10x_it.o(i.USART1_IRQHandler) refers to app_multfun.o(.data) for CfgDelay
    stm32f10x_it.o(i.USART1_IRQHandler) refers to app_dtucfg.o(.data) for GbDtuEnterCfg
    stm32f10x_it.o(i.USART1_IRQHandler) refers to app_debug.o(.data) for AppDebug
    stm32f10x_it.o(i.USART1_IRQHandler) refers to uart.o(.bss) for UartTest
    stm32f10x_it.o(i.USART1_IRQHandler) refers to uart.o(.data) for DebugUartRcvStat
    stm32f10x_it.o(i.USART1_IRQHandler) refers to app_vfd.o(.bss) for RS4850Modbus
    stm32f10x_it.o(i.USART2_IRQHandler) refers to stm32f10x_usart.o(i.USART_GetITStatus) for USART_GetITStatus
    stm32f10x_it.o(i.USART2_IRQHandler) refers to stm32f10x_usart.o(i.USART_ClearITPendingBit) for USART_ClearITPendingBit
    stm32f10x_it.o(i.USART2_IRQHandler) refers to stm32f10x_usart.o(i.USART_ReceiveData) for USART_ReceiveData
    stm32f10x_it.o(i.USART2_IRQHandler) refers to gc65.o(i.GprsUartIsr) for GprsUartIsr
    stm32f10x_it.o(i.USART2_IRQHandler) refers to stm32f10x_usart.o(i.USART_GetFlagStatus) for USART_GetFlagStatus
    stm32f10x_it.o(i.USART2_IRQHandler) refers to stm32f10x_usart.o(i.USART_ClearFlag) for USART_ClearFlag
    stm32f10x_it.o(i.USART2_IRQHandler) refers to stm32f10x_usart.o(i.USART_ITConfig) for USART_ITConfig
    stm32f10x_it.o(i.USART3_IRQHandler) refers to stm32f10x_usart.o(i.USART_GetITStatus) for USART_GetITStatus
    stm32f10x_it.o(i.USART3_IRQHandler) refers to stm32f10x_usart.o(i.USART_ClearITPendingBit) for USART_ClearITPendingBit
    stm32f10x_it.o(i.USART3_IRQHandler) refers to stm32f10x_usart.o(i.USART_ReceiveData) for USART_ReceiveData
    stm32f10x_it.o(i.USART3_IRQHandler) refers to app_vfd.o(i.ModbusUartIsr) for ModbusUartIsr
    stm32f10x_it.o(i.USART3_IRQHandler) refers to stm32f10x_usart.o(i.USART_GetFlagStatus) for USART_GetFlagStatus
    stm32f10x_it.o(i.USART3_IRQHandler) refers to stm32f10x_usart.o(i.USART_ClearFlag) for USART_ClearFlag
    stm32f10x_it.o(i.USART3_IRQHandler) refers to app_vfd.o(i.ModbusSendNextChar) for ModbusSendNextChar
    stm32f10x_it.o(i.USART3_IRQHandler) refers to app_vfd.o(.bss) for RS4851Modbus
    stm32f10x_it.o(i.USB_LP_CAN1_RX0_IRQHandler) refers to stm32f10x_can.o(i.CAN_MessagePending) for CAN_MessagePending
    stm32f10x_it.o(i.USB_LP_CAN1_RX0_IRQHandler) refers to stm32f10x_can.o(i.CAN_Receive) for CAN_Receive
    stm32f10x_it.o(i.USB_LP_CAN1_RX0_IRQHandler) refers to app_vfd.o(i.CanBus_ISR_Rx) for CanBus_ISR_Rx
    stm32f10x_it.o(i.UartRcvTimeOut) refers to uart.o(i.UartTimerOver) for UartTimerOver
    stm32f10x_it.o(i.UartRcvTimeOut) refers to uart.o(.bss) for UartTest
    stm32f10x_it.o(i.UartRcvTimeOut) refers to uart.o(.data) for DebugUartRcvStat
    app_dtucfg.o(i.dtuConfigResp) refers to rt_memcpy_v6.o(.text) for __aeabi_memcpy
    app_dtucfg.o(i.dtuConfigResp) refers to app_dtucfg.o(i.dtuCfgDataCrc) for dtuCfgDataCrc
    app_dtucfg.o(i.dtuFactoryConfig) refers to app_dtucfg.o(i.dtuCfgDataCheck) for dtuCfgDataCheck
    app_dtucfg.o(i.dtuFactoryConfig) refers to app_dtucfg.o(i.dtuCfgDataCrc) for dtuCfgDataCrc
    app_dtucfg.o(i.dtuFactoryConfig) refers to app_dtucfg.o(i.dtuConfigResp) for dtuConfigResp
    app_dtucfg.o(i.dtuFactoryConfig) refers to strlen.o(.text) for strlen
    app_dtucfg.o(i.dtuFactoryConfig) refers to app_dtucfg.o(i.BigEndConvert) for BigEndConvert
    app_dtucfg.o(i.dtuFactoryConfig) refers to rt_memclr.o(.text) for __aeabi_memclr
    app_dtucfg.o(i.dtuFactoryConfig) refers to rt_memcpy_v6.o(.text) for __aeabi_memcpy
    app_dtucfg.o(i.dtuFactoryConfig) refers to app_dtucfg.o(.data) for GbDtuEnterCfg
    app_dtucfg.o(i.dtuFactoryConfig) refers to app_dtucfg.o(.bss) for dtuTmpBuf
    app_dtucfg.o(i.dtuFactoryConfig) refers to app_para.o(.data) for GpSysPara
    app_dtucfg.o(i.dtuFactoryConfig) refers to app_debug.o(i.RS485CfgResp) for RS485CfgResp
    app_dtucfg.o(i.dtuFactoryConfig) refers to app_para.o(.bss) for ParaFat
    app_rtc.o(i.ConverseTimeNum) refers to app_rtc.o(i.LeapYear) for LeapYear
    app_rtc.o(i.ConverseTimeNum) refers to app_rtc.o(i.YearDay) for YearDay
    app_rtc.o(i.GetRtctime) refers to app_rtc.o(i.LeapYear) for LeapYear
    app_rtc.o(i.GetRtctime) refers to app_rtc.o(.data) for gTime_RtcTime
    app_rtc.o(i.GprsReadNetTime) refers to app_rtc.o(i.RTC_GmtToBjTime) for RTC_GmtToBjTime
    app_rtc.o(i.GprsReadNetTime) refers to app_rtc.o(i.ConverseTimeNum) for ConverseTimeNum
    app_rtc.o(i.GprsReadNetTime) refers to app_rtc.o(.data) for gTime_RtcTime
    app_rtc.o(i.RTC_GmtToBjTime) refers to app_rtc.o(i.LeapYear) for LeapYear
    app_rtc.o(i.RTC_GmtToBjTime) refers to app_rtc.o(.constdata) for Table
    app_rtc.o(i.ServerTimeSet) refers to strlen.o(.text) for strlen
    app_rtc.o(i.ServerTimeSet) refers to app_rtc.o(i.ConverseTimeNum) for ConverseTimeNum
    app_rtc.o(i.ServerTimeSet) refers to app_rtc.o(.data) for TimeFlag
    app_rtc.o(i.SysTime_Delay) refers to app_rtc.o(i.SysTime_Get) for SysTime_Get
    app_rtc.o(i.SysTime_Fresh) refers to app_rtc.o(i.SysTime_Get) for SysTime_Get
    app_rtc.o(i.SysTime_Get) refers to app_rtc.o(.data) for gTime_realSysCount
    app_rtc.o(i.SysTime_Updata) refers to app_rtc.o(.data) for gTime_realSysCount
    app_rtc.o(i.YearDay) refers to app_rtc.o(i.LeapYear) for LeapYear
    app_multfun.o(i.MultFunInit) refers to app_multfun.o(i.rst_data_process) for rst_data_process
    app_multfun.o(i.MultFunInit) refers to app_multfun.o(i.RegTimerInit) for RegTimerInit
    app_multfun.o(i.MultFunInit) refers to app_led.o(i.Led_Indicate_Init) for Led_Indicate_Init
    app_multfun.o(i.MultFunInit) refers to rt_memclr.o(.text) for __aeabi_memclr
    app_multfun.o(i.MultFunInit) refers to app_protocol.o(.data) for ParaUpload
    app_multfun.o(i.MultFunInit) refers to app_multfun.o(.data) for MoneyCheckTimer
    app_multfun.o(i.MultFunInit) refers to app_para.o(.data) for GpSysStat
    app_multfun.o(i.MultFunInit) refers to app_alarmevent.o(.data) for StartFilterTimer
    app_multfun.o(i.MultFunInit) refers to app_alarmevent.o(.bss) for AlmFilterTimer
    app_multfun.o(i.RegTimerErrCode) refers to app_multfun.o(.data) for BeforeReg
    app_multfun.o(i.RegTimerErrCode) refers to gc65.o(.bss) for GprsCtrlInfo
    app_multfun.o(i.RegTimerInit) refers to app_multfun.o(.data) for BeforeReg
    app_multfun.o(i.RegTimerRun) refers to app_multfun.o(.data) for BeforeReg
    app_multfun.o(i.RegTimerStop) refers to app_multfun.o(.data) for BeforeReg
    app_multfun.o(i.Task_MultFun_1s) refers to app_vfd.o(i.Task_VfdInit) for Task_VfdInit
    app_multfun.o(i.Task_MultFun_1s) refers to app_multfun.o(i.RegTimerRun) for RegTimerRun
    app_multfun.o(i.Task_MultFun_1s) refers to app_alarmevent.o(i.Alarm_Filter_Deal) for Alarm_Filter_Deal
    app_multfun.o(i.Task_MultFun_1s) refers to app_alarmevent.o(i.Start_Stop_Filter) for Start_Stop_Filter
    app_multfun.o(i.Task_MultFun_1s) refers to app_multfun.o(.data) for RmtBootTimer
    app_multfun.o(i.Task_MultFun_1s) refers to app_protocol.o(.data) for ParaUpload
    app_multfun.o(i.Task_MultFun_1s) refers to app_para.o(.data) for GpOthInfo
    app_multfun.o(i.Task_MultFun_1s) refers to app_para.o(.bss) for ParaFat
    app_multfun.o(i.Task_MultFun_1s) refers to app_debug.o(.data) for AppDebug
    app_multfun.o(i.Task_MultFun_1s) refers to app_dtucfg.o(.data) for GbDtuEnterCfg
    app_multfun.o(i.rst_data_process) refers to stm32f10x_rcc.o(i.RCC_ClearFlag) for RCC_ClearFlag
    app_multfun.o(i.rst_data_process) refers to app_debug.o(i.DebugMsg) for DebugMsg
    app_multfun.o(i.rst_data_process) refers to app_protocol.o(.bss) for AlmStat
    app_upgrade.o(i.FTPConnectRequestSet) refers to gc65.o(.bss) for GprsCtrlInfo
    app_upgrade.o(i.FtpDataGetFlag) refers to gc65.o(.bss) for GprsCtrlInfo
    app_upgrade.o(i.FtpInfoInit) refers to rt_memclr_w.o(.text) for __aeabi_memclr4
    app_upgrade.o(i.FtpInfoInit) refers to strcpy.o(.text) for strcpy
    app_upgrade.o(i.FtpInfoInit) refers to strtok.o(.text) for strtok
    app_upgrade.o(i.FtpInfoInit) refers to comm.o(i.StringToHex) for StringToHex
    app_upgrade.o(i.FtpInfoInit) refers to app_debug.o(i.DebugMsg) for DebugMsg
    app_upgrade.o(i.FtpInfoInit) refers to app_upgrade.o(i.FTPConnectRequestSet) for FTPConnectRequestSet
    app_upgrade.o(i.FtpInfoInit) refers to gc65.o(.bss) for FtpInf
    app_upgrade.o(i.FtpTimeDelay) refers to gc65.o(.bss) for GprsCtrlInfo
    app_upgrade.o(i.GetRebootFlag) refers to app_upgrade.o(.data) for GbRebootFlag
    app_upgrade.o(i.ModelIsFtping) refers to gc65.o(.bss) for GprsCtrlInfo
    app_upgrade.o(i.RebootRequest) refers to app_upgrade.o(.data) for GbRebootFlag
    app_upgrade.o(i.SysAppInfUpdate) refers to spiflash.o(i.SPIFlashWrite) for SPIFlashWrite
    app_upgrade.o(i.SysAppInfUpdate) refers to gc65.o(.bss) for FtpInf
    app_upgrade.o(i.UpdateFileCrcCheck) refers to crc32.o(i.CRC32CalcReset) for CRC32CalcReset
    app_upgrade.o(i.UpdateFileCrcCheck) refers to spiflash.o(i.SPIFlashRead) for SPIFlashRead
    app_upgrade.o(i.UpdateFileCrcCheck) refers to crc32.o(i.CRC32Calc) for CRC32Calc
    app_upgrade.o(i.UpdateFileCrcCheck) refers to bsp.o(i.FeedDog) for FeedDog
    app_upgrade.o(i.UpdateFileCrcCheck) refers to app_debug.o(i.DebugMsg) for DebugMsg
    app_upgrade.o(i.UpdateFileCrcCheck) refers to app_upgrade.o(.bss) for UpgradeBuf
    app_upgrade.o(i.UpdateFileCrcCheck) refers to gc65.o(.bss) for FtpInf
    app_upgrade.o(i.UpdateFileGet) refers to app_debug.o(i.DebugMsg) for DebugMsg
    app_upgrade.o(i.UpdateFileGet) refers to gc65_bsp.o(i.GprsUartDMAReceive) for GprsUartDMAReceive
    app_upgrade.o(i.UpdateFileGet) refers to app_upgrade.o(i.FtpTimeDelay) for FtpTimeDelay
    app_upgrade.o(i.UpdateFileGet) refers to gc65.o(.bss) for FtpInf
    app_upgrade.o(i.UpdateFileWrite) refers to gc65_bsp.o(i.GetGprsUartDMABuf) for GetGprsUartDMABuf
    app_upgrade.o(i.UpdateFileWrite) refers to app_debug.o(i.DebugMsg) for DebugMsg
    app_upgrade.o(i.UpdateFileWrite) refers to spiflash.o(i.SPIFlashWrite) for SPIFlashWrite
    app_upgrade.o(i.UpdateFileWrite) refers to gc65.o(.bss) for FtpInf
    app_upgrade.o(i.UpdateFileWrite) refers to app_upgrade.o(.data) for Upgrade
    app_upgrade.o(i.UpgradeFlagSet) refers to stm32f10x_gpio.o(i.GPIO_SetBits) for GPIO_SetBits
    app_upgrade.o(i.UpgradeFlagSet) refers to app_upgrade.o(.data) for Upgrade
    app_upgrade.o(i.UpgradeSectorErase) refers to spiflash.o(i.SPIFlashErase4K) for SPIFlashErase4K
    app_upgrade.o(i.UpgradeSectorErase) refers to bsp.o(i.FeedDog) for FeedDog
    app_upgrade.o(i.UpgradeSectorErase) refers to app_debug.o(i.DebugMsg) for DebugMsg
    app_upgrade.o(i.UpgradeSectorErase) refers to gc65.o(.bss) for FtpInf
    app_upgrade.o(i.UpgradeServerInit) refers to strtok.o(.text) for strtok
    app_upgrade.o(i.UpgradeServerInit) refers to strcpy.o(.text) for strcpy
    app_upgrade.o(i.UpgradeServerInit) refers to strlen.o(.text) for strlen
    app_upgrade.o(i.UpgradeServerInit) refers to atoi.o(.text) for atoi
    app_upgrade.o(i.UpgradeServerInit) refers to gc65.o(.bss) for FtpInf
    app_upgrade.o(i.UpgradeSizeInit) refers to atoi.o(.text) for atoi
    app_upgrade.o(i.UpgradeSizeInit) refers to gc65.o(.bss) for FtpInf
    app_upgrade.o(i.UpgradeTask) refers to app_upgrade.o(i.UpgradeSectorErase) for UpgradeSectorErase
    app_upgrade.o(i.UpgradeTask) refers to app_upgrade.o(i.UpdateFileGet) for UpdateFileGet
    app_upgrade.o(i.UpgradeTask) refers to app_upgrade.o(i.FtpDataGetFlag) for FtpDataGetFlag
    app_upgrade.o(i.UpgradeTask) refers to app_upgrade.o(i.UpdateFileWrite) for UpdateFileWrite
    app_upgrade.o(i.UpgradeTask) refers to stm32f10x_gpio.o(i.GPIO_ResetBits) for GPIO_ResetBits
    app_upgrade.o(i.UpgradeTask) refers to app_upgrade.o(i.ModelIsFtping) for ModelIsFtping
    app_upgrade.o(i.UpgradeTask) refers to app_debug.o(i.DebugMsg) for DebugMsg
    app_upgrade.o(i.UpgradeTask) refers to app_upgrade.o(i.UpdateFileCrcCheck) for UpdateFileCrcCheck
    app_upgrade.o(i.UpgradeTask) refers to app_upgrade.o(i.SysAppInfUpdate) for SysAppInfUpdate
    app_upgrade.o(i.UpgradeTask) refers to app_upgrade.o(i.RebootRequest) for RebootRequest
    app_upgrade.o(i.UpgradeTask) refers to app_upgrade.o(.data) for Upgrade
    app_upgrade.o(i.UpgradeTask) refers to gc65.o(.bss) for FtpInf
    app_upgrade.o(i.UpgradeUsrInit) refers to strtok.o(.text) for strtok
    app_upgrade.o(i.UpgradeUsrInit) refers to strcpy.o(.text) for strcpy
    app_upgrade.o(i.UpgradeUsrInit) refers to strlen.o(.text) for strlen
    app_upgrade.o(i.UpgradeUsrInit) refers to gc65.o(.bss) for FtpInf
    app_upgrade.o(i.UpgradeVersionInit) refers to rt_memclr_w.o(.text) for __aeabi_memclr4
    app_upgrade.o(i.UpgradeVersionInit) refers to strcpy.o(.text) for strcpy
    app_upgrade.o(i.UpgradeVersionInit) refers to strtok.o(.text) for strtok
    app_upgrade.o(i.UpgradeVersionInit) refers to strcmpv7m.o(.text) for strcmp
    app_upgrade.o(i.UpgradeVersionInit) refers to app_debug.o(i.DebugMsg) for DebugMsg
    app_upgrade.o(i.UpgradeVersionInit) refers to comm.o(i.StringToHex) for StringToHex
    app_upgrade.o(i.UpgradeVersionInit) refers to gc65.o(.bss) for FtpInf
    gc65.o(i.ATCmdCnntSvr) refers to _printf_percent.o(.ARM.Collect$$_printf_percent$$00000000) for _printf_percent
    gc65.o(i.ATCmdCnntSvr) refers to _printf_d.o(.ARM.Collect$$_printf_percent$$00000009) for _printf_d
    gc65.o(i.ATCmdCnntSvr) refers to _printf_s.o(.ARM.Collect$$_printf_percent$$00000014) for _printf_s
    gc65.o(i.ATCmdCnntSvr) refers to _printf_dec.o(.text) for _printf_int_dec
    gc65.o(i.ATCmdCnntSvr) refers to _printf_str.o(.text) for _printf_str
    gc65.o(i.ATCmdCnntSvr) refers to strcpy.o(.text) for strcpy
    gc65.o(i.ATCmdCnntSvr) refers to __2sprintf.o(.text) for __2sprintf
    gc65.o(i.ATCmdCnntSvr) refers to gc65.o(i.ATCmdSend) for ATCmdSend
    gc65.o(i.ATCmdParse) refers to app_debug.o(i.DebugMsg) for DebugMsg
    gc65.o(i.ATCmdParse) refers to strcpy.o(.text) for strcpy
    gc65.o(i.ATCmdParse) refers to strlen.o(.text) for strlen
    gc65.o(i.ATCmdParse) refers to strncmp.o(.text) for strncmp
    gc65.o(i.ATCmdParse) refers to strtok.o(.text) for strtok
    gc65.o(i.ATCmdParse) refers to gc65.o(i.ATstrToInt32U) for ATstrToInt32U
    gc65.o(i.ATCmdParse) refers to strncpy.o(.text) for strncpy
    gc65.o(i.ATCmdParse) refers to gc65.o(.bss) for GprsCtrlInfo
    gc65.o(i.ATCmdParse) refers to app_debug.o(.bss) for DebugCheck
    gc65.o(i.ATCmdParse) refers to gc65.o(i.GprsReAPN) for GprsReAPN
    gc65.o(i.ATCmdParse) refers to app_multfun.o(i.RegTimerErrCode) for RegTimerErrCode
    gc65.o(i.ATCmdParse) refers to comm.o(i.IsIp) for IsIp
    gc65.o(i.ATCmdParse) refers to strcmpv7m.o(.text) for strcmp
    gc65.o(i.ATCmdParse) refers to app_rtc.o(i.GprsReadNetTime) for GprsReadNetTime
    gc65.o(i.ATCmdParse) refers to gc65.o(i.GprsReadQeng) for GprsReadQeng
    gc65.o(i.ATCmdParse) refers to comm.o(i.my_atoi) for my_atoi
    gc65.o(i.ATCmdParse) refers to app_upgrade.o(i.UpgradeFlagSet) for UpgradeFlagSet
    gc65.o(i.ATCmdParse) refers to app_rtc.o(.data) for SysTime
    gc65.o(i.ATCmdSend) refers to app_debug.o(i.DebugMsg) for DebugMsg
    gc65.o(i.ATCmdSend) refers to strlen.o(.text) for strlen
    gc65.o(i.ATCmdSend) refers to gc65_bsp.o(i.GprsUartCmd) for GprsUartCmd
    gc65.o(i.ATCmdSend) refers to gc65.o(.bss) for GprsCtrlInfo
    gc65.o(i.ATCmdSetAPN) refers to _printf_percent.o(.ARM.Collect$$_printf_percent$$00000000) for _printf_percent
    gc65.o(i.ATCmdSetAPN) refers to _printf_s.o(.ARM.Collect$$_printf_percent$$00000014) for _printf_s
    gc65.o(i.ATCmdSetAPN) refers to _printf_str.o(.text) for _printf_str
    gc65.o(i.ATCmdSetAPN) refers to __2sprintf.o(.text) for __2sprintf
    gc65.o(i.ATCmdSetAPN) refers to gc65.o(i.ATCmdSend) for ATCmdSend
    gc65.o(i.DelayReConnect) refers to app_protocol.o(.data) for RegDelay
    gc65.o(i.DelayReConnect) refers to gc65.o(.bss) for GprsCtrlInfo
    gc65.o(i.DelayRePPP) refers to app_protocol.o(.data) for RegDelay
    gc65.o(i.DelayRePPP) refers to gc65.o(.bss) for GprsCtrlInfo
    gc65.o(i.GC65Timer) refers to gc65.o(.bss) for GprsCtrlInfo
    gc65.o(i.GetMultLoc) refers to comm.o(i.StringToHex) for StringToHex
    gc65.o(i.GetMultLoc) refers to gc65.o(.bss) for GprsCtrlInfo
    gc65.o(i.GprsAppInit) refers to pipe.o(i.pipeCreate) for pipeCreate
    gc65.o(i.GprsAppInit) refers to gc65.o(i.GprsParaInit) for GprsParaInit
    gc65.o(i.GprsAppInit) refers to gc65_bsp.o(i.GPRSUartDMAInit) for GPRSUartDMAInit
    gc65.o(i.GprsAppInit) refers to gc65.o(.data) for pGprsRcv
    gc65.o(i.GprsAppInit) refers to gc65.o(.bss) for GprsRcvBuf
    gc65.o(i.GprsParaInit) refers to app_para.o(.data) for GpSysPara
    gc65.o(i.GprsParaInit) refers to gc65.o(.bss) for GprsCtrlInfo
    gc65.o(i.GprsReAPN) refers to gc65.o(.bss) for GprsCtrlInfo
    gc65.o(i.GprsReConnect) refers to gc65.o(.bss) for GprsCtrlInfo
    gc65.o(i.GprsReadQeng) refers to strtok.o(.text) for strtok
    gc65.o(i.GprsReadQeng) refers to gc65.o(i.ATstrToInt32U) for ATstrToInt32U
    gc65.o(i.GprsReadQeng) refers to gc65.o(.bss) for GprsCtrlInfo
    gc65.o(i.GprsSndDataAccept) refers to pipe.o(i.pipeDataRead) for pipeDataRead
    gc65.o(i.GprsSndDataAccept) refers to gc65.o(.data) for pGprsSnd
    gc65.o(i.GprsSndDataFlush) refers to pipe.o(i.pipeFlush) for pipeFlush
    gc65.o(i.GprsSndDataFlush) refers to gc65.o(.data) for pGprsSnd
    gc65.o(i.GprsSndDataPost) refers to pipe.o(i.pipeDataWrite) for pipeDataWrite
    gc65.o(i.GprsSndDataPost) refers to gc65.o(.data) for pGprsSnd
    gc65.o(i.GprsUartIsr) refers to pipe.o(i.pipeDataWrite) for pipeDataWrite
    gc65.o(i.GprsUartIsr) refers to gc65.o(i.RemoveBlackatoi) for RemoveBlackatoi
    gc65.o(i.GprsUartIsr) refers to gc65.o(.data) for RcvStep
    gc65.o(i.GprsUartIsr) refers to gc65.o(.bss) for ATCharRcvBuf
    gc65.o(i.HaveDataSend) refers to pipe.o(i.PipeDataValid) for PipeDataValid
    gc65.o(i.HaveDataSend) refers to gc65.o(i.GprsSndDataAccept) for GprsSndDataAccept
    gc65.o(i.HaveDataSend) refers to gc65.o(i.InsertTo) for InsertTo
    gc65.o(i.HaveDataSend) refers to app_led.o(i.LedOnSet) for LedOnSet
    gc65.o(i.HaveDataSend) refers to app_protocol.o(i.ClearHeartTimer) for ClearHeartTimer
    gc65.o(i.HaveDataSend) refers to gc65.o(i.SendATCondition) for SendATCondition
    gc65.o(i.HaveDataSend) refers to gc65.o(.data) for pGprsSnd
    gc65.o(i.HaveDataSend) refers to gc65.o(.bss) for GprsCtrlInfo
    gc65.o(i.InsertTo) refers to gc65.o(.bss) for GprsCtrlInfo
    gc65.o(i.RemoveBlackatoi) refers to comm.o(i.my_atoi) for my_atoi
    gc65.o(i.ReturnToInserStage) refers to gc65.o(.bss) for GprsCtrlInfo
    gc65.o(i.SendATCondition) refers to gc65.o(.bss) for GprsCtrlInfo
    gc65.o(i.SendATCondition) refers to gc65.o(.data) for InitStep
    gc65.o(i.SendGprsCondition) refers to gc65.o(.bss) for GprsCtrlInfo
    gc65.o(i.SendIPDATA) refers to gc65_bsp.o(i.GprsUartCmd) for GprsUartCmd
    gc65.o(i.SendIPDATA) refers to gc65.o(.bss) for GprsCtrlInfo
    gc65.o(i.TaskGC65) refers to _printf_percent.o(.ARM.Collect$$_printf_percent$$00000000) for _printf_percent
    gc65.o(i.TaskGC65) refers to _printf_s.o(.ARM.Collect$$_printf_percent$$00000014) for _printf_s
    gc65.o(i.TaskGC65) refers to _printf_str.o(.text) for _printf_str
    gc65.o(i.TaskGC65) refers to _printf_d.o(.ARM.Collect$$_printf_percent$$00000009) for _printf_d
    gc65.o(i.TaskGC65) refers to _printf_dec.o(.text) for _printf_int_dec
    gc65.o(i.TaskGC65) refers to gc65.o(i.GprsReAPN) for GprsReAPN
    gc65.o(i.TaskGC65) refers to gc65.o(i.GprsReConnect) for GprsReConnect
    gc65.o(i.TaskGC65) refers to gc65.o(i.GC65Timer) for GC65Timer
    gc65.o(i.TaskGC65) refers to gc65.o(i.HaveDataSend) for HaveDataSend
    gc65.o(i.TaskGC65) refers to app_multfun.o(i.RegTimerErrCode) for RegTimerErrCode
    gc65.o(i.TaskGC65) refers to app_debug.o(i.DebugMsg) for DebugMsg
    gc65.o(i.TaskGC65) refers to strcpy.o(.text) for strcpy
    gc65.o(i.TaskGC65) refers to gc65_bsp.o(i.GprsDMAReceiveDisable) for GprsDMAReceiveDisable
    gc65.o(i.TaskGC65) refers to stm32f10x_gpio.o(i.GPIO_SetBits) for GPIO_SetBits
    gc65.o(i.TaskGC65) refers to gc65.o(i.ATCmdSend) for ATCmdSend
    gc65.o(i.TaskGC65) refers to stm32f10x_gpio.o(i.GPIO_ResetBits) for GPIO_ResetBits
    gc65.o(i.TaskGC65) refers to gc65.o(i.ATCmdSetAPN) for ATCmdSetAPN
    gc65.o(i.TaskGC65) refers to gc65.o(.bss) for GprsCtrlInfo
    gc65.o(i.TaskGC65) refers to gc65.o(.data) for InitStep
    gc65.o(i.TaskGC65) refers to gc65.o(i.ReturnToInserStage) for ReturnToInserStage
    gc65.o(i.TaskGC65) refers to app_protocol.o(.data) for ParaUploadDelay
    gc65.o(i.TaskGC65) refers to comm.o(i.IsIp) for IsIp
    gc65.o(i.TaskGC65) refers to __2sprintf.o(.text) for __2sprintf
    gc65.o(i.TaskGC65) refers to gc65.o(i.ATCmdCnntSvr) for ATCmdCnntSvr
    gc65.o(i.TaskGC65) refers to gc65.o(i.SendIPDATA) for SendIPDATA
    gc65.o(i.TaskGC65) refers to app_para.o(.data) for GpSysPara
    gc65.o(i.TaskGC65) refers to rt_memclr.o(.text) for __aeabi_memclr
    gc65.o(i.gprsIsConnect) refers to gc65.o(.bss) for GprsCtrlInfo
    gc65.o(.data) refers to gc65.o(.bss) for _gprsDealBuf
    gc65_bsp.o(i.DMA1_Channel6_IRQHandler) refers to stm32f10x_dma.o(i.DMA_GetFlagStatus) for DMA_GetFlagStatus
    gc65_bsp.o(i.DMA1_Channel6_IRQHandler) refers to stm32f10x_gpio.o(i.GPIO_SetBits) for GPIO_SetBits
    gc65_bsp.o(i.DMA1_Channel6_IRQHandler) refers to stm32f10x_dma.o(i.DMA_Cmd) for DMA_Cmd
    gc65_bsp.o(i.DMA1_Channel6_IRQHandler) refers to stm32f10x_dma.o(i.DMA_ClearFlag) for DMA_ClearFlag
    gc65_bsp.o(i.DMA1_Channel6_IRQHandler) refers to gc65.o(.bss) for GprsCtrlInfo
    gc65_bsp.o(i.GPRSUartDMAInit) refers to stm32f10x_rcc.o(i.RCC_AHBPeriphClockCmd) for RCC_AHBPeriphClockCmd
    gc65_bsp.o(i.GPRSUartDMAInit) refers to stm32f10x_dma.o(i.DMA_DeInit) for DMA_DeInit
    gc65_bsp.o(i.GPRSUartDMAInit) refers to stm32f10x_dma.o(i.DMA_Init) for DMA_Init
    gc65_bsp.o(i.GPRSUartDMAInit) refers to stm32f10x_dma.o(i.DMA_Cmd) for DMA_Cmd
    gc65_bsp.o(i.GPRSUartDMAInit) refers to stm32f10x_dma.o(i.DMA_ClearFlag) for DMA_ClearFlag
    gc65_bsp.o(i.GPRSUartDMAInit) refers to stm32f10x_dma.o(i.DMA_ITConfig) for DMA_ITConfig
    gc65_bsp.o(i.GPRSUartDMAInit) refers to stm32f10x_usart.o(i.USART_DMACmd) for USART_DMACmd
    gc65_bsp.o(i.GPRSUartDMAInit) refers to misc.o(i.NVIC_Init) for NVIC_Init
    gc65_bsp.o(i.GetGprsUartDMABuf) refers to gc65_bsp.o(.bss) for DMAUart2Buf
    gc65_bsp.o(i.GprsDMAReceiveDisable) refers to stm32f10x_gpio.o(i.GPIO_ResetBits) for GPIO_ResetBits
    gc65_bsp.o(i.GprsDMAReceiveDisable) refers to stm32f10x_dma.o(i.DMA_Cmd) for DMA_Cmd
    gc65_bsp.o(i.GprsDMAReceiveDisable) refers to stm32f10x_usart.o(i.USART_ITConfig) for USART_ITConfig
    gc65_bsp.o(i.GprsDMAReceiveDisable) refers to stm32f10x_usart.o(i.USART_ClearITPendingBit) for USART_ClearITPendingBit
    gc65_bsp.o(i.GprsUART_SetDMAReceive) refers to stm32f10x_usart.o(i.USART_ITConfig) for USART_ITConfig
    gc65_bsp.o(i.GprsUART_SetDMAReceive) refers to stm32f10x_usart.o(i.USART_ClearITPendingBit) for USART_ClearITPendingBit
    gc65_bsp.o(i.GprsUART_SetDMAReceive) refers to stm32f10x_dma.o(i.DMA_Cmd) for DMA_Cmd
    gc65_bsp.o(i.GprsUART_SetDMAReceive) refers to stm32f10x_dma.o(i.DMA_ClearFlag) for DMA_ClearFlag
    gc65_bsp.o(i.GprsUartCmd) refers to uart.o(i.UartSendData) for UartSendData
    gc65_bsp.o(i.GprsUartDMAReceive) refers to gc65_bsp.o(i.GprsUART_SetDMAReceive) for GprsUART_SetDMAReceive
    gc65_bsp.o(i.GprsUartDMAReceive) refers to stm32f10x_gpio.o(i.GPIO_ResetBits) for GPIO_ResetBits
    gc65_bsp.o(i.GprsUartDMAReceive) refers to gc65_bsp.o(.bss) for DMAUart2Buf
    uart.o(i.UartIntSendData) refers to uart.o(i.UartSendData) for UartSendData
    uart.o(i.UartIntSendData) refers to stm32f10x_usart.o(i.USART_SendData) for USART_SendData
    uart.o(i.UartSendData) refers to stm32f10x_usart.o(i.USART_GetFlagStatus) for USART_GetFlagStatus
    uart.o(i.UartSendData) refers to stm32f10x_usart.o(i.USART_SendData) for USART_SendData
    uart.o(i.UartSendData) refers to bsp.o(i.FeedDog) for FeedDog
    uart.o(i.UartSendData) refers to rt_memcpy_v6.o(.text) for __aeabi_memcpy
    uart.o(i.UartSendData) refers to uart.o(.bss) for DMAUart2Buf
    pipe.o(i.pipeCreate) refers to h1_alloc.o(.text) for malloc
    pipe.o(i.pipeDataRead) refers to rt_memcpy_v6.o(.text) for __aeabi_memcpy
    pipe.o(i.pipeDataWrite) refers to rt_memcpy_v6.o(.text) for __aeabi_memcpy
    stm32f10x_flash.o(i.FLASH_EnableWriteProtection) refers to stm32f10x_flash.o(i.FLASH_WaitForLastOperation) for FLASH_WaitForLastOperation
    stm32f10x_flash.o(i.FLASH_EraseAllBank1Pages) refers to stm32f10x_flash.o(i.FLASH_WaitForLastBank1Operation) for FLASH_WaitForLastBank1Operation
    stm32f10x_flash.o(i.FLASH_EraseAllPages) refers to stm32f10x_flash.o(i.FLASH_WaitForLastOperation) for FLASH_WaitForLastOperation
    stm32f10x_flash.o(i.FLASH_EraseOptionBytes) refers to stm32f10x_flash.o(i.FLASH_GetReadOutProtectionStatus) for FLASH_GetReadOutProtectionStatus
    stm32f10x_flash.o(i.FLASH_EraseOptionBytes) refers to stm32f10x_flash.o(i.FLASH_WaitForLastOperation) for FLASH_WaitForLastOperation
    stm32f10x_flash.o(i.FLASH_ErasePage) refers to stm32f10x_flash.o(i.FLASH_WaitForLastOperation) for FLASH_WaitForLastOperation
    stm32f10x_flash.o(i.FLASH_ProgramHalfWord) refers to stm32f10x_flash.o(i.FLASH_WaitForLastOperation) for FLASH_WaitForLastOperation
    stm32f10x_flash.o(i.FLASH_ProgramOptionByteData) refers to stm32f10x_flash.o(i.FLASH_WaitForLastOperation) for FLASH_WaitForLastOperation
    stm32f10x_flash.o(i.FLASH_ProgramWord) refers to stm32f10x_flash.o(i.FLASH_WaitForLastOperation) for FLASH_WaitForLastOperation
    stm32f10x_flash.o(i.FLASH_ReadOutProtection) refers to stm32f10x_flash.o(i.FLASH_WaitForLastOperation) for FLASH_WaitForLastOperation
    stm32f10x_flash.o(i.FLASH_UserOptionByteConfig) refers to stm32f10x_flash.o(i.FLASH_WaitForLastOperation) for FLASH_WaitForLastOperation
    stm32f10x_flash.o(i.FLASH_WaitForLastBank1Operation) refers to stm32f10x_flash.o(i.FLASH_GetBank1Status) for FLASH_GetBank1Status
    stm32f10x_flash.o(i.FLASH_WaitForLastOperation) refers to stm32f10x_flash.o(i.FLASH_GetBank1Status) for FLASH_GetBank1Status
    stm32f10x_gpio.o(i.GPIO_AFIODeInit) refers to stm32f10x_rcc.o(i.RCC_APB2PeriphResetCmd) for RCC_APB2PeriphResetCmd
    stm32f10x_gpio.o(i.GPIO_DeInit) refers to stm32f10x_rcc.o(i.RCC_APB2PeriphResetCmd) for RCC_APB2PeriphResetCmd
    stm32f10x_rcc.o(i.RCC_GetClocksFreq) refers to stm32f10x_rcc.o(.data) for APBAHBPrescTable
    stm32f10x_rcc.o(i.RCC_WaitForHSEStartUp) refers to stm32f10x_rcc.o(i.RCC_GetFlagStatus) for RCC_GetFlagStatus
    stm32f10x_usart.o(i.USART_DeInit) refers to stm32f10x_rcc.o(i.RCC_APB2PeriphResetCmd) for RCC_APB2PeriphResetCmd
    stm32f10x_usart.o(i.USART_DeInit) refers to stm32f10x_rcc.o(i.RCC_APB1PeriphResetCmd) for RCC_APB1PeriphResetCmd
    stm32f10x_usart.o(i.USART_Init) refers to stm32f10x_rcc.o(i.RCC_GetClocksFreq) for RCC_GetClocksFreq
    stm32f10x_spi.o(i.I2S_Init) refers to stm32f10x_rcc.o(i.RCC_GetClocksFreq) for RCC_GetClocksFreq
    stm32f10x_spi.o(i.SPI_I2S_DeInit) refers to stm32f10x_rcc.o(i.RCC_APB2PeriphResetCmd) for RCC_APB2PeriphResetCmd
    stm32f10x_spi.o(i.SPI_I2S_DeInit) refers to stm32f10x_rcc.o(i.RCC_APB1PeriphResetCmd) for RCC_APB1PeriphResetCmd
    stm32f10x_can.o(i.CAN_DeInit) refers to stm32f10x_rcc.o(i.RCC_APB1PeriphResetCmd) for RCC_APB1PeriphResetCmd
    stm32f10x_can.o(i.CAN_GetITStatus) refers to stm32f10x_can.o(i.CheckITStatus) for CheckITStatus
    spiflashhal.o(i.FlashHalInit) refers to stm32f10x_rcc.o(i.RCC_APB2PeriphClockCmd) for RCC_APB2PeriphClockCmd
    spiflashhal.o(i.FlashHalInit) refers to stm32f10x_gpio.o(i.GPIO_PinRemapConfig) for GPIO_PinRemapConfig
    spiflashhal.o(i.FlashHalInit) refers to stm32f10x_gpio.o(i.GPIO_Init) for GPIO_Init
    spiflashhal.o(i.FlashHalInit) refers to spiflashhal.o(i.FlashSelect) for FlashSelect
    spiflashhal.o(i.FlashHalInit) refers to stm32f10x_spi.o(i.SPI_Init) for SPI_Init
    spiflashhal.o(i.FlashHalInit) refers to stm32f10x_spi.o(i.SPI_Cmd) for SPI_Cmd
    spiflashhal.o(i.FlashSPISend) refers to stm32f10x_spi.o(i.SPI_I2S_GetFlagStatus) for SPI_I2S_GetFlagStatus
    spiflashhal.o(i.FlashSPISend) refers to stm32f10x_spi.o(i.SPI_I2S_SendData) for SPI_I2S_SendData
    spiflashhal.o(i.FlashSPISend) refers to stm32f10x_spi.o(i.SPI_I2S_ReceiveData) for SPI_I2S_ReceiveData
    spiflashhal.o(i.FlashSelect) refers to stm32f10x_gpio.o(i.GPIO_ResetBits) for GPIO_ResetBits
    spiflashhal.o(i.FlashSelect) refers to stm32f10x_gpio.o(i.GPIO_SetBits) for GPIO_SetBits
    app_protocol.o(i.AckPacket) refers to rt_memclr.o(.text) for __aeabi_memclr
    app_protocol.o(i.AckPacket) refers to comm.o(i.WordToBuf) for WordToBuf
    app_protocol.o(i.AckPacket) refers to app_protocol.o(i.GB_GetAckMsgHead) for GB_GetAckMsgHead
    app_protocol.o(i.ClearHeartTimer) refers to app_rtc.o(i.SysTime_Fresh) for SysTime_Fresh
    app_protocol.o(i.ClearHeartTimer) refers to app_protocol.o(.data) for Heart_CycleMoment
    app_protocol.o(i.DevStatToSystem) refers to comm.o(i.StringToHex) for StringToHex
    app_protocol.o(i.DevStatToSystem) refers to gc65.o(i.GetMultLoc) for GetMultLoc
    app_protocol.o(i.DevStatToSystem) refers to stm32f10x_gpio.o(i.GPIO_SetBits) for GPIO_SetBits
    app_protocol.o(i.DevStatToSystem) refers to stm32f10x_gpio.o(i.GPIO_ResetBits) for GPIO_ResetBits
    app_protocol.o(i.DevStatToSystem) refers to app_protocol.o(.data) for ParaUploadDelay
    app_protocol.o(i.DevStatToSystem) refers to gc65.o(.bss) for GprsCtrlInfo
    app_protocol.o(i.DevStatToSystem) refers to app_para.o(.data) for GpSysStat
    app_protocol.o(i.DevStatToSystem) refers to app_debug.o(.bss) for DebugCheck
    app_protocol.o(i.GB_GeneralAck) refers to app_json.o(i.JSON_ObjectBegin) for JSON_ObjectBegin
    app_protocol.o(i.GB_GeneralAck) refers to app_protocol.o(i.JSON_RtcTimeGet) for JSON_RtcTimeGet
    app_protocol.o(i.GB_GeneralAck) refers to app_json.o(i.JSON_NumberValToObject) for JSON_NumberValToObject
    app_protocol.o(i.GB_GeneralAck) refers to app_json.o(i.JSON_ObjectEnd) for JSON_ObjectEnd
    app_protocol.o(i.GB_GeneralAck) refers to strlen.o(.text) for strlen
    app_protocol.o(i.GB_GeneralAck) refers to app_protocol.o(i.AckPacket) for AckPacket
    app_protocol.o(i.GB_GeneralAck) refers to gc65.o(i.GprsSndDataPost) for GprsSndDataPost
    app_protocol.o(i.GB_GeneralAck) refers to app_debug.o(i.DebugStrMsg) for DebugStrMsg
    app_protocol.o(i.GB_GeneralAck) refers to app_protocol.o(.bss) for ProAckBuf
    app_protocol.o(i.GB_GeneralAck) refers to app_para.o(.data) for GpSysPara
    app_protocol.o(i.GB_GeneralAck) refers to app_debug.o(.data) for AppDebug
    app_protocol.o(i.GB_GetAckMsgHead) refers to comm.o(i.DWordToBuf) for DWordToBuf
    app_protocol.o(i.GB_GetAckMsgHead) refers to app_para.o(.data) for GpSysPara
    app_protocol.o(i.GB_GetAckMsgHead) refers to app_protocol.o(.bss) for ProSndInf
    app_protocol.o(i.GB_GetMsgHead) refers to comm.o(i.DWordToBuf) for DWordToBuf
    app_protocol.o(i.GB_GetMsgHead) refers to app_para.o(.data) for GpSysPara
    app_protocol.o(i.GB_GetMsgHead) refers to app_protocol.o(.bss) for ProSndInf
    app_protocol.o(i.GPRSDataDeal) refers to app_debug.o(i.DebugMsg) for DebugMsg
    app_protocol.o(i.GPRSDataDeal) refers to app_debug.o(i.DebugStrMsg) for DebugStrMsg
    app_protocol.o(i.GPRSDataDeal) refers to comm.o(i.NetTwoByteToWord) for NetTwoByteToWord
    app_protocol.o(i.GPRSDataDeal) refers to strlen.o(.text) for strlen
    app_protocol.o(i.GPRSDataDeal) refers to memcmp.o(.text) for memcmp
    app_protocol.o(i.GPRSDataDeal) refers to comm.o(i.NetFourByteToDWord) for NetFourByteToDWord
    app_protocol.o(i.GPRSDataDeal) refers to app_protocol.o(i.ServerCmdDeal) for ServerCmdDeal
    app_protocol.o(i.GPRSDataDeal) refers to bsp.o(i.FeedDog) for FeedDog
    app_protocol.o(i.GPRSDataDeal) refers to app_debug.o(.data) for AppDebug
    app_protocol.o(i.GPRSDataDeal) refers to app_para.o(.data) for GpSysPara
    app_protocol.o(i.GetAckVaule) refers to app_protocol.o(.data) for Rsp
    app_protocol.o(i.GetEventInfo) refers to _printf_pad.o(.text) for _printf_pre_padding
    app_protocol.o(i.GetEventInfo) refers to _printf_percent.o(.ARM.Collect$$_printf_percent$$00000000) for _printf_percent
    app_protocol.o(i.GetEventInfo) refers to _printf_d.o(.ARM.Collect$$_printf_percent$$00000009) for _printf_d
    app_protocol.o(i.GetEventInfo) refers to _printf_dec.o(.text) for _printf_int_dec
    app_protocol.o(i.GetEventInfo) refers to _printf_f.o(.ARM.Collect$$_printf_percent$$00000003) for _printf_f
    app_protocol.o(i.GetEventInfo) refers to printf1.o(x$fpl$printf1) for _printf_fp_dec
    app_protocol.o(i.GetEventInfo) refers to app_json.o(i.JSON_ObjectBegin) for JSON_ObjectBegin
    app_protocol.o(i.GetEventInfo) refers to app_protocol.o(i.JSON_RtcTimeGet) for JSON_RtcTimeGet
    app_protocol.o(i.GetEventInfo) refers to app_json.o(i.JSON_NumberValToObject) for JSON_NumberValToObject
    app_protocol.o(i.GetEventInfo) refers to __2sprintf.o(.text) for __2sprintf
    app_protocol.o(i.GetEventInfo) refers to app_json.o(i.JSON_EventWithInfToObject) for JSON_EventWithInfToObject
    app_protocol.o(i.GetEventInfo) refers to app_json.o(i.JSON_EventNoInfToObject) for JSON_EventNoInfToObject
    app_protocol.o(i.GetEventInfo) refers to dflt_clz.o(x$fpl$dflt) for __aeabi_i2d
    app_protocol.o(i.GetEventInfo) refers to ddiv.o(x$fpl$ddiv) for __aeabi_ddiv
    app_protocol.o(i.GetEventInfo) refers to dflt_clz.o(x$fpl$dfltu) for __aeabi_ui2d
    app_protocol.o(i.GetEventInfo) refers to strlen.o(.text) for strlen
    app_protocol.o(i.GetEventInfo) refers to app_para.o(.data) for GpSysPara
    app_protocol.o(i.GetEventInfo) refers to app_protocol.o(.bss) for SysEvent
    app_protocol.o(i.GetEventInfo) refers to app_multfun.o(.data) for BeforeReg
    app_protocol.o(i.GetEventInfo) refers to app_protocol.o(.conststring) for .conststring
    app_protocol.o(i.GetEventInfo) refers to app_json.o(i.JSON_ObjectEnd) for JSON_ObjectEnd
    app_protocol.o(i.GetEventInfo) refers to app_alarmevent.o(.bss) for AlmFilterTimer
    app_protocol.o(i.GetEventInfo) refers to app_alarmevent.o(.data) for PreAlmFilterTimer
    app_protocol.o(i.GetHeartData) refers to _printf_percent.o(.ARM.Collect$$_printf_percent$$00000000) for _printf_percent
    app_protocol.o(i.GetHeartData) refers to _printf_d.o(.ARM.Collect$$_printf_percent$$00000009) for _printf_d
    app_protocol.o(i.GetHeartData) refers to _printf_dec.o(.text) for _printf_int_dec
    app_protocol.o(i.GetHeartData) refers to app_json.o(i.JSON_ObjectBegin) for JSON_ObjectBegin
    app_protocol.o(i.GetHeartData) refers to app_protocol.o(i.JSON_RtcTimeGet) for JSON_RtcTimeGet
    app_protocol.o(i.GetHeartData) refers to app_json.o(i.JSON_NumberValToObject) for JSON_NumberValToObject
    app_protocol.o(i.GetHeartData) refers to strlen.o(.text) for strlen
    app_protocol.o(i.GetHeartData) refers to __2sprintf.o(.text) for __2sprintf
    app_protocol.o(i.GetHeartData) refers to app_json.o(i.JSON_AddrNumberDataToObject) for JSON_AddrNumberDataToObject
    app_protocol.o(i.GetHeartData) refers to app_json.o(i.JSON_ObjectEnd) for JSON_ObjectEnd
    app_protocol.o(i.GetHeartData) refers to app_para.o(.data) for GpSysPara
    app_protocol.o(i.GetRegister) refers to app_json.o(i.JSON_ObjectBegin) for JSON_ObjectBegin
    app_protocol.o(i.GetRegister) refers to app_protocol.o(i.JSON_RtcTimeGet) for JSON_RtcTimeGet
    app_protocol.o(i.GetRegister) refers to app_json.o(i.JSON_NumberValToObject) for JSON_NumberValToObject
    app_protocol.o(i.GetRegister) refers to app_json.o(i.JSON_ObjectEnd) for JSON_ObjectEnd
    app_protocol.o(i.GetRegister) refers to strlen.o(.text) for strlen
    app_protocol.o(i.GetRegister) refers to app_para.o(.data) for GpSysPara
    app_protocol.o(i.GetRegister) refers to gc65.o(.bss) for GprsCtrlInfo
    app_protocol.o(i.GetStatusUpData) refers to _printf_percent.o(.ARM.Collect$$_printf_percent$$00000000) for _printf_percent
    app_protocol.o(i.GetStatusUpData) refers to _printf_d.o(.ARM.Collect$$_printf_percent$$00000009) for _printf_d
    app_protocol.o(i.GetStatusUpData) refers to _printf_dec.o(.text) for _printf_int_dec
    app_protocol.o(i.GetStatusUpData) refers to app_json.o(i.JSON_ObjectBegin) for JSON_ObjectBegin
    app_protocol.o(i.GetStatusUpData) refers to app_protocol.o(i.JSON_RtcTimeGet) for JSON_RtcTimeGet
    app_protocol.o(i.GetStatusUpData) refers to app_json.o(i.JSON_NumberValToObject) for JSON_NumberValToObject
    app_protocol.o(i.GetStatusUpData) refers to strlen.o(.text) for strlen
    app_protocol.o(i.GetStatusUpData) refers to __2sprintf.o(.text) for __2sprintf
    app_protocol.o(i.GetStatusUpData) refers to app_json.o(i.JSON_AddrNumberDataToObject) for JSON_AddrNumberDataToObject
    app_protocol.o(i.GetStatusUpData) refers to app_plt.o(i.GetPlt1SpecPara) for GetPlt1SpecPara
    app_protocol.o(i.GetStatusUpData) refers to app_plt.o(i.GetPlt2SpecPara) for GetPlt2SpecPara
    app_protocol.o(i.GetStatusUpData) refers to app_plt.o(i.GetPlt3SpecPara) for GetPlt3SpecPara
    app_protocol.o(i.GetStatusUpData) refers to app_json.o(i.JSON_ObjectEnd) for JSON_ObjectEnd
    app_protocol.o(i.GetStatusUpData) refers to app_para.o(.data) for GpSysPara
    app_protocol.o(i.GetStatusUpData) refers to app_protocol.o(.data) for ParaUpdate
    app_protocol.o(i.GetUpdateData) refers to strlen.o(.text) for strlen
    app_protocol.o(i.GetUpdateData) refers to rt_memcpy_v6.o(.text) for __aeabi_memcpy
    app_protocol.o(i.GetUpdateData) refers to comm.o(i.DWordToBuf) for DWordToBuf
    app_protocol.o(i.GetUpdateData) refers to comm.o(i.WordToBuf) for WordToBuf
    app_protocol.o(i.GetUpdateData) refers to app_protocol.o(.bss) for Update
    app_protocol.o(i.GetVfdOptInfo) refers to _printf_percent.o(.ARM.Collect$$_printf_percent$$00000000) for _printf_percent
    app_protocol.o(i.GetVfdOptInfo) refers to _printf_d.o(.ARM.Collect$$_printf_percent$$00000009) for _printf_d
    app_protocol.o(i.GetVfdOptInfo) refers to _printf_s.o(.ARM.Collect$$_printf_percent$$00000014) for _printf_s
    app_protocol.o(i.GetVfdOptInfo) refers to _printf_dec.o(.text) for _printf_int_dec
    app_protocol.o(i.GetVfdOptInfo) refers to _printf_str.o(.text) for _printf_str
    app_protocol.o(i.GetVfdOptInfo) refers to app_json.o(i.JSON_ObjectBegin) for JSON_ObjectBegin
    app_protocol.o(i.GetVfdOptInfo) refers to app_protocol.o(i.JSON_RtcTimeGet) for JSON_RtcTimeGet
    app_protocol.o(i.GetVfdOptInfo) refers to app_json.o(i.JSON_NumberValToObject) for JSON_NumberValToObject
    app_protocol.o(i.GetVfdOptInfo) refers to strlen.o(.text) for strlen
    app_protocol.o(i.GetVfdOptInfo) refers to __2sprintf.o(.text) for __2sprintf
    app_protocol.o(i.GetVfdOptInfo) refers to app_json.o(i.JSON_ObjectEnd) for JSON_ObjectEnd
    app_protocol.o(i.GetVfdOptInfo) refers to app_para.o(.data) for GpSysPara
    app_protocol.o(i.GetVfdOptInfo) refers to app_vfd.o(.data) for SvrVfdOpt
    app_protocol.o(i.IsReg) refers to app_protocol.o(.bss) for ProSndInf
    app_protocol.o(i.JSON_RtcTimeGet) refers to rt_memclr_w.o(.text) for __aeabi_memclr4
    app_protocol.o(i.JSON_RtcTimeGet) refers to app_rtc.o(i.GetRtctime) for GetRtctime
    app_protocol.o(i.JSON_RtcTimeGet) refers to app_json.o(i.JSON_StringValToObject) for JSON_StringValToObject
    app_protocol.o(i.ObjRespondToServer) refers to _printf_percent.o(.ARM.Collect$$_printf_percent$$00000000) for _printf_percent
    app_protocol.o(i.ObjRespondToServer) refers to _printf_d.o(.ARM.Collect$$_printf_percent$$00000009) for _printf_d
    app_protocol.o(i.ObjRespondToServer) refers to _printf_s.o(.ARM.Collect$$_printf_percent$$00000014) for _printf_s
    app_protocol.o(i.ObjRespondToServer) refers to _printf_dec.o(.text) for _printf_int_dec
    app_protocol.o(i.ObjRespondToServer) refers to _printf_str.o(.text) for _printf_str
    app_protocol.o(i.ObjRespondToServer) refers to app_json.o(i.JSON_ObjectBegin) for JSON_ObjectBegin
    app_protocol.o(i.ObjRespondToServer) refers to app_protocol.o(i.JSON_RtcTimeGet) for JSON_RtcTimeGet
    app_protocol.o(i.ObjRespondToServer) refers to app_json.o(i.JSON_NumberValToObject) for JSON_NumberValToObject
    app_protocol.o(i.ObjRespondToServer) refers to strlen.o(.text) for strlen
    app_protocol.o(i.ObjRespondToServer) refers to __2sprintf.o(.text) for __2sprintf
    app_protocol.o(i.ObjRespondToServer) refers to app_json.o(i.JSON_ObjectEnd) for JSON_ObjectEnd
    app_protocol.o(i.ObjRespondToServer) refers to app_protocol.o(i.AckPacket) for AckPacket
    app_protocol.o(i.ObjRespondToServer) refers to gc65.o(i.GprsSndDataPost) for GprsSndDataPost
    app_protocol.o(i.ObjRespondToServer) refers to app_debug.o(i.DebugStrMsg) for DebugStrMsg
    app_protocol.o(i.ObjRespondToServer) refers to app_protocol.o(.bss) for ProAckBuf
    app_protocol.o(i.ObjRespondToServer) refers to app_para.o(.data) for GpSysPara
    app_protocol.o(i.ObjRespondToServer) refers to app_debug.o(.data) for AppDebug
    app_protocol.o(i.OnlykeyVarRead) refers to app_json.o(i.JSON_AddrNumberDataToObject) for JSON_AddrNumberDataToObject
    app_protocol.o(i.OnlykeyVarRead) refers to app_para.o(.data) for GpOthInfo
    app_protocol.o(i.Packet) refers to rt_memclr.o(.text) for __aeabi_memclr
    app_protocol.o(i.Packet) refers to comm.o(i.WordToBuf) for WordToBuf
    app_protocol.o(i.Packet) refers to app_protocol.o(i.GB_GetMsgHead) for GB_GetMsgHead
    app_protocol.o(i.ProDataSend) refers to app_protocol.o(i.isGprsCon) for isGprsCon
    app_protocol.o(i.ProDataSend) refers to app_protocol.o(i.Packet) for Packet
    app_protocol.o(i.ProDataSend) refers to app_debug.o(i.DebugMsg) for DebugMsg
    app_protocol.o(i.ProDataSend) refers to gc65.o(i.GprsSndDataPost) for GprsSndDataPost
    app_protocol.o(i.ProDataSend) refers to app_debug.o(i.DebugStrMsg) for DebugStrMsg
    app_protocol.o(i.ProDataSend) refers to app_protocol.o(i.GetRsp) for GetRsp
    app_protocol.o(i.ProDataSend) refers to app_protocol.o(i.WaitRsp) for WaitRsp
    app_protocol.o(i.ProDataSend) refers to app_protocol.o(i.GetAckVaule) for GetAckVaule
    app_protocol.o(i.ProDataSend) refers to app_protocol.o(.data) for RetryCnt
    app_protocol.o(i.ProDataSend) refers to app_debug.o(.data) for AppDebug
    app_protocol.o(i.ProSendInit) refers to app_protocol.o(.bss) for ProSndInf
    app_protocol.o(i.ProSendInit) refers to app_protocol.o(.data) for GbUpLoadAllPara
    app_protocol.o(i.RebootDelay) refers to app_protocol.o(.data) for RebootTime
    app_protocol.o(i.ServerCmdDeal) refers to app_debug.o(i.DebugMsg) for DebugMsg
    app_protocol.o(i.ServerCmdDeal) refers to app_protocol.o(i.ServerCmd_Head_Deal) for ServerCmd_Head_Deal
    app_protocol.o(i.ServerCmdDeal) refers to app_json.o(i.JSON_AddrListExtract) for JSON_AddrListExtract
    app_protocol.o(i.ServerCmdDeal) refers to app_json.o(i.JSON_Extract) for JSON_Extract
    app_protocol.o(i.ServerCmdDeal) refers to strncmp.o(.text) for strncmp
    app_protocol.o(i.ServerCmdDeal) refers to comm.o(i.my_atoi) for my_atoi
    app_protocol.o(i.ServerCmdDeal) refers to app_protocol.o(i.ServerDataGetRespond) for ServerDataGetRespond
    app_protocol.o(i.ServerCmdDeal) refers to app_protocol.o(i.ServerParaSet) for ServerParaSet
    app_protocol.o(i.ServerCmdDeal) refers to app_protocol.o(i.SetParaSaveFlag) for SetParaSaveFlag
    app_protocol.o(i.ServerCmdDeal) refers to app_para.o(i.SysParaStorage) for SysParaStorage
    app_protocol.o(i.ServerCmdDeal) refers to app_json.o(i.JSON_ArrayExtract) for JSON_ArrayExtract
    app_protocol.o(i.ServerCmdDeal) refers to comm.o(i.DevFourByteToU16) for DevFourByteToU16
    app_protocol.o(i.ServerCmdDeal) refers to app_protocol.o(i.RebootDelay) for RebootDelay
    app_protocol.o(i.ServerCmdDeal) refers to gc65.o(i.DelayReConnect) for DelayReConnect
    app_protocol.o(i.ServerCmdDeal) refers to app_protocol.o(i.GB_GeneralAck) for GB_GeneralAck
    app_protocol.o(i.ServerCmdDeal) refers to app_json.o(i.JSON_ExtractObjNode) for JSON_ExtractObjNode
    app_protocol.o(i.ServerCmdDeal) refers to app_protocol.o(i.SetBindStatus) for SetBindStatus
    app_protocol.o(i.ServerCmdDeal) refers to app_json.o(.bss) for JsonArrayBuf
    app_protocol.o(i.ServerCmdDeal) refers to app_protocol.o(.data) for Rsp
    app_protocol.o(i.ServerCmdDeal) refers to app_protocol.o(.bss) for ProSndInf
    app_protocol.o(i.ServerCmdDeal) refers to app_vfd.o(.data) for SvrVfdOpt
    app_protocol.o(i.ServerCmdDeal) refers to app_para.o(.data) for GpSysPara
    app_protocol.o(i.ServerCmdDeal) refers to app_protocol.o(i.ObjRespondToServer) for ObjRespondToServer
    app_protocol.o(i.ServerCmdDeal) refers to atoi.o(.text) for atoi
    app_protocol.o(i.ServerCmdDeal) refers to app_upgrade.o(i.UpgradeVersionInit) for UpgradeVersionInit
    app_protocol.o(i.ServerCmdDeal) refers to app_upgrade.o(i.UpgradeSizeInit) for UpgradeSizeInit
    app_protocol.o(i.ServerCmdDeal) refers to app_upgrade.o(i.UpgradeServerInit) for UpgradeServerInit
    app_protocol.o(i.ServerCmdDeal) refers to app_upgrade.o(i.UpgradeUsrInit) for UpgradeUsrInit
    app_protocol.o(i.ServerCmdDeal) refers to app_upgrade.o(i.FTPConnectRequestSet) for FTPConnectRequestSet
    app_protocol.o(i.ServerCmd_Head_Deal) refers to app_json.o(i.JSON_IsObjectBegin) for JSON_IsObjectBegin
    app_protocol.o(i.ServerCmd_Head_Deal) refers to app_json.o(i.JSON_Extract) for JSON_Extract
    app_protocol.o(i.ServerCmd_Head_Deal) refers to strncmp.o(.text) for strncmp
    app_protocol.o(i.ServerCmd_Head_Deal) refers to app_rtc.o(i.ServerTimeSet) for ServerTimeSet
    app_protocol.o(i.ServerCmd_Head_Deal) refers to comm.o(i.my_atoi) for my_atoi
    app_protocol.o(i.ServerCmd_Head_Deal) refers to gc65.o(i.DelayReConnect) for DelayReConnect
    app_protocol.o(i.ServerCmd_Head_Deal) refers to app_json.o(.bss) for JsonNode
    app_protocol.o(i.ServerCmd_Head_Deal) refers to app_rtc.o(.data) for SysTime
    app_protocol.o(i.ServerCmd_Head_Deal) refers to app_para.o(.data) for GpSysPara
    app_protocol.o(i.ServerCmd_Head_Deal) refers to app_para.o(.bss) for ParaFat
    app_protocol.o(i.ServerDataGetRespond) refers to _printf_percent.o(.ARM.Collect$$_printf_percent$$00000000) for _printf_percent
    app_protocol.o(i.ServerDataGetRespond) refers to _printf_d.o(.ARM.Collect$$_printf_percent$$00000009) for _printf_d
    app_protocol.o(i.ServerDataGetRespond) refers to _printf_dec.o(.text) for _printf_int_dec
    app_protocol.o(i.ServerDataGetRespond) refers to app_json.o(i.JSON_ObjectBegin) for JSON_ObjectBegin
    app_protocol.o(i.ServerDataGetRespond) refers to app_protocol.o(i.JSON_RtcTimeGet) for JSON_RtcTimeGet
    app_protocol.o(i.ServerDataGetRespond) refers to app_json.o(i.JSON_NumberValToObject) for JSON_NumberValToObject
    app_protocol.o(i.ServerDataGetRespond) refers to app_protocol.o(i.OnlykeyVarRead) for OnlykeyVarRead
    app_protocol.o(i.ServerDataGetRespond) refers to app_para.o(i.SysVarRead) for SysVarRead
    app_protocol.o(i.ServerDataGetRespond) refers to app_json.o(i.JSON_AddrStringDataToObject) for JSON_AddrStringDataToObject
    app_protocol.o(i.ServerDataGetRespond) refers to comm.o(i.DevTwoByteToWord) for DevTwoByteToWord
    app_protocol.o(i.ServerDataGetRespond) refers to comm.o(i.DevFourByteToDWord) for DevFourByteToDWord
    app_protocol.o(i.ServerDataGetRespond) refers to app_json.o(i.JSON_MeterDataToObject) for JSON_MeterDataToObject
    app_protocol.o(i.ServerDataGetRespond) refers to comm.o(i.BufExchange) for BufExchange
    app_protocol.o(i.ServerDataGetRespond) refers to app_json.o(i.JSON_FlowDataToObject) for JSON_FlowDataToObject
    app_protocol.o(i.ServerDataGetRespond) refers to strlen.o(.text) for strlen
    app_protocol.o(i.ServerDataGetRespond) refers to __2sprintf.o(.text) for __2sprintf
    app_protocol.o(i.ServerDataGetRespond) refers to app_json.o(i.JSON_AddrAndDataToObject) for JSON_AddrAndDataToObject
    app_protocol.o(i.ServerDataGetRespond) refers to app_json.o(i.JSON_ObjectEnd) for JSON_ObjectEnd
    app_protocol.o(i.ServerDataGetRespond) refers to app_protocol.o(i.AckPacket) for AckPacket
    app_protocol.o(i.ServerDataGetRespond) refers to gc65.o(i.GprsSndDataPost) for GprsSndDataPost
    app_protocol.o(i.ServerDataGetRespond) refers to app_debug.o(i.DebugStrMsg) for DebugStrMsg
    app_protocol.o(i.ServerDataGetRespond) refers to app_protocol.o(.bss) for ProAckBuf
    app_protocol.o(i.ServerDataGetRespond) refers to app_para.o(.data) for GpSysPara
    app_protocol.o(i.ServerDataGetRespond) refers to app_debug.o(.data) for AppDebug
    app_protocol.o(i.ServerParaSet) refers to comm.o(i.IsNumber) for IsNumber
    app_protocol.o(i.ServerParaSet) refers to comm.o(i.my_atoi) for my_atoi
    app_protocol.o(i.ServerParaSet) refers to comm.o(i.stricmp) for stricmp
    app_protocol.o(i.ServerParaSet) refers to app_protocol.o(i.isGprsCon) for isGprsCon
    app_protocol.o(i.ServerParaSet) refers to gc65.o(i.DelayReConnect) for DelayReConnect
    app_protocol.o(i.ServerParaSet) refers to strncmp.o(.text) for strncmp
    app_protocol.o(i.ServerParaSet) refers to app_plt.o(i.PltSysVarWriter) for PltSysVarWriter
    app_protocol.o(i.ServerParaSet) refers to app_vfd.o(i.Vfd_Meter_Write_Data) for Vfd_Meter_Write_Data
    app_protocol.o(i.ServerParaSet) refers to app_para.o(i.FieldValOffset) for FieldValOffset
    app_protocol.o(i.ServerParaSet) refers to strlen.o(.text) for strlen
    app_protocol.o(i.ServerParaSet) refers to rt_memcpy_v6.o(.text) for __aeabi_memcpy
    app_protocol.o(i.ServerParaSet) refers to app_para.o(.data) for GpSysPara
    app_protocol.o(i.ServerParaSet) refers to app_protocol.o(.data) for GbUpLoadAllPara
    app_protocol.o(i.SetBindStatus) refers to app_vfd.o(i.SetMeterReadIndex) for SetMeterReadIndex
    app_protocol.o(i.SetBindStatus) refers to app_para.o(.data) for GpSysPara
    app_protocol.o(i.SetBindStatus) refers to app_para.o(.bss) for ParaFat
    app_protocol.o(i.SetParaSaveFlag) refers to app_para.o(.bss) for ParaFat
    app_protocol.o(i.Task_ProDeal) refers to pipe.o(i.pipeDataRead) for pipeDataRead
    app_protocol.o(i.Task_ProDeal) refers to strlen.o(.text) for strlen
    app_protocol.o(i.Task_ProDeal) refers to gc65.o(i.ATCmdParse) for ATCmdParse
    app_protocol.o(i.Task_ProDeal) refers to app_led.o(i.LedOnSet) for LedOnSet
    app_protocol.o(i.Task_ProDeal) refers to app_protocol.o(i.GPRSDataDeal) for GPRSDataDeal
    app_protocol.o(i.Task_ProDeal) refers to app_dtucfg.o(.bss) for dtuTmpBuf
    app_protocol.o(i.Task_ProDeal) refers to gc65.o(.data) for pATResp
    app_protocol.o(i.Task_ProSend) refers to gc65.o(i.gprsIsConnect) for gprsIsConnect
    app_protocol.o(i.Task_ProSend) refers to app_rtc.o(i.SysTime_Delay) for SysTime_Delay
    app_protocol.o(i.Task_ProSend) refers to app_rtc.o(i.SysTime_Fresh) for SysTime_Fresh
    app_protocol.o(i.Task_ProSend) refers to app_upgrade.o(i.ModelIsFtping) for ModelIsFtping
    app_protocol.o(i.Task_ProSend) refers to app_protocol.o(i.isGprsCon) for isGprsCon
    app_protocol.o(i.Task_ProSend) refers to app_protocol.o(i.GetRegister) for GetRegister
    app_protocol.o(i.Task_ProSend) refers to app_debug.o(i.DebugMsg) for DebugMsg
    app_protocol.o(i.Task_ProSend) refers to app_plt.o(i.GetPltAllPara) for GetPltAllPara
    app_protocol.o(i.Task_ProSend) refers to app_protocol.o(i.GetHeartData) for GetHeartData
    app_protocol.o(i.Task_ProSend) refers to app_protocol.o(i.GetVfdOptInfo) for GetVfdOptInfo
    app_protocol.o(i.Task_ProSend) refers to app_protocol.o(i.GetEventInfo) for GetEventInfo
    app_protocol.o(i.Task_ProSend) refers to app_protocol.o(i.GetUpdateData) for GetUpdateData
    app_protocol.o(i.Task_ProSend) refers to app_protocol.o(i.GetStatusUpData) for GetStatusUpData
    app_protocol.o(i.Task_ProSend) refers to app_protocol.o(.bss) for SendBuf
    app_protocol.o(i.Task_ProSend) refers to app_protocol.o(.data) for RegDelay
    app_protocol.o(i.Task_ProSend) refers to app_para.o(.data) for GpSysPara
    app_protocol.o(i.Task_ProSend) refers to app_protocol.o(.constdata) for CutLineEnd
    app_protocol.o(i.Task_ProSend) refers to app_vfd.o(.data) for SvrVfdOpt
    app_protocol.o(i.Task_ProSend) refers to app_protocol.o(i.ProDataSend) for ProDataSend
    app_protocol.o(i.Task_ProSend) refers to app_multfun.o(i.RegTimerStop) for RegTimerStop
    app_protocol.o(i.Task_ProSend) refers to gc65.o(i.GprsReConnect) for GprsReConnect
    app_protocol.o(i.Task_ProSend) refers to gc65.o(i.GprsSndDataFlush) for GprsSndDataFlush
    app_protocol.o(i.WaitRsp) refers to app_protocol.o(.data) for Rsp
    app_protocol.o(i.isGprsCon) refers to gc65.o(.bss) for GprsCtrlInfo
    startup_stm32f10x_hd.o(STACK) refers (Special) to heapauxi.o(.text) for __use_two_region_memory
    startup_stm32f10x_hd.o(HEAP) refers (Special) to heapauxi.o(.text) for __use_two_region_memory
    startup_stm32f10x_hd.o(RESET) refers (Special) to heapauxi.o(.text) for __use_two_region_memory
    startup_stm32f10x_hd.o(RESET) refers to startup_stm32f10x_hd.o(STACK) for __initial_sp
    startup_stm32f10x_hd.o(RESET) refers to startup_stm32f10x_hd.o(.text) for Reset_Handler
    startup_stm32f10x_hd.o(RESET) refers to stm32f10x_it.o(i.NMI_Handler) for NMI_Handler
    startup_stm32f10x_hd.o(RESET) refers to stm32f10x_it.o(i.HardFault_Handler) for HardFault_Handler
    startup_stm32f10x_hd.o(RESET) refers to stm32f10x_it.o(i.MemManage_Handler) for MemManage_Handler
    startup_stm32f10x_hd.o(RESET) refers to stm32f10x_it.o(i.BusFault_Handler) for BusFault_Handler
    startup_stm32f10x_hd.o(RESET) refers to stm32f10x_it.o(i.UsageFault_Handler) for UsageFault_Handler
    startup_stm32f10x_hd.o(RESET) refers to stm32f10x_it.o(i.SVC_Handler) for SVC_Handler
    startup_stm32f10x_hd.o(RESET) refers to stm32f10x_it.o(i.DebugMon_Handler) for DebugMon_Handler
    startup_stm32f10x_hd.o(RESET) refers to stm32f10x_it.o(i.SysTick_Handler) for SysTick_Handler
    startup_stm32f10x_hd.o(RESET) refers to gc65_bsp.o(i.DMA1_Channel6_IRQHandler) for DMA1_Channel6_IRQHandler
    startup_stm32f10x_hd.o(RESET) refers to stm32f10x_it.o(i.DMA1_Channel7_IRQHandler) for DMA1_Channel7_IRQHandler
    startup_stm32f10x_hd.o(RESET) refers to stm32f10x_it.o(i.USB_LP_CAN1_RX0_IRQHandler) for USB_LP_CAN1_RX0_IRQHandler
    startup_stm32f10x_hd.o(RESET) refers to stm32f10x_it.o(i.USART1_IRQHandler) for USART1_IRQHandler
    startup_stm32f10x_hd.o(RESET) refers to stm32f10x_it.o(i.USART2_IRQHandler) for USART2_IRQHandler
    startup_stm32f10x_hd.o(RESET) refers to stm32f10x_it.o(i.USART3_IRQHandler) for USART3_IRQHandler
    startup_stm32f10x_hd.o(RESET) refers to stm32f10x_it.o(i.UART4_IRQHandler) for UART4_IRQHandler
    startup_stm32f10x_hd.o(.text) refers (Special) to heapauxi.o(.text) for __use_two_region_memory
    startup_stm32f10x_hd.o(.text) refers to system_stm32f10x.o(i.SystemInit) for SystemInit
    startup_stm32f10x_hd.o(.text) refers to __main.o(!!!main) for __main
    startup_stm32f10x_hd.o(.text) refers to startup_stm32f10x_hd.o(HEAP) for Heap_Mem
    startup_stm32f10x_hd.o(.text) refers to startup_stm32f10x_hd.o(STACK) for Stack_Mem
    system_stm32f10x.o(i.SetSysClock) refers to system_stm32f10x.o(i.SetSysClockTo72) for SetSysClockTo72
    system_stm32f10x.o(i.SystemCoreClockUpdate) refers to system_stm32f10x.o(.data) for SystemCoreClock
    system_stm32f10x.o(i.SystemInit) refers to system_stm32f10x.o(i.SetSysClock) for SetSysClock
    spiflash.o(i.FlashModelRead) refers to spiflashusr.o(i.FlashLockPend) for FlashLockPend
    spiflash.o(i.FlashModelRead) refers to spiflashdev.o(i.FlashReadID) for FlashReadID
    spiflash.o(i.FlashModelRead) refers to spiflashusr.o(i.FlashLockPost) for FlashLockPost
    spiflash.o(i.FlashModelRead) refers to spiflashdev.o(.data) for FlashModle
    spiflash.o(i.SPIFlashChipErase) refers to spiflashusr.o(i.FlashLockPend) for FlashLockPend
    spiflash.o(i.SPIFlashChipErase) refers to spiflashdev.o(i.SST25V_ChipErase) for SST25V_ChipErase
    spiflash.o(i.SPIFlashChipErase) refers to spiflashusr.o(i.FlashLockPost) for FlashLockPost
    spiflash.o(i.SPIFlashErase4K) refers to spiflashusr.o(i.FlashLockPend) for FlashLockPend
    spiflash.o(i.SPIFlashErase4K) refers to spiflashdev.o(i.FlashSectorErase_4KByte) for FlashSectorErase_4KByte
    spiflash.o(i.SPIFlashErase4K) refers to spiflashusr.o(i.FlashLockPost) for FlashLockPost
    spiflash.o(i.SPIFlashErase64K) refers to spiflashusr.o(i.FlashLockPend) for FlashLockPend
    spiflash.o(i.SPIFlashErase64K) refers to spiflashdev.o(i.FlashBlockErase_64KByte) for FlashBlockErase_64KByte
    spiflash.o(i.SPIFlashErase64K) refers to spiflashusr.o(i.FlashLockPost) for FlashLockPost
    spiflash.o(i.SPIFlashInit) refers to spiflashusr.o(i.FlashLockCreate) for FlashLockCreate
    spiflash.o(i.SPIFlashInit) refers to spiflashhal.o(i.FlashHalInit) for FlashHalInit
    spiflash.o(i.SPIFlashInit) refers to spiflashdev.o(i.SST25V_EnableWriteStatusRegister) for SST25V_EnableWriteStatusRegister
    spiflash.o(i.SPIFlashInit) refers to spiflashdev.o(i.SST25V_WriteStatusRegister) for SST25V_WriteStatusRegister
    spiflash.o(i.SPIFlashInit) refers to spiflashdev.o(i.SST25V_DBSY) for SST25V_DBSY
    spiflash.o(i.SPIFlashInit) refers to spiflash.o(i.FlashModelRead) for FlashModelRead
    spiflash.o(i.SPIFlashRead) refers to spiflashusr.o(i.FlashLockPend) for FlashLockPend
    spiflash.o(i.SPIFlashRead) refers to spiflashdev.o(i.FlashBufferRead) for FlashBufferRead
    spiflash.o(i.SPIFlashRead) refers to spiflashusr.o(i.FlashLockPost) for FlashLockPost
    spiflash.o(i.SPIFlashWrite) refers to spiflashusr.o(i.FlashLockPend) for FlashLockPend
    spiflash.o(i.SPIFlashWrite) refers to spiflashdev.o(i.FlashBufferWrite) for FlashBufferWrite
    spiflash.o(i.SPIFlashWrite) refers to spiflashusr.o(i.FlashLockPost) for FlashLockPost
    crc32.o(i.CRC32Calc) refers to crc32.o(.data) for .data
    crc32.o(i.CRC32Calc) refers to crc32.o(.constdata) for .constdata
    crc32.o(i.CRC32CalcReset) refers to crc32.o(.data) for .data
    spiflashdev.o(i.FlashBlockErase_64KByte) refers to spiflashdev.o(i.FlashWriteEnable) for FlashWriteEnable
    spiflashdev.o(i.FlashBlockErase_64KByte) refers to spiflashhal.o(i.FlashSelect) for FlashSelect
    spiflashdev.o(i.FlashBlockErase_64KByte) refers to spiflashhal.o(i.FlashSPISend) for FlashSPISend
    spiflashdev.o(i.FlashBlockErase_64KByte) refers to spiflashdev.o(i.FlashWaitForWriteEnd) for FlashWaitForWriteEnd
    spiflashdev.o(i.FlashBlockErase_64KByte) refers to spiflashdev.o(i.FlashWriteDisable) for FlashWriteDisable
    spiflashdev.o(i.FlashBufferRead) refers to spiflashhal.o(i.FlashSelect) for FlashSelect
    spiflashdev.o(i.FlashBufferRead) refers to spiflashhal.o(i.FlashSPISend) for FlashSPISend
    spiflashdev.o(i.FlashBufferWrite) refers to spiflashdev.o(i.FlashWriteEnable) for FlashWriteEnable
    spiflashdev.o(i.FlashBufferWrite) refers to spiflashhal.o(i.FlashSelect) for FlashSelect
    spiflashdev.o(i.FlashBufferWrite) refers to spiflashhal.o(i.FlashSPISend) for FlashSPISend
    spiflashdev.o(i.FlashBufferWrite) refers to spiflashdev.o(i.FlashWait_Busy_AAI) for FlashWait_Busy_AAI
    spiflashdev.o(i.FlashBufferWrite) refers to spiflashdev.o(i.FlashWaitForWriteEnd) for FlashWaitForWriteEnd
    spiflashdev.o(i.FlashBufferWrite) refers to spiflashdev.o(i.FlashWriteDisable) for FlashWriteDisable
    spiflashdev.o(i.FlashBufferWrite) refers to spiflashdev.o(.data) for .data
    spiflashdev.o(i.FlashReadID) refers to spiflashhal.o(i.FlashSelect) for FlashSelect
    spiflashdev.o(i.FlashReadID) refers to spiflashhal.o(i.FlashSPISend) for FlashSPISend
    spiflashdev.o(i.FlashReadStatusRegister) refers to spiflashhal.o(i.FlashSelect) for FlashSelect
    spiflashdev.o(i.FlashReadStatusRegister) refers to spiflashhal.o(i.FlashSPISend) for FlashSPISend
    spiflashdev.o(i.FlashSectorErase_4KByte) refers to spiflashdev.o(i.FlashWriteEnable) for FlashWriteEnable
    spiflashdev.o(i.FlashSectorErase_4KByte) refers to spiflashhal.o(i.FlashSelect) for FlashSelect
    spiflashdev.o(i.FlashSectorErase_4KByte) refers to spiflashhal.o(i.FlashSPISend) for FlashSPISend
    spiflashdev.o(i.FlashSectorErase_4KByte) refers to spiflashdev.o(i.FlashWaitForWriteEnd) for FlashWaitForWriteEnd
    spiflashdev.o(i.FlashSectorErase_4KByte) refers to spiflashdev.o(i.FlashWriteDisable) for FlashWriteDisable
    spiflashdev.o(i.FlashWaitForWriteEnd) refers to spiflashhal.o(i.FlashSelect) for FlashSelect
    spiflashdev.o(i.FlashWaitForWriteEnd) refers to spiflashhal.o(i.FlashSPISend) for FlashSPISend
    spiflashdev.o(i.FlashWait_Busy_AAI) refers to spiflashdev.o(i.FlashReadStatusRegister) for FlashReadStatusRegister
    spiflashdev.o(i.FlashWriteDisable) refers to spiflashhal.o(i.FlashSelect) for FlashSelect
    spiflashdev.o(i.FlashWriteDisable) refers to spiflashhal.o(i.FlashSPISend) for FlashSPISend
    spiflashdev.o(i.FlashWriteEnable) refers to spiflashhal.o(i.FlashSelect) for FlashSelect
    spiflashdev.o(i.FlashWriteEnable) refers to spiflashhal.o(i.FlashSPISend) for FlashSPISend
    spiflashdev.o(i.SST25V_ChipErase) refers to spiflashdev.o(i.FlashWriteEnable) for FlashWriteEnable
    spiflashdev.o(i.SST25V_ChipErase) refers to spiflashhal.o(i.FlashSelect) for FlashSelect
    spiflashdev.o(i.SST25V_ChipErase) refers to spiflashhal.o(i.FlashSPISend) for FlashSPISend
    spiflashdev.o(i.SST25V_ChipErase) refers to spiflashdev.o(i.FlashWaitForWriteEnd) for FlashWaitForWriteEnd
    spiflashdev.o(i.SST25V_ChipErase) refers to spiflashdev.o(i.FlashWriteDisable) for FlashWriteDisable
    spiflashdev.o(i.SST25V_DBSY) refers to spiflashhal.o(i.FlashSelect) for FlashSelect
    spiflashdev.o(i.SST25V_DBSY) refers to spiflashhal.o(i.FlashSPISend) for FlashSPISend
    spiflashdev.o(i.SST25V_EnableWriteStatusRegister) refers to spiflashhal.o(i.FlashSelect) for FlashSelect
    spiflashdev.o(i.SST25V_EnableWriteStatusRegister) refers to spiflashhal.o(i.FlashSPISend) for FlashSPISend
    spiflashdev.o(i.SST25V_WriteStatusRegister) refers to spiflashdev.o(i.SST25V_EnableWriteStatusRegister) for SST25V_EnableWriteStatusRegister
    spiflashdev.o(i.SST25V_WriteStatusRegister) refers to spiflashhal.o(i.FlashSelect) for FlashSelect
    spiflashdev.o(i.SST25V_WriteStatusRegister) refers to spiflashhal.o(i.FlashSPISend) for FlashSPISend
    malloc.o(.text) refers (Special) to hguard.o(.text) for __heap$guard
    malloc.o(.text) refers (Special) to init_alloc.o(.text) for _init_alloc
    malloc.o(.text) refers to rt_heap_descriptor_intlibspace.o(.text) for __rt_heap_descriptor
    malloc.o(.text) refers to heapstubs.o(.text) for __Heap_Alloc
    h1_alloc.o(.text) refers (Special) to h1_init.o(.text) for __Heap_Initialize
    h1_alloc.o(.text) refers to rt_heap_descriptor_intlibspace.o(.text) for __rt_heap_descriptor
    h1_alloc.o(.text) refers to init_alloc.o(.text) for __Heap_Full
    h1_alloc_mt.o(.text) refers (Special) to h1_init.o(.text) for __Heap_Initialize
    h1_alloc_mt.o(.text) refers to init_alloc.o(.text) for __Heap_Full
    h1_alloc_mt.o(.text) refers to rt_heap_descriptor_intlibspace.o(.text) for __rt_heap_descriptor
    heap2.o(i._FDIterate) refers to heap2.o(.conststring) for .conststring
    heap2.o(i.___Heap_ProvideMemory$realtime) refers to fdtree.o(i._FDTree_Delete) for _FDTree_Delete
    heap2.o(i.___Heap_ProvideMemory$realtime) refers to fdtree.o(i._FDTree_Insert) for _FDTree_Insert
    heap2.o(i.___Heap_Stats$realtime) refers to heap2.o(i._Heap2_StatsIterate) for _Heap2_StatsIterate
    heap2.o(i.___Heap_Valid$realtime) refers to heap2.o(i._FDIterate) for _FDIterate
    heap2.o(i.___Heap_Valid$realtime) refers to heap2.o(.conststring) for .conststring
    heap2.o(i._free$realtime) refers to rt_heap_descriptor_intlibspace.o(.text) for __rt_heap_descriptor
    heap2.o(i._free$realtime) refers to fdtree.o(i._FDTree_Delete) for _FDTree_Delete
    heap2.o(i._free$realtime) refers to fdtree.o(i._FDTree_Insert) for _FDTree_Insert
    heap2.o(i._malloc$realtime) refers to rt_heap_descriptor_intlibspace.o(.text) for __rt_heap_descriptor
    heap2.o(i._malloc$realtime) refers to fdtree.o(i._FDTree_FindFirst) for _FDTree_FindFirst
    heap2.o(i._malloc$realtime) refers to init_alloc.o(.text) for __Heap_Full
    heap2.o(i._malloc$realtime) refers to fdtree.o(i._FDTree_RemoveNode) for _FDTree_RemoveNode
    heap2.o(i._malloc$realtime) refers to fdtree.o(i._FDTree_Insert) for _FDTree_Insert
    heap2.o(i._posix_memalign$realtime) refers to rt_heap_descriptor_intlibspace.o(.text) for __rt_heap_descriptor
    heap2.o(i._posix_memalign$realtime) refers to fdtree.o(i._FDTree_FindFirst) for _FDTree_FindFirst
    heap2.o(i._posix_memalign$realtime) refers to init_alloc.o(.text) for __Heap_Full
    heap2.o(i._posix_memalign$realtime) refers to fdtree.o(i._FDTree_RemoveNode) for _FDTree_RemoveNode
    heap2.o(i._posix_memalign$realtime) refers to fdtree.o(i._FDTree_Insert) for _FDTree_Insert
    heap2.o(i._realloc$realtime) refers to rt_heap_descriptor_intlibspace.o(.text) for __rt_heap_descriptor
    heap2.o(i._realloc$realtime) refers to fdtree.o(i._FDTree_Insert) for _FDTree_Insert
    heap2.o(i._realloc$realtime) refers to h1_free.o(.text) for free
    heap2.o(i._realloc$realtime) refers to h1_alloc.o(.text) for malloc
    heap2.o(i._realloc$realtime) refers to fdtree.o(i._FDTree_Delete) for _FDTree_Delete
    heap2.o(i._realloc$realtime) refers to rt_memcpy_w.o(.text) for __aeabi_memcpy4
    heap2mt.o(i._FDIterate) refers to heap2mt.o(.conststring) for .conststring
    heap2mt.o(i.___Heap_Initialize$realtime$concurrent) refers to mutex_dummy.o(.text) for _mutex_initialize
    heap2mt.o(i.___Heap_ProvideMemory$realtime$concurrent) refers to fdtree.o(i._FDTree_Delete) for _FDTree_Delete
    heap2mt.o(i.___Heap_ProvideMemory$realtime$concurrent) refers to fdtree.o(i._FDTree_Insert) for _FDTree_Insert
    heap2mt.o(i.___Heap_Stats$realtime$concurrent) refers to heap2mt.o(i._Heap2_StatsIterate) for _Heap2_StatsIterate
    heap2mt.o(i.___Heap_Valid$realtime$concurrent) refers to heap2mt.o(i._FDIterate) for _FDIterate
    heap2mt.o(i.___Heap_Valid$realtime$concurrent) refers to heap2mt.o(.conststring) for .conststring
    heap2mt.o(i._free$realtime$concurrent) refers to rt_heap_descriptor_intlibspace.o(.text) for __rt_heap_descriptor
    heap2mt.o(i._free$realtime$concurrent) refers to fdtree.o(i._FDTree_Delete) for _FDTree_Delete
    heap2mt.o(i._free$realtime$concurrent) refers to fdtree.o(i._FDTree_Insert) for _FDTree_Insert
    heap2mt.o(i._malloc$realtime$concurrent) refers to rt_heap_descriptor_intlibspace.o(.text) for __rt_heap_descriptor
    heap2mt.o(i._malloc$realtime$concurrent) refers to fdtree.o(i._FDTree_FindFirst) for _FDTree_FindFirst
    heap2mt.o(i._malloc$realtime$concurrent) refers to init_alloc.o(.text) for __Heap_Full
    heap2mt.o(i._malloc$realtime$concurrent) refers to fdtree.o(i._FDTree_RemoveNode) for _FDTree_RemoveNode
    heap2mt.o(i._malloc$realtime$concurrent) refers to fdtree.o(i._FDTree_Insert) for _FDTree_Insert
    heap2mt.o(i._posix_memalign$realtime$concurrent) refers to rt_heap_descriptor_intlibspace.o(.text) for __rt_heap_descriptor
    heap2mt.o(i._posix_memalign$realtime$concurrent) refers to fdtree.o(i._FDTree_FindFirst) for _FDTree_FindFirst
    heap2mt.o(i._posix_memalign$realtime$concurrent) refers to init_alloc.o(.text) for __Heap_Full
    heap2mt.o(i._posix_memalign$realtime$concurrent) refers to fdtree.o(i._FDTree_RemoveNode) for _FDTree_RemoveNode
    heap2mt.o(i._posix_memalign$realtime$concurrent) refers to fdtree.o(i._FDTree_Insert) for _FDTree_Insert
    heap2mt.o(i._realloc$realtime$concurrent) refers to rt_heap_descriptor_intlibspace.o(.text) for __rt_heap_descriptor
    heap2mt.o(i._realloc$realtime$concurrent) refers to fdtree.o(i._FDTree_Insert) for _FDTree_Insert
    heap2mt.o(i._realloc$realtime$concurrent) refers to h1_free.o(.text) for free
    heap2mt.o(i._realloc$realtime$concurrent) refers to h1_alloc.o(.text) for malloc
    heap2mt.o(i._realloc$realtime$concurrent) refers to fdtree.o(i._FDTree_Delete) for _FDTree_Delete
    heap2mt.o(i._realloc$realtime$concurrent) refers to rt_memcpy_w.o(.text) for __aeabi_memcpy4
    c89vsnprintf.o(.text) refers (Special) to _printf_a.o(.ARM.Collect$$_printf_percent$$00000006) for _printf_a
    c89vsnprintf.o(.text) refers (Special) to _printf_c.o(.ARM.Collect$$_printf_percent$$00000013) for _printf_c
    c89vsnprintf.o(.text) refers (Special) to _printf_charcount.o(.text) for _printf_charcount
    c89vsnprintf.o(.text) refers (Special) to _printf_d.o(.ARM.Collect$$_printf_percent$$00000009) for _printf_d
    c89vsnprintf.o(.text) refers (Special) to _printf_e.o(.ARM.Collect$$_printf_percent$$00000004) for _printf_e
    c89vsnprintf.o(.text) refers (Special) to _printf_f.o(.ARM.Collect$$_printf_percent$$00000003) for _printf_f
    c89vsnprintf.o(.text) refers (Special) to printf1.o(x$fpl$printf1) for _printf_fp_dec
    c89vsnprintf.o(.text) refers (Special) to _printf_g.o(.ARM.Collect$$_printf_percent$$00000005) for _printf_g
    c89vsnprintf.o(.text) refers (Special) to _printf_i.o(.ARM.Collect$$_printf_percent$$00000008) for _printf_i
    c89vsnprintf.o(.text) refers (Special) to _printf_dec.o(.text) for _printf_int_dec
    c89vsnprintf.o(.text) refers (Special) to _printf_l.o(.ARM.Collect$$_printf_percent$$00000012) for _printf_l
    c89vsnprintf.o(.text) refers (Special) to _printf_lc.o(.ARM.Collect$$_printf_percent$$00000015) for _printf_lc
    c89vsnprintf.o(.text) refers (Special) to _printf_ll.o(.ARM.Collect$$_printf_percent$$00000007) for _printf_ll
    c89vsnprintf.o(.text) refers (Special) to _printf_lld.o(.ARM.Collect$$_printf_percent$$0000000E) for _printf_lld
    c89vsnprintf.o(.text) refers (Special) to _printf_lli.o(.ARM.Collect$$_printf_percent$$0000000D) for _printf_lli
    c89vsnprintf.o(.text) refers (Special) to _printf_llo.o(.ARM.Collect$$_printf_percent$$00000010) for _printf_llo
    c89vsnprintf.o(.text) refers (Special) to _printf_llu.o(.ARM.Collect$$_printf_percent$$0000000F) for _printf_llu
    c89vsnprintf.o(.text) refers (Special) to _printf_llx.o(.ARM.Collect$$_printf_percent$$00000011) for _printf_llx
    c89vsnprintf.o(.text) refers (Special) to _printf_longlong_dec.o(.text) for _printf_longlong_dec
    c89vsnprintf.o(.text) refers (Special) to _printf_hex_int_ll_ptr.o(.text) for _printf_longlong_hex
    c89vsnprintf.o(.text) refers (Special) to _printf_oct_int_ll.o(.text) for _printf_longlong_oct
    c89vsnprintf.o(.text) refers (Special) to _printf_ls.o(.ARM.Collect$$_printf_percent$$00000016) for _printf_ls
    c89vsnprintf.o(.text) refers (Special) to _printf_n.o(.ARM.Collect$$_printf_percent$$00000001) for _printf_n
    c89vsnprintf.o(.text) refers (Special) to _printf_o.o(.ARM.Collect$$_printf_percent$$0000000B) for _printf_o
    c89vsnprintf.o(.text) refers (Special) to _printf_p.o(.ARM.Collect$$_printf_percent$$00000002) for _printf_p
    c89vsnprintf.o(.text) refers (Special) to _printf_percent.o(.ARM.Collect$$_printf_percent$$00000000) for _printf_percent
    c89vsnprintf.o(.text) refers (Special) to _printf_pad.o(.text) for _printf_post_padding
    c89vsnprintf.o(.text) refers (Special) to _printf_s.o(.ARM.Collect$$_printf_percent$$00000014) for _printf_s
    c89vsnprintf.o(.text) refers (Special) to _printf_str.o(.text) for _printf_str
    c89vsnprintf.o(.text) refers (Special) to _printf_truncate.o(.text) for _printf_truncate_signed
    c89vsnprintf.o(.text) refers (Special) to _printf_u.o(.ARM.Collect$$_printf_percent$$0000000A) for _printf_u
    c89vsnprintf.o(.text) refers (Special) to _printf_wctomb.o(.text) for _printf_wctomb
    c89vsnprintf.o(.text) refers (Special) to _printf_x.o(.ARM.Collect$$_printf_percent$$0000000C) for _printf_x
    c89vsnprintf.o(.text) refers to _printf_char_common.o(.text) for _printf_char_common
    c89vsnprintf.o(.text) refers to _sputc.o(.text) for _sputc
    c89vsnprintf.o(.text) refers to _snputc.o(.text) for _snputc
    __2sprintf.o(.text) refers to _printf_char_common.o(.text) for _printf_char_common
    __2sprintf.o(.text) refers to _sputc.o(.text) for _sputc
    noretval__2sprintf.o(.text) refers to _printf_char_common.o(.text) for _printf_char_common
    noretval__2sprintf.o(.text) refers to _sputc.o(.text) for _sputc
    __printf.o(.text) refers to _printf_percent.o(.ARM.Collect$$_printf_percent$$00000000) for _printf_percent
    _printf_str.o(.text) refers (Special) to _printf_char.o(.text) for _printf_cs_common
    _printf_str.o(.text) refers (Weak) to _printf_pad.o(.text) for _printf_pre_padding
    _printf_str.o(.text) refers (Weak) to _printf_pad.o(.text) for _printf_post_padding
    _printf_dec.o(.text) refers (Weak) to _printf_truncate.o(.text) for _printf_truncate_signed
    _printf_dec.o(.text) refers (Weak) to _printf_truncate.o(.text) for _printf_truncate_unsigned
    _printf_dec.o(.text) refers to _printf_intcommon.o(.text) for _printf_int_common
    _printf_hex_ll.o(.text) refers to _printf_intcommon.o(.text) for _printf_int_common
    _printf_hex_ll.o(.text) refers to _printf_hex_ll.o(.constdata) for .constdata
    _printf_hex_int.o(.text) refers (Weak) to _printf_truncate.o(.text) for _printf_truncate_unsigned
    _printf_hex_int.o(.text) refers to _printf_intcommon.o(.text) for _printf_int_common
    _printf_hex_int.o(.text) refers to _printf_hex_int.o(.constdata) for .constdata
    _printf_hex_int_ll.o(.text) refers to _printf_intcommon.o(.text) for _printf_int_common
    _printf_hex_int_ll.o(.text) refers (Weak) to _printf_truncate.o(.text) for _printf_truncate_unsigned
    _printf_hex_int_ll.o(.text) refers to _printf_hex_int_ll.o(.constdata) for .constdata
    _printf_hex_ptr.o(.text) refers to _printf_intcommon.o(.text) for _printf_int_common
    _printf_hex_ptr.o(.text) refers to _printf_hex_ptr.o(.constdata) for .constdata
    _printf_hex_int_ptr.o(.text) refers to _printf_intcommon.o(.text) for _printf_int_common
    _printf_hex_int_ptr.o(.text) refers (Weak) to _printf_truncate.o(.text) for _printf_truncate_unsigned
    _printf_hex_int_ptr.o(.text) refers to _printf_hex_int_ptr.o(.constdata) for .constdata
    _printf_hex_ll_ptr.o(.text) refers to _printf_intcommon.o(.text) for _printf_int_common
    _printf_hex_ll_ptr.o(.text) refers to _printf_hex_ll_ptr.o(.constdata) for .constdata
    _printf_hex_int_ll_ptr.o(.text) refers to _printf_intcommon.o(.text) for _printf_int_common
    _printf_hex_int_ll_ptr.o(.text) refers (Weak) to _printf_truncate.o(.text) for _printf_truncate_unsigned
    _printf_hex_int_ll_ptr.o(.text) refers to _printf_hex_int_ll_ptr.o(.constdata) for .constdata
    __printf_flags.o(.text) refers to _printf_percent.o(.ARM.Collect$$_printf_percent$$00000000) for _printf_percent
    __printf_flags.o(.text) refers to __printf_flags.o(.constdata) for .constdata
    __printf_ss.o(.text) refers to _printf_percent.o(.ARM.Collect$$_printf_percent$$00000000) for _printf_percent
    __printf_flags_ss.o(.text) refers to _printf_percent.o(.ARM.Collect$$_printf_percent$$00000000) for _printf_percent
    __printf_flags_ss.o(.text) refers to __printf_flags_ss.o(.constdata) for .constdata
    __printf_wp.o(.text) refers to __printf_wp.o(i._is_digit) for _is_digit
    __printf_wp.o(.text) refers to _printf_percent.o(.ARM.Collect$$_printf_percent$$00000000) for _printf_percent
    __printf_flags_wp.o(.text) refers to __printf_wp.o(i._is_digit) for _is_digit
    __printf_flags_wp.o(.text) refers to _printf_percent.o(.ARM.Collect$$_printf_percent$$00000000) for _printf_percent
    __printf_flags_wp.o(.text) refers to __printf_flags_wp.o(.constdata) for .constdata
    __printf_ss_wp.o(.text) refers to __printf_wp.o(i._is_digit) for _is_digit
    __printf_ss_wp.o(.text) refers to _printf_percent.o(.ARM.Collect$$_printf_percent$$00000000) for _printf_percent
    __printf_flags_ss_wp.o(.text) refers to __printf_wp.o(i._is_digit) for _is_digit
    __printf_flags_ss_wp.o(.text) refers to _printf_percent.o(.ARM.Collect$$_printf_percent$$00000000) for _printf_percent
    __printf_flags_ss_wp.o(.text) refers to __printf_flags_ss_wp.o(.constdata) for .constdata
    _printf_s.o(.ARM.Collect$$_printf_percent$$00000014) refers (Weak) to _printf_char.o(.text) for _printf_string
    _printf_x.o(.ARM.Collect$$_printf_percent$$0000000C) refers (Weak) to _printf_hex_int_ll_ptr.o(.text) for _printf_int_hex
    _printf_d.o(.ARM.Collect$$_printf_percent$$00000009) refers (Weak) to _printf_dec.o(.text) for _printf_int_dec
    _printf_f.o(.ARM.Collect$$_printf_percent$$00000003) refers (Weak) to printf1.o(x$fpl$printf1) for _printf_fp_dec
    _printf_percent.o(.ARM.Collect$$_printf_percent$$00000000) refers (Special) to _printf_percent_end.o(.ARM.Collect$$_printf_percent$$00000017) for _printf_percent_end
    atoi.o(.text) refers to rt_errno_addr_intlibspace.o(.text) for __aeabi_errno_addr
    atoi.o(.text) refers to strtol.o(.text) for strtol
    strtok.o(.text) refers to strtok_int.o(.text) for __strtok_internal
    strtok.o(.text) refers to strtok.o(.data) for .data
    rt_memcpy_v6.o(.text) refers to rt_memcpy_w.o(.text) for __aeabi_memcpy4
    aeabi_memset.o(.text) refers to rt_memclr.o(.text) for _memset
    rt_memclr.o(.text) refers to rt_memclr_w.o(.text) for _memset_w
    strncpy.o(.text) refers to rt_memclr.o(.text) for __aeabi_memclr
    __main.o(!!!main) refers to __rtentry.o(.ARM.Collect$$rtentry$$00000000) for __rt_entry
    daddsub_clz.o(x$fpl$dadd) refers (Special) to usenofp.o(x$fpl$usenofp) for __I$use$fp
    daddsub_clz.o(x$fpl$dadd) refers to daddsub_clz.o(x$fpl$dsub) for _dsub1
    daddsub_clz.o(x$fpl$dadd) refers to dretinf.o(x$fpl$dretinf) for __fpl_dretinf
    daddsub_clz.o(x$fpl$dadd) refers to dnaninf.o(x$fpl$dnaninf) for __fpl_dnaninf
    daddsub_clz.o(x$fpl$drsb) refers (Special) to usenofp.o(x$fpl$usenofp) for __I$use$fp
    daddsub_clz.o(x$fpl$drsb) refers to daddsub_clz.o(x$fpl$dadd) for _dadd1
    daddsub_clz.o(x$fpl$drsb) refers to daddsub_clz.o(x$fpl$dsub) for _dsub1
    daddsub_clz.o(x$fpl$dsub) refers (Special) to usenofp.o(x$fpl$usenofp) for __I$use$fp
    daddsub_clz.o(x$fpl$dsub) refers to daddsub_clz.o(x$fpl$dadd) for _dadd1
    daddsub_clz.o(x$fpl$dsub) refers to dnaninf.o(x$fpl$dnaninf) for __fpl_dnaninf
    ddiv.o(x$fpl$drdiv) refers (Special) to usenofp.o(x$fpl$usenofp) for __I$use$fp
    ddiv.o(x$fpl$drdiv) refers to ddiv.o(x$fpl$ddiv) for ddiv_entry
    ddiv.o(x$fpl$ddiv) refers (Special) to usenofp.o(x$fpl$usenofp) for __I$use$fp
    ddiv.o(x$fpl$ddiv) refers to dretinf.o(x$fpl$dretinf) for __fpl_dretinf
    ddiv.o(x$fpl$ddiv) refers to dnaninf.o(x$fpl$dnaninf) for __fpl_dnaninf
    dfixu.o(x$fpl$dfixu) refers (Special) to usenofp.o(x$fpl$usenofp) for __I$use$fp
    dfixu.o(x$fpl$dfixu) refers to dnaninf.o(x$fpl$dnaninf) for __fpl_dnaninf
    dfixu.o(x$fpl$dfixur) refers (Special) to usenofp.o(x$fpl$usenofp) for __I$use$fp
    dfixu.o(x$fpl$dfixur) refers to dnaninf.o(x$fpl$dnaninf) for __fpl_dnaninf
    dflt_clz.o(x$fpl$dfltu) refers (Special) to usenofp.o(x$fpl$usenofp) for __I$use$fp
    dflt_clz.o(x$fpl$dflt) refers (Special) to usenofp.o(x$fpl$usenofp) for __I$use$fp
    dflt_clz.o(x$fpl$dfltn) refers (Special) to usenofp.o(x$fpl$usenofp) for __I$use$fp
    dmul.o(x$fpl$dmul) refers (Special) to usenofp.o(x$fpl$usenofp) for __I$use$fp
    dmul.o(x$fpl$dmul) refers to dretinf.o(x$fpl$dretinf) for __fpl_dretinf
    dmul.o(x$fpl$dmul) refers to dnaninf.o(x$fpl$dnaninf) for __fpl_dnaninf
    f2d.o(x$fpl$f2d) refers (Special) to usenofp.o(x$fpl$usenofp) for __I$use$fp
    f2d.o(x$fpl$f2d) refers to fnaninf.o(x$fpl$fnaninf) for __fpl_fnaninf
    f2d.o(x$fpl$f2d) refers to dretinf.o(x$fpl$dretinf) for __fpl_dretinf
    fdiv.o(x$fpl$frdiv) refers (Special) to usenofp.o(x$fpl$usenofp) for __I$use$fp
    fdiv.o(x$fpl$frdiv) refers to fdiv.o(x$fpl$fdiv) for _fdiv1
    fdiv.o(x$fpl$fdiv) refers (Special) to usenofp.o(x$fpl$usenofp) for __I$use$fp
    fdiv.o(x$fpl$fdiv) refers to fretinf.o(x$fpl$fretinf) for __fpl_fretinf
    fdiv.o(x$fpl$fdiv) refers to fnaninf.o(x$fpl$fnaninf) for __fpl_fnaninf
    fflt_clz.o(x$fpl$ffltu) refers (Special) to usenofp.o(x$fpl$usenofp) for __I$use$fp
    fflt_clz.o(x$fpl$fflt) refers (Special) to usenofp.o(x$fpl$usenofp) for __I$use$fp
    fflt_clz.o(x$fpl$ffltn) refers (Special) to usenofp.o(x$fpl$usenofp) for __I$use$fp
    fmul.o(x$fpl$fmul) refers (Special) to usenofp.o(x$fpl$usenofp) for __I$use$fp
    fmul.o(x$fpl$fmul) refers to fretinf.o(x$fpl$fretinf) for __fpl_fretinf
    fmul.o(x$fpl$fmul) refers to fnaninf.o(x$fpl$fnaninf) for __fpl_fnaninf
    printf1.o(x$fpl$printf1) refers to _printf_fp_dec.o(.text) for _printf_fp_dec_real
    __rtentry.o(.ARM.Collect$$rtentry$$00000000) refers (Special) to __rtentry2.o(.ARM.Collect$$rtentry$$0000000A) for __rt_entry_li
    __rtentry.o(.ARM.Collect$$rtentry$$00000000) refers (Special) to __rtentry2.o(.ARM.Collect$$rtentry$$0000000D) for __rt_entry_main
    __rtentry.o(.ARM.Collect$$rtentry$$00000000) refers (Special) to __rtentry2.o(.ARM.Collect$$rtentry$$0000000C) for __rt_entry_postli_1
    __rtentry.o(.ARM.Collect$$rtentry$$00000000) refers (Special) to __rtentry2.o(.ARM.Collect$$rtentry$$00000009) for __rt_entry_postsh_1
    __rtentry.o(.ARM.Collect$$rtentry$$00000000) refers (Special) to __rtentry2.o(.ARM.Collect$$rtentry$$00000002) for __rt_entry_presh_1
    __rtentry.o(.ARM.Collect$$rtentry$$00000000) refers (Special) to __rtentry4.o(.ARM.Collect$$rtentry$$00000004) for __rt_entry_sh
    rt_heap_descriptor.o(.text) refers to rt_heap_descriptor.o(.bss) for __rt_heap_descriptor_data
    rt_heap_descriptor_intlibspace.o(.text) refers to libspace.o(.bss) for __libspace_start
    rt_errno_addr.o(.text) refers to rt_errno_addr.o(.bss) for __aeabi_errno_addr_data
    rt_errno_addr_intlibspace.o(.text) refers to libspace.o(.bss) for __libspace_start
    init_alloc.o(.text) refers (Special) to hguard.o(.text) for __heap$guard
    init_alloc.o(.text) refers (Special) to libinit2.o(.ARM.Collect$$libinit$$00000005) for __rt_lib_init_heap_2
    init_alloc.o(.text) refers (Special) to maybetermalloc1.o(.emb_text) for _maybe_terminate_alloc
    init_alloc.o(.text) refers to h1_extend.o(.text) for __Heap_ProvideMemory
    init_alloc.o(.text) refers to defsig_rtmem_outer.o(.text) for __rt_SIGRTMEM
    init_alloc.o(.text) refers to rt_heap_descriptor_intlibspace.o(.text) for __rt_heap_descriptor
    init_alloc.o(.text) refers to h1_init.o(.text) for __Heap_Initialize
    free.o(.text) refers (Special) to hguard.o(.text) for __heap$guard
    free.o(.text) refers to rt_heap_descriptor_intlibspace.o(.text) for __rt_heap_descriptor
    free.o(.text) refers to heapstubs.o(.text) for __Heap_Free
    h1_free.o(.text) refers to rt_heap_descriptor_intlibspace.o(.text) for __rt_heap_descriptor
    h1_init_mt.o(.text) refers to mutex_dummy.o(.text) for _mutex_initialize
    h1_free_mt.o(.text) refers to rt_heap_descriptor_intlibspace.o(.text) for __rt_heap_descriptor
    _printf_intcommon.o(.text) refers (Weak) to _printf_pad.o(.text) for _printf_pre_padding
    _printf_intcommon.o(.text) refers (Weak) to _printf_pad.o(.text) for _printf_pre_padding
    _printf_intcommon.o(.text) refers (Weak) to _printf_pad.o(.text) for _printf_post_padding
    _printf_fp_dec.o(.text) refers (Special) to usenofp.o(x$fpl$usenofp) for __I$use$fp
    _printf_fp_dec.o(.text) refers (Special) to lc_numeric_c.o(locale$$code) for _get_lc_numeric
    _printf_fp_dec.o(.text) refers to bigflt0.o(.text) for _btod_etento
    _printf_fp_dec.o(.text) refers to btod.o(CL$$btod_d2e) for _btod_d2e
    _printf_fp_dec.o(.text) refers to btod.o(CL$$btod_ediv) for _btod_ediv
    _printf_fp_dec.o(.text) refers to btod.o(CL$$btod_emul) for _btod_emul
    _printf_fp_dec.o(.text) refers to lludiv10.o(.text) for _ll_udiv10
    _printf_fp_dec.o(.text) refers to fpclassify.o(i.__ARM_fpclassify) for __ARM_fpclassify
    _printf_fp_dec.o(.text) refers to _printf_fp_infnan.o(.text) for _printf_fp_infnan
    _printf_fp_dec.o(.text) refers (Weak) to _printf_pad.o(.text) for _printf_pre_padding
    _printf_fp_dec.o(.text) refers (Weak) to _printf_pad.o(.text) for _printf_pre_padding
    _printf_fp_dec.o(.text) refers to rt_locale_intlibspace.o(.text) for __rt_locale
    _printf_fp_dec.o(.text) refers (Weak) to _printf_pad.o(.text) for _printf_post_padding
    _printf_char_common.o(.text) refers to __printf_flags_ss_wp.o(.text) for __printf
    _printf_char.o(.text) refers (Weak) to _printf_str.o(.text) for _printf_str
    _printf_wctomb.o(.text) refers (Special) to _printf_wchar.o(.text) for _printf_lcs_common
    _printf_wctomb.o(.text) refers to _wcrtomb.o(.text) for _wcrtomb
    _printf_wctomb.o(.text) refers (Weak) to _printf_pad.o(.text) for _printf_pre_padding
    _printf_wctomb.o(.text) refers (Weak) to _printf_pad.o(.text) for _printf_post_padding
    _printf_wctomb.o(.text) refers to _printf_wctomb.o(.constdata) for .constdata
    _printf_wctomb.o(.constdata) refers (Special) to _printf_wchar.o(.text) for _printf_lcs_common
    _printf_longlong_dec.o(.text) refers to lludiv10.o(.text) for _ll_udiv10
    _printf_longlong_dec.o(.text) refers to _printf_intcommon.o(.text) for _printf_int_common
    _printf_oct_ll.o(.text) refers to _printf_intcommon.o(.text) for _printf_int_common
    _printf_oct_int.o(.text) refers (Weak) to _printf_truncate.o(.text) for _printf_truncate_unsigned
    _printf_oct_int.o(.text) refers to _printf_intcommon.o(.text) for _printf_int_common
    _printf_oct_int_ll.o(.text) refers to _printf_intcommon.o(.text) for _printf_int_common
    _printf_oct_int_ll.o(.text) refers (Weak) to _printf_truncate.o(.text) for _printf_truncate_unsigned
    _printf_c.o(.ARM.Collect$$_printf_percent$$00000013) refers (Weak) to _printf_char.o(.text) for _printf_char
    _printf_n.o(.ARM.Collect$$_printf_percent$$00000001) refers (Weak) to _printf_charcount.o(.text) for _printf_charcount
    _printf_p.o(.ARM.Collect$$_printf_percent$$00000002) refers (Weak) to _printf_hex_int_ll_ptr.o(.text) for _printf_hex_ptr
    _printf_o.o(.ARM.Collect$$_printf_percent$$0000000B) refers (Weak) to _printf_oct_int_ll.o(.text) for _printf_int_oct
    _printf_i.o(.ARM.Collect$$_printf_percent$$00000008) refers (Weak) to _printf_dec.o(.text) for _printf_int_dec
    _printf_u.o(.ARM.Collect$$_printf_percent$$0000000A) refers (Weak) to _printf_dec.o(.text) for _printf_int_dec
    _printf_e.o(.ARM.Collect$$_printf_percent$$00000004) refers (Weak) to printf1.o(x$fpl$printf1) for _printf_fp_dec
    _printf_g.o(.ARM.Collect$$_printf_percent$$00000005) refers (Weak) to printf1.o(x$fpl$printf1) for _printf_fp_dec
    _printf_lli.o(.ARM.Collect$$_printf_percent$$0000000D) refers (Special) to _printf_ll.o(.ARM.Collect$$_printf_percent$$00000007) for _printf_ll
    _printf_lli.o(.ARM.Collect$$_printf_percent$$0000000D) refers (Weak) to _printf_longlong_dec.o(.text) for _printf_longlong_dec
    _printf_lld.o(.ARM.Collect$$_printf_percent$$0000000E) refers (Special) to _printf_ll.o(.ARM.Collect$$_printf_percent$$00000007) for _printf_ll
    _printf_lld.o(.ARM.Collect$$_printf_percent$$0000000E) refers (Weak) to _printf_longlong_dec.o(.text) for _printf_longlong_dec
    _printf_llu.o(.ARM.Collect$$_printf_percent$$0000000F) refers (Special) to _printf_ll.o(.ARM.Collect$$_printf_percent$$00000007) for _printf_ll
    _printf_llu.o(.ARM.Collect$$_printf_percent$$0000000F) refers (Weak) to _printf_longlong_dec.o(.text) for _printf_longlong_dec
    _printf_lc.o(.ARM.Collect$$_printf_percent$$00000015) refers (Special) to _printf_l.o(.ARM.Collect$$_printf_percent$$00000012) for _printf_l
    _printf_lc.o(.ARM.Collect$$_printf_percent$$00000015) refers (Weak) to _printf_wchar.o(.text) for _printf_wchar
    _printf_ls.o(.ARM.Collect$$_printf_percent$$00000016) refers (Special) to _printf_l.o(.ARM.Collect$$_printf_percent$$00000012) for _printf_l
    _printf_ls.o(.ARM.Collect$$_printf_percent$$00000016) refers (Weak) to _printf_wchar.o(.text) for _printf_wstring
    _printf_llo.o(.ARM.Collect$$_printf_percent$$00000010) refers (Special) to _printf_ll.o(.ARM.Collect$$_printf_percent$$00000007) for _printf_ll
    _printf_llo.o(.ARM.Collect$$_printf_percent$$00000010) refers (Weak) to _printf_oct_int_ll.o(.text) for _printf_ll_oct
    _printf_llx.o(.ARM.Collect$$_printf_percent$$00000011) refers (Special) to _printf_ll.o(.ARM.Collect$$_printf_percent$$00000007) for _printf_ll
    _printf_llx.o(.ARM.Collect$$_printf_percent$$00000011) refers (Weak) to _printf_hex_int_ll_ptr.o(.text) for _printf_ll_hex
    strtol.o(.text) refers to rt_ctype_table.o(.text) for __rt_ctype_table
    strtol.o(.text) refers to _strtoul.o(.text) for _strtoul
    strtol.o(.text) refers to rt_errno_addr_intlibspace.o(.text) for __aeabi_errno_addr
    strtok_int.o(.text) refers to strspn.o(.text) for strspn
    strtok_int.o(.text) refers to strcspn.o(.text) for strcspn
    _get_argv.o(.text) refers (Special) to hrguard.o(.text) for __heap_region$guard
    _get_argv.o(.text) refers to h1_alloc.o(.text) for malloc
    _get_argv.o(.text) refers to defsig_rtmem_outer.o(.text) for __rt_SIGRTMEM
    _get_argv.o(.text) refers to sys_command.o(.text) for _sys_command_string
    libinit2.o(.ARM.Collect$$libinit$$00000005) refers (Weak) to init_alloc.o(.text) for _init_alloc
    libinit2.o(.ARM.Collect$$libinit$$0000000F) refers (Weak) to rt_locale_intlibspace.o(.text) for __rt_locale
    libinit2.o(.ARM.Collect$$libinit$$00000010) refers to libinit2.o(.ARM.Collect$$libinit$$0000000F) for .ARM.Collect$$libinit$$0000000F
    libinit2.o(.ARM.Collect$$libinit$$00000012) refers to libinit2.o(.ARM.Collect$$libinit$$0000000F) for .ARM.Collect$$libinit$$0000000F
    libinit2.o(.ARM.Collect$$libinit$$00000012) refers (Weak) to lc_ctype_c.o(locale$$code) for _get_lc_ctype
    libinit2.o(.ARM.Collect$$libinit$$00000014) refers to libinit2.o(.ARM.Collect$$libinit$$0000000F) for .ARM.Collect$$libinit$$0000000F
    libinit2.o(.ARM.Collect$$libinit$$00000016) refers to libinit2.o(.ARM.Collect$$libinit$$0000000F) for .ARM.Collect$$libinit$$0000000F
    libinit2.o(.ARM.Collect$$libinit$$00000016) refers (Weak) to lc_numeric_c.o(locale$$code) for _get_lc_numeric
    libinit2.o(.ARM.Collect$$libinit$$00000018) refers to libinit2.o(.ARM.Collect$$libinit$$0000000F) for .ARM.Collect$$libinit$$0000000F
    libinit2.o(.ARM.Collect$$libinit$$00000026) refers to argv_veneer.o(.emb_text) for __ARM_argv_veneer
    libinit2.o(.ARM.Collect$$libinit$$00000027) refers to argv_veneer.o(.emb_text) for __ARM_argv_veneer
    dnaninf.o(x$fpl$dnaninf) refers (Special) to usenofp.o(x$fpl$usenofp) for __I$use$fp
    dretinf.o(x$fpl$dretinf) refers (Special) to usenofp.o(x$fpl$usenofp) for __I$use$fp
    fnaninf.o(x$fpl$fnaninf) refers (Special) to usenofp.o(x$fpl$usenofp) for __I$use$fp
    fretinf.o(x$fpl$fretinf) refers (Special) to usenofp.o(x$fpl$usenofp) for __I$use$fp
    sys_command.o(.text) refers (Special) to use_no_semi.o(.text) for __I$use$semihosting
    sys_command.o(.text) refers (Special) to indicate_semi.o(.text) for __semihosting_library_function
    libspace.o(.text) refers to libspace.o(.bss) for __libspace_start
    __rtentry2.o(.ARM.Collect$$rtentry$$00000008) refers to boardinit2.o(.text) for _platform_post_stackheap_init
    __rtentry2.o(.ARM.Collect$$rtentry$$0000000A) refers to libinit.o(.ARM.Collect$$libinit$$00000000) for __rt_lib_init
    __rtentry2.o(.ARM.Collect$$rtentry$$0000000B) refers to boardinit3.o(.text) for _platform_post_lib_init
    __rtentry2.o(.ARM.Collect$$rtentry$$0000000D) refers to main.o(i.main) for main
    __rtentry2.o(.ARM.Collect$$rtentry$$0000000D) refers to exit.o(.text) for exit
    __rtentry2.o(.ARM.exidx) refers to __rtentry2.o(.ARM.Collect$$rtentry$$00000001) for .ARM.Collect$$rtentry$$00000001
    __rtentry2.o(.ARM.exidx) refers to __rtentry2.o(.ARM.Collect$$rtentry$$00000008) for .ARM.Collect$$rtentry$$00000008
    __rtentry2.o(.ARM.exidx) refers to __rtentry2.o(.ARM.Collect$$rtentry$$0000000A) for .ARM.Collect$$rtentry$$0000000A
    __rtentry2.o(.ARM.exidx) refers to __rtentry2.o(.ARM.Collect$$rtentry$$0000000B) for .ARM.Collect$$rtentry$$0000000B
    __rtentry2.o(.ARM.exidx) refers to __rtentry2.o(.ARM.Collect$$rtentry$$0000000D) for .ARM.Collect$$rtentry$$0000000D
    __rtentry4.o(.ARM.Collect$$rtentry$$00000004) refers to sys_stackheap_outer.o(.text) for __user_setup_stackheap
    __rtentry4.o(.ARM.exidx) refers to __rtentry4.o(.ARM.Collect$$rtentry$$00000004) for .ARM.Collect$$rtentry$$00000004
    rt_ctype_table.o(.text) refers to rt_locale_intlibspace.o(.text) for __rt_locale
    rt_ctype_table.o(.text) refers to lc_ctype_c.o(locale$$code) for _get_lc_ctype
    rt_locale.o(.text) refers to rt_locale.o(.bss) for __rt_locale_data
    rt_locale_intlibspace.o(.text) refers to libspace.o(.bss) for __libspace_start
    maybetermalloc2.o(.emb_text) refers (Special) to term_alloc.o(.text) for _terminate_alloc
    h1_extend.o(.text) refers to h1_free.o(.text) for free
    h1_extend_mt.o(.text) refers to h1_free_mt.o(.text) for _free_internal
    _printf_fp_infnan.o(.text) refers (Weak) to _printf_pad.o(.text) for _printf_pre_padding
    _printf_fp_infnan.o(.text) refers (Weak) to _printf_pad.o(.text) for _printf_post_padding
    _printf_wchar.o(.text) refers (Weak) to _printf_wctomb.o(.text) for _printf_wctomb
    _strtoul.o(.text) refers to _chval.o(.text) for _chval
    _strtoul.o(.text) refers to rt_errno_addr_intlibspace.o(.text) for __aeabi_errno_addr
    bigflt0.o(.text) refers (Special) to usenofp.o(x$fpl$usenofp) for __I$use$fp
    bigflt0.o(.text) refers to btod.o(CL$$btod_emul) for _btod_emul
    bigflt0.o(.text) refers to btod.o(CL$$btod_ediv) for _btod_ediv
    bigflt0.o(.text) refers to bigflt0.o(.constdata) for .constdata
    bigflt0.o(.constdata) refers (Special) to usenofp.o(x$fpl$usenofp) for __I$use$fp
    btod.o(CL$$btod_d2e) refers (Special) to usenofp.o(x$fpl$usenofp) for __I$use$fp
    btod.o(CL$$btod_d2e) refers to btod.o(CL$$btod_d2e_norm_op1) for _d2e_norm_op1
    btod.o(CL$$btod_d2e_norm_op1) refers (Special) to usenofp.o(x$fpl$usenofp) for __I$use$fp
    btod.o(CL$$btod_d2e_norm_op1) refers to btod.o(CL$$btod_d2e_denorm_low) for _d2e_denorm_low
    btod.o(CL$$btod_d2e_denorm_low) refers (Special) to usenofp.o(x$fpl$usenofp) for __I$use$fp
    btod.o(CL$$btod_emul) refers (Special) to usenofp.o(x$fpl$usenofp) for __I$use$fp
    btod.o(CL$$btod_emul) refers to btod.o(CL$$btod_mult_common) for __btod_mult_common
    btod.o(CL$$btod_emul) refers to btod.o(CL$$btod_e2e) for _e2e
    btod.o(CL$$btod_ediv) refers (Special) to usenofp.o(x$fpl$usenofp) for __I$use$fp
    btod.o(CL$$btod_ediv) refers to btod.o(CL$$btod_div_common) for __btod_div_common
    btod.o(CL$$btod_ediv) refers to btod.o(CL$$btod_e2e) for _e2e
    btod.o(CL$$btod_emuld) refers (Special) to usenofp.o(x$fpl$usenofp) for __I$use$fp
    btod.o(CL$$btod_emuld) refers to btod.o(CL$$btod_mult_common) for __btod_mult_common
    btod.o(CL$$btod_emuld) refers to btod.o(CL$$btod_e2d) for _e2d
    btod.o(CL$$btod_edivd) refers (Special) to usenofp.o(x$fpl$usenofp) for __I$use$fp
    btod.o(CL$$btod_edivd) refers to btod.o(CL$$btod_div_common) for __btod_div_common
    btod.o(CL$$btod_edivd) refers to btod.o(CL$$btod_e2d) for _e2d
    btod.o(CL$$btod_e2e) refers (Special) to usenofp.o(x$fpl$usenofp) for __I$use$fp
    btod.o(CL$$btod_e2d) refers (Special) to usenofp.o(x$fpl$usenofp) for __I$use$fp
    btod.o(CL$$btod_e2d) refers to btod.o(CL$$btod_e2e) for _e2e
    btod.o(CL$$btod_mult_common) refers (Special) to usenofp.o(x$fpl$usenofp) for __I$use$fp
    btod.o(CL$$btod_div_common) refers (Special) to usenofp.o(x$fpl$usenofp) for __I$use$fp
    _wcrtomb.o(.text) refers to rt_ctype_table.o(.text) for __rt_ctype_table
    lc_numeric_c.o(locale$$data) refers (Special) to libinit2.o(.ARM.Collect$$libinit$$00000016) for __rt_lib_init_lc_numeric_2
    lc_numeric_c.o(locale$$code) refers (Special) to libinit2.o(.ARM.Collect$$libinit$$00000016) for __rt_lib_init_lc_numeric_2
    lc_numeric_c.o(locale$$code) refers to strcmpv7m.o(.text) for strcmp
    lc_numeric_c.o(locale$$code) refers to lc_numeric_c.o(locale$$data) for __lcnum_c_name
    defsig_rtmem_outer.o(.text) refers to defsig_rtmem_inner.o(.text) for __rt_SIGRTMEM_inner
    defsig_rtmem_outer.o(.text) refers to defsig_exit.o(.text) for __sig_exit
    defsig_rtmem_formal.o(.text) refers to rt_raise.o(.text) for __rt_raise
    heapauxa.o(.text) refers to heapauxa.o(.data) for .data
    argv_veneer.o(.emb_text) refers to no_argv.o(.text) for __ARM_get_argv
    istatus.o(x$fpl$ieeestatus) refers (Special) to usenofp.o(x$fpl$usenofp) for __I$use$fp
    fpclassify.o(i.__ARM_fpclassify) refers (Special) to usenofp.o(x$fpl$usenofp) for __I$use$fp
    sys_stackheap_outer.o(.text) refers to libspace.o(.text) for __user_perproc_libspace
    sys_stackheap_outer.o(.text) refers to startup_stm32f10x_hd.o(.text) for __user_initial_stackheap
    rt_raise.o(.text) refers to __raise.o(.text) for __raise
    rt_raise.o(.text) refers to sys_exit.o(.text) for _sys_exit
    term_alloc.o(.text) refers (Special) to libshutdown2.o(.ARM.Collect$$libshutdown$$0000000D) for __rt_lib_shutdown_heap_2
    term_alloc.o(.text) refers to rt_heap_descriptor_intlibspace.o(.text) for __rt_heap_descriptor
    term_alloc.o(.text) refers to h1_final.o(.text) for __Heap_Finalize
    lc_ctype_c.o(locale$$data) refers (Special) to libinit2.o(.ARM.Collect$$libinit$$00000012) for __rt_lib_init_lc_ctype_2
    lc_ctype_c.o(locale$$code) refers (Special) to libinit2.o(.ARM.Collect$$libinit$$00000012) for __rt_lib_init_lc_ctype_2
    lc_ctype_c.o(locale$$code) refers to strcmpv7m.o(.text) for strcmp
    lc_ctype_c.o(locale$$code) refers to lc_ctype_c.o(locale$$data) for __lcctype_c_name
    exit.o(.text) refers to rtexit.o(.ARM.Collect$$rtexit$$00000000) for __rt_exit
    defsig_exit.o(.text) refers to sys_exit.o(.text) for _sys_exit
    defsig_rtmem_inner.o(.text) refers to defsig_general.o(.text) for __default_signal_display
    _get_argv_nomalloc.o(.text) refers (Special) to hrguard.o(.text) for __heap_region$guard
    _get_argv_nomalloc.o(.text) refers to defsig_rtmem_outer.o(.text) for __rt_SIGRTMEM
    _get_argv_nomalloc.o(.text) refers to sys_command.o(.text) for _sys_command_string
    libinit.o(.ARM.Collect$$libinit$$00000000) refers (Special) to libinit2.o(.ARM.Collect$$libinit$$0000002E) for __rt_lib_init_alloca_1
    libinit.o(.ARM.Collect$$libinit$$00000000) refers (Special) to libinit2.o(.ARM.Collect$$libinit$$0000002C) for __rt_lib_init_argv_1
    libinit.o(.ARM.Collect$$libinit$$00000000) refers (Special) to libinit2.o(.ARM.Collect$$libinit$$0000001B) for __rt_lib_init_atexit_1
    libinit.o(.ARM.Collect$$libinit$$00000000) refers (Special) to libinit2.o(.ARM.Collect$$libinit$$00000021) for __rt_lib_init_clock_1
    libinit.o(.ARM.Collect$$libinit$$00000000) refers (Special) to libinit2.o(.ARM.Collect$$libinit$$00000032) for __rt_lib_init_cpp_1
    libinit.o(.ARM.Collect$$libinit$$00000000) refers (Special) to libinit2.o(.ARM.Collect$$libinit$$00000030) for __rt_lib_init_exceptions_1
    libinit.o(.ARM.Collect$$libinit$$00000000) refers (Special) to libinit2.o(.ARM.Collect$$libinit$$00000002) for __rt_lib_init_fp_1
    libinit.o(.ARM.Collect$$libinit$$00000000) refers (Special) to libinit2.o(.ARM.Collect$$libinit$$0000001F) for __rt_lib_init_fp_trap_1
    libinit.o(.ARM.Collect$$libinit$$00000000) refers (Special) to libinit2.o(.ARM.Collect$$libinit$$00000023) for __rt_lib_init_getenv_1
    libinit.o(.ARM.Collect$$libinit$$00000000) refers (Special) to libinit2.o(.ARM.Collect$$libinit$$0000000A) for __rt_lib_init_heap_1
    libinit.o(.ARM.Collect$$libinit$$00000000) refers (Special) to libinit2.o(.ARM.Collect$$libinit$$00000011) for __rt_lib_init_lc_collate_1
    libinit.o(.ARM.Collect$$libinit$$00000000) refers (Special) to libinit2.o(.ARM.Collect$$libinit$$00000013) for __rt_lib_init_lc_ctype_1
    libinit.o(.ARM.Collect$$libinit$$00000000) refers (Special) to libinit2.o(.ARM.Collect$$libinit$$00000015) for __rt_lib_init_lc_monetary_1
    libinit.o(.ARM.Collect$$libinit$$00000000) refers (Special) to libinit2.o(.ARM.Collect$$libinit$$00000017) for __rt_lib_init_lc_numeric_1
    libinit.o(.ARM.Collect$$libinit$$00000000) refers (Special) to libinit2.o(.ARM.Collect$$libinit$$00000019) for __rt_lib_init_lc_time_1
    libinit.o(.ARM.Collect$$libinit$$00000000) refers (Special) to libinit2.o(.ARM.Collect$$libinit$$00000004) for __rt_lib_init_preinit_1
    libinit.o(.ARM.Collect$$libinit$$00000000) refers (Special) to libinit2.o(.ARM.Collect$$libinit$$0000000E) for __rt_lib_init_rand_1
    libinit.o(.ARM.Collect$$libinit$$00000000) refers (Special) to libinit2.o(.ARM.Collect$$libinit$$00000033) for __rt_lib_init_return
    libinit.o(.ARM.Collect$$libinit$$00000000) refers (Special) to libinit2.o(.ARM.Collect$$libinit$$0000001D) for __rt_lib_init_signal_1
    libinit.o(.ARM.Collect$$libinit$$00000000) refers (Special) to libinit2.o(.ARM.Collect$$libinit$$00000025) for __rt_lib_init_stdio_1
    libinit.o(.ARM.Collect$$libinit$$00000000) refers (Special) to libinit2.o(.ARM.Collect$$libinit$$0000000C) for __rt_lib_init_user_alloc_1
    sys_exit.o(.text) refers (Special) to use_no_semi.o(.text) for __I$use$semihosting
    sys_exit.o(.text) refers (Special) to indicate_semi.o(.text) for __semihosting_library_function
    rtexit.o(.ARM.Collect$$rtexit$$00000000) refers (Special) to rtexit2.o(.ARM.Collect$$rtexit$$00000004) for __rt_exit_exit
    rtexit.o(.ARM.Collect$$rtexit$$00000000) refers (Special) to rtexit2.o(.ARM.Collect$$rtexit$$00000003) for __rt_exit_ls
    rtexit.o(.ARM.Collect$$rtexit$$00000000) refers (Special) to rtexit2.o(.ARM.Collect$$rtexit$$00000002) for __rt_exit_prels_1
    rtexit.o(.ARM.exidx) refers (Special) to rtexit2.o(.ARM.Collect$$rtexit$$00000004) for __rt_exit_exit
    rtexit.o(.ARM.exidx) refers (Special) to rtexit2.o(.ARM.Collect$$rtexit$$00000003) for __rt_exit_ls
    rtexit.o(.ARM.exidx) refers (Special) to rtexit2.o(.ARM.Collect$$rtexit$$00000002) for __rt_exit_prels_1
    rtexit.o(.ARM.exidx) refers to rtexit.o(.ARM.Collect$$rtexit$$00000000) for .ARM.Collect$$rtexit$$00000000
    __raise.o(.text) refers to defsig.o(CL$$defsig) for __default_signal_handler
    defsig_general.o(.text) refers to sys_wrch.o(.text) for _ttywrch
    libshutdown2.o(.ARM.Collect$$libshutdown$$0000000C) refers (Weak) to term_alloc.o(.text) for _terminate_alloc
    sys_wrch.o(.text) refers (Special) to use_no_semi.o(.text) for __I$use$semihosting
    sys_wrch.o(.text) refers (Special) to indicate_semi.o(.text) for __semihosting_library_function
    rtexit2.o(.ARM.Collect$$rtexit$$00000003) refers to libshutdown.o(.ARM.Collect$$libshutdown$$00000000) for __rt_lib_shutdown
    rtexit2.o(.ARM.Collect$$rtexit$$00000004) refers to sys_exit.o(.text) for _sys_exit
    rtexit2.o(.ARM.exidx) refers to rtexit2.o(.ARM.Collect$$rtexit$$00000001) for .ARM.Collect$$rtexit$$00000001
    rtexit2.o(.ARM.exidx) refers to rtexit2.o(.ARM.Collect$$rtexit$$00000003) for .ARM.Collect$$rtexit$$00000003
    rtexit2.o(.ARM.exidx) refers to rtexit2.o(.ARM.Collect$$rtexit$$00000004) for .ARM.Collect$$rtexit$$00000004
    defsig.o(CL$$defsig) refers to defsig_rtmem_inner.o(.text) for __rt_SIGRTMEM_inner
    defsig_abrt_inner.o(.text) refers to defsig_general.o(.text) for __default_signal_display
    defsig_fpe_inner.o(.text) refers to defsig_general.o(.text) for __default_signal_display
    defsig_rtred_inner.o(.text) refers to defsig_general.o(.text) for __default_signal_display
    defsig_stak_inner.o(.text) refers to defsig_general.o(.text) for __default_signal_display
    defsig_pvfn_inner.o(.text) refers to defsig_general.o(.text) for __default_signal_display
    defsig_cppl_inner.o(.text) refers to defsig_general.o(.text) for __default_signal_display
    defsig_segv_inner.o(.text) refers to defsig_general.o(.text) for __default_signal_display
    defsig_other.o(.text) refers to defsig_general.o(.text) for __default_signal_display
    libshutdown.o(.ARM.Collect$$libshutdown$$00000000) refers (Special) to libshutdown2.o(.ARM.Collect$$libshutdown$$00000006) for __rt_lib_shutdown_fp_trap_1
    libshutdown.o(.ARM.Collect$$libshutdown$$00000000) refers (Special) to libshutdown2.o(.ARM.Collect$$libshutdown$$0000000E) for __rt_lib_shutdown_heap_1
    libshutdown.o(.ARM.Collect$$libshutdown$$00000000) refers (Special) to libshutdown2.o(.ARM.Collect$$libshutdown$$0000000F) for __rt_lib_shutdown_return
    libshutdown.o(.ARM.Collect$$libshutdown$$00000000) refers (Special) to libshutdown2.o(.ARM.Collect$$libshutdown$$00000009) for __rt_lib_shutdown_signal_1
    libshutdown.o(.ARM.Collect$$libshutdown$$00000000) refers (Special) to libshutdown2.o(.ARM.Collect$$libshutdown$$00000003) for __rt_lib_shutdown_stdio_1
    libshutdown.o(.ARM.Collect$$libshutdown$$00000000) refers (Special) to libshutdown2.o(.ARM.Collect$$libshutdown$$0000000B) for __rt_lib_shutdown_user_alloc_1


==============================================================================

Removing Unused input sections from the image.

    Removing app_debug.o(i.DebugHexMsg), (108 bytes).
    Removing app_debug.o(i.DisableAllDebug), (12 bytes).
    Removing app_json.o(i.JSON_ExtractInit), (6 bytes).
    Removing app_led.o(i.LedOffSet), (52 bytes).
    Removing app_para.o(i.FieldVarMaxLen), (36 bytes).
    Removing app_para.o(i.ParaBackRead), (252 bytes).
    Removing app_para.o(i.crc8Cal), (28 bytes).
    Removing app_plt.o(i.Plt1SysVarRead), (76 bytes).
    Removing app_usrcmd.o(.bss), (100 bytes).
    Removing app_usrcmd.o(.data), (5 bytes).
    Removing app_vfd.o(i.VfdWriteDataDebug), (2 bytes).
    Removing comm.o(i.DevEightByteToDWord), (48 bytes).
    Removing comm.o(i.IsDigit), (18 bytes).
    Removing comm.o(i.IsID), (66 bytes).
    Removing comm.o(i.StringiCmp), (48 bytes).
    Removing comm.o(i.StrtokAfter), (66 bytes).
    Removing comm.o(i.StrtokBefore), (62 bytes).
    Removing comm.o(i.memicmp), (72 bytes).
    Removing comm.o(i.my_atod), (136 bytes).
    Removing stm32f10x_it.o(i.CAN_RX1_IRQHandler), (32 bytes).
    Removing stm32f10x_it.o(i.USB_HP_CAN_TX_IRQHandler), (24 bytes).
    Removing app_upgrade.o(i.GetRebootFlag), (12 bytes).
    Removing gc65.o(i.ATRespDataPost), (2 bytes).
    Removing gc65.o(i.DelayRePPP), (48 bytes).
    Removing gc65.o(i.GprsRcvDataPost), (2 bytes).
    Removing gc65.o(i.QDataRead), (6 bytes).
    Removing gc65.o(i.QDataValid), (6 bytes).
    Removing gc65.o(i.SendGprsCondition), (44 bytes).
    Removing gc65.o(i.SetReset), (2 bytes).
    Removing misc.o(i.NVIC_SetVectorTable), (20 bytes).
    Removing misc.o(i.NVIC_SystemLPConfig), (32 bytes).
    Removing misc.o(i.SysTick_CLKSourceConfig), (40 bytes).
    Removing stm32f10x_dma.o(i.DMA_ClearITPendingBit), (28 bytes).
    Removing stm32f10x_dma.o(i.DMA_GetCurrDataCounter), (8 bytes).
    Removing stm32f10x_dma.o(i.DMA_GetITStatus), (44 bytes).
    Removing stm32f10x_dma.o(i.DMA_SetCurrDataCounter), (4 bytes).
    Removing stm32f10x_dma.o(i.DMA_StructInit), (26 bytes).
    Removing stm32f10x_flash.o(i.FLASH_EnableWriteProtection), (196 bytes).
    Removing stm32f10x_flash.o(i.FLASH_EraseAllBank1Pages), (72 bytes).
    Removing stm32f10x_flash.o(i.FLASH_EraseAllPages), (72 bytes).
    Removing stm32f10x_flash.o(i.FLASH_EraseOptionBytes), (168 bytes).
    Removing stm32f10x_flash.o(i.FLASH_GetFlagStatus), (48 bytes).
    Removing stm32f10x_flash.o(i.FLASH_GetPrefetchBufferStatus), (24 bytes).
    Removing stm32f10x_flash.o(i.FLASH_GetReadOutProtectionStatus), (24 bytes).
    Removing stm32f10x_flash.o(i.FLASH_GetStatus), (52 bytes).
    Removing stm32f10x_flash.o(i.FLASH_GetUserOptionByte), (12 bytes).
    Removing stm32f10x_flash.o(i.FLASH_GetWriteProtectionOptionByte), (12 bytes).
    Removing stm32f10x_flash.o(i.FLASH_HalfCycleAccessCmd), (28 bytes).
    Removing stm32f10x_flash.o(i.FLASH_ITConfig), (32 bytes).
    Removing stm32f10x_flash.o(i.FLASH_LockBank1), (20 bytes).
    Removing stm32f10x_flash.o(i.FLASH_PrefetchBufferCmd), (28 bytes).
    Removing stm32f10x_flash.o(i.FLASH_ProgramHalfWord), (64 bytes).
    Removing stm32f10x_flash.o(i.FLASH_ProgramOptionByteData), (84 bytes).
    Removing stm32f10x_flash.o(i.FLASH_ReadOutProtection), (172 bytes).
    Removing stm32f10x_flash.o(i.FLASH_SetLatency), (24 bytes).
    Removing stm32f10x_flash.o(i.FLASH_UnlockBank1), (24 bytes).
    Removing stm32f10x_flash.o(i.FLASH_UserOptionByteConfig), (104 bytes).
    Removing stm32f10x_flash.o(i.FLASH_WaitForLastBank1Operation), (38 bytes).
    Removing stm32f10x_gpio.o(i.GPIO_AFIODeInit), (20 bytes).
    Removing stm32f10x_gpio.o(i.GPIO_DeInit), (200 bytes).
    Removing stm32f10x_gpio.o(i.GPIO_ETH_MediaInterfaceConfig), (12 bytes).
    Removing stm32f10x_gpio.o(i.GPIO_EXTILineConfig), (64 bytes).
    Removing stm32f10x_gpio.o(i.GPIO_EventOutputCmd), (12 bytes).
    Removing stm32f10x_gpio.o(i.GPIO_EventOutputConfig), (32 bytes).
    Removing stm32f10x_gpio.o(i.GPIO_PinLockConfig), (18 bytes).
    Removing stm32f10x_gpio.o(i.GPIO_ReadInputData), (8 bytes).
    Removing stm32f10x_gpio.o(i.GPIO_ReadInputDataBit), (18 bytes).
    Removing stm32f10x_gpio.o(i.GPIO_ReadOutputData), (8 bytes).
    Removing stm32f10x_gpio.o(i.GPIO_ReadOutputDataBit), (18 bytes).
    Removing stm32f10x_gpio.o(i.GPIO_StructInit), (16 bytes).
    Removing stm32f10x_gpio.o(i.GPIO_Write), (4 bytes).
    Removing stm32f10x_gpio.o(i.GPIO_WriteBit), (10 bytes).
    Removing stm32f10x_iwdg.o(i.IWDG_Enable), (16 bytes).
    Removing stm32f10x_iwdg.o(i.IWDG_GetFlagStatus), (24 bytes).
    Removing stm32f10x_iwdg.o(i.IWDG_ReloadCounter), (16 bytes).
    Removing stm32f10x_iwdg.o(i.IWDG_SetPrescaler), (12 bytes).
    Removing stm32f10x_iwdg.o(i.IWDG_SetReload), (12 bytes).
    Removing stm32f10x_iwdg.o(i.IWDG_WriteAccessCmd), (12 bytes).
    Removing stm32f10x_rcc.o(i.RCC_ADCCLKConfig), (24 bytes).
    Removing stm32f10x_rcc.o(i.RCC_APB2PeriphResetCmd), (32 bytes).
    Removing stm32f10x_rcc.o(i.RCC_AdjustHSICalibrationValue), (24 bytes).
    Removing stm32f10x_rcc.o(i.RCC_BackupResetCmd), (12 bytes).
    Removing stm32f10x_rcc.o(i.RCC_ClearITPendingBit), (12 bytes).
    Removing stm32f10x_rcc.o(i.RCC_ClockSecuritySystemCmd), (12 bytes).
    Removing stm32f10x_rcc.o(i.RCC_DeInit), (76 bytes).
    Removing stm32f10x_rcc.o(i.RCC_GetFlagStatus), (60 bytes).
    Removing stm32f10x_rcc.o(i.RCC_GetITStatus), (24 bytes).
    Removing stm32f10x_rcc.o(i.RCC_GetSYSCLKSource), (16 bytes).
    Removing stm32f10x_rcc.o(i.RCC_HCLKConfig), (24 bytes).
    Removing stm32f10x_rcc.o(i.RCC_HSEConfig), (76 bytes).
    Removing stm32f10x_rcc.o(i.RCC_HSICmd), (12 bytes).
    Removing stm32f10x_rcc.o(i.RCC_ITConfig), (32 bytes).
    Removing stm32f10x_rcc.o(i.RCC_LSEConfig), (52 bytes).
    Removing stm32f10x_rcc.o(i.RCC_LSICmd), (12 bytes).
    Removing stm32f10x_rcc.o(i.RCC_MCOConfig), (12 bytes).
    Removing stm32f10x_rcc.o(i.RCC_PCLK1Config), (24 bytes).
    Removing stm32f10x_rcc.o(i.RCC_PCLK2Config), (24 bytes).
    Removing stm32f10x_rcc.o(i.RCC_PLLCmd), (12 bytes).
    Removing stm32f10x_rcc.o(i.RCC_PLLConfig), (28 bytes).
    Removing stm32f10x_rcc.o(i.RCC_RTCCLKCmd), (12 bytes).
    Removing stm32f10x_rcc.o(i.RCC_RTCCLKConfig), (16 bytes).
    Removing stm32f10x_rcc.o(i.RCC_SYSCLKConfig), (24 bytes).
    Removing stm32f10x_rcc.o(i.RCC_USBCLKConfig), (12 bytes).
    Removing stm32f10x_rcc.o(i.RCC_WaitForHSEStartUp), (56 bytes).
    Removing stm32f10x_usart.o(i.USART_ClockInit), (34 bytes).
    Removing stm32f10x_usart.o(i.USART_ClockStructInit), (12 bytes).
    Removing stm32f10x_usart.o(i.USART_DeInit), (156 bytes).
    Removing stm32f10x_usart.o(i.USART_HalfDuplexCmd), (24 bytes).
    Removing stm32f10x_usart.o(i.USART_IrDACmd), (24 bytes).
    Removing stm32f10x_usart.o(i.USART_IrDAConfig), (18 bytes).
    Removing stm32f10x_usart.o(i.USART_LINBreakDetectLengthConfig), (18 bytes).
    Removing stm32f10x_usart.o(i.USART_LINCmd), (24 bytes).
    Removing stm32f10x_usart.o(i.USART_OneBitMethodCmd), (24 bytes).
    Removing stm32f10x_usart.o(i.USART_OverSampling8Cmd), (22 bytes).
    Removing stm32f10x_usart.o(i.USART_ReceiverWakeUpCmd), (24 bytes).
    Removing stm32f10x_usart.o(i.USART_SendBreak), (10 bytes).
    Removing stm32f10x_usart.o(i.USART_SetAddress), (18 bytes).
    Removing stm32f10x_usart.o(i.USART_SetGuardTime), (16 bytes).
    Removing stm32f10x_usart.o(i.USART_SetPrescaler), (16 bytes).
    Removing stm32f10x_usart.o(i.USART_SmartCardCmd), (24 bytes).
    Removing stm32f10x_usart.o(i.USART_SmartCardNACKCmd), (24 bytes).
    Removing stm32f10x_usart.o(i.USART_StructInit), (24 bytes).
    Removing stm32f10x_usart.o(i.USART_WakeUpConfig), (18 bytes).
    Removing stm32f10x_spi.o(i.I2S_Cmd), (24 bytes).
    Removing stm32f10x_spi.o(i.I2S_Init), (232 bytes).
    Removing stm32f10x_spi.o(i.I2S_StructInit), (20 bytes).
    Removing stm32f10x_spi.o(i.SPI_BiDirectionalLineConfig), (28 bytes).
    Removing stm32f10x_spi.o(i.SPI_CalculateCRC), (24 bytes).
    Removing stm32f10x_spi.o(i.SPI_DataSizeConfig), (18 bytes).
    Removing stm32f10x_spi.o(i.SPI_GetCRC), (16 bytes).
    Removing stm32f10x_spi.o(i.SPI_GetCRCPolynomial), (6 bytes).
    Removing stm32f10x_spi.o(i.SPI_I2S_ClearFlag), (6 bytes).
    Removing stm32f10x_spi.o(i.SPI_I2S_ClearITPendingBit), (20 bytes).
    Removing stm32f10x_spi.o(i.SPI_I2S_DMACmd), (18 bytes).
    Removing stm32f10x_spi.o(i.SPI_I2S_DeInit), (88 bytes).
    Removing stm32f10x_spi.o(i.SPI_I2S_GetITStatus), (52 bytes).
    Removing stm32f10x_spi.o(i.SPI_I2S_ITConfig), (32 bytes).
    Removing stm32f10x_spi.o(i.SPI_NSSInternalSoftwareConfig), (30 bytes).
    Removing stm32f10x_spi.o(i.SPI_SSOutputCmd), (24 bytes).
    Removing stm32f10x_spi.o(i.SPI_StructInit), (24 bytes).
    Removing stm32f10x_spi.o(i.SPI_TransmitCRC), (10 bytes).
    Removing stm32f10x_can.o(i.CAN_CancelTransmit), (48 bytes).
    Removing stm32f10x_can.o(i.CAN_ClearFlag), (56 bytes).
    Removing stm32f10x_can.o(i.CAN_ClearITPendingBit), (168 bytes).
    Removing stm32f10x_can.o(i.CAN_DBGFreeze), (22 bytes).
    Removing stm32f10x_can.o(i.CAN_FIFORelease), (22 bytes).
    Removing stm32f10x_can.o(i.CAN_GetFlagStatus), (120 bytes).
    Removing stm32f10x_can.o(i.CAN_GetITStatus), (288 bytes).
    Removing stm32f10x_can.o(i.CAN_GetLSBTransmitErrorCounter), (12 bytes).
    Removing stm32f10x_can.o(i.CAN_GetLastErrorCode), (12 bytes).
    Removing stm32f10x_can.o(i.CAN_GetReceiveErrorCounter), (10 bytes).
    Removing stm32f10x_can.o(i.CAN_OperatingModeRequest), (162 bytes).
    Removing stm32f10x_can.o(i.CAN_SlaveStartBank), (52 bytes).
    Removing stm32f10x_can.o(i.CAN_Sleep), (30 bytes).
    Removing stm32f10x_can.o(i.CAN_TTComModeCmd), (118 bytes).
    Removing stm32f10x_can.o(i.CAN_TransmitStatus), (160 bytes).
    Removing stm32f10x_can.o(i.CAN_WakeUp), (48 bytes).
    Removing stm32f10x_can.o(i.CheckITStatus), (18 bytes).
    Removing system_stm32f10x.o(i.SystemCoreClockUpdate), (164 bytes).
    Removing system_stm32f10x.o(.data), (20 bytes).
    Removing spiflash.o(i.SPIFlashChipErase), (18 bytes).
    Removing spiflash.o(i.SPIFlashErase64K), (22 bytes).
    Removing spiflash.o(i.SPIFlashLibVersion), (24 bytes).
    Removing spiflashdev.o(i.FlashBlockErase_64KByte), (64 bytes).
    Removing spiflashdev.o(i.SST25V_ChipErase), (40 bytes).

165 unused section(s) (total 7023 bytes) removed from the image.

==============================================================================

Image Symbol Table

    Local Symbols

    Symbol Name                              Value     Ov Type        Size  Object(Section)

    ../clib/angel/boardlib.s                 0x00000000   Number         0  boardinit1.o ABSOLUTE
    ../clib/angel/boardlib.s                 0x00000000   Number         0  boardinit2.o ABSOLUTE
    ../clib/angel/boardlib.s                 0x00000000   Number         0  boardshut.o ABSOLUTE
    ../clib/angel/boardlib.s                 0x00000000   Number         0  boardinit3.o ABSOLUTE
    ../clib/angel/dczerorl2.s                0x00000000   Number         0  __dczerorl2.o ABSOLUTE
    ../clib/angel/handlers.s                 0x00000000   Number         0  __scatter_zi.o ABSOLUTE
    ../clib/angel/kernel.s                   0x00000000   Number         0  rtexit2.o ABSOLUTE
    ../clib/angel/kernel.s                   0x00000000   Number         0  __rtentry.o ABSOLUTE
    ../clib/angel/kernel.s                   0x00000000   Number         0  __rtentry4.o ABSOLUTE
    ../clib/angel/kernel.s                   0x00000000   Number         0  rtexit.o ABSOLUTE
    ../clib/angel/kernel.s                   0x00000000   Number         0  __rtentry2.o ABSOLUTE
    ../clib/angel/rt.s                       0x00000000   Number         0  rt_heap_descriptor.o ABSOLUTE
    ../clib/angel/rt.s                       0x00000000   Number         0  rt_locale.o ABSOLUTE
    ../clib/angel/rt.s                       0x00000000   Number         0  rt_heap_descriptor_intlibspace.o ABSOLUTE
    ../clib/angel/rt.s                       0x00000000   Number         0  rt_ctype_table.o ABSOLUTE
    ../clib/angel/rt.s                       0x00000000   Number         0  rt_locale_intlibspace.o ABSOLUTE
    ../clib/angel/rt.s                       0x00000000   Number         0  rt_errno_addr_intlibspace.o ABSOLUTE
    ../clib/angel/rt.s                       0x00000000   Number         0  rt_raise.o ABSOLUTE
    ../clib/angel/rt.s                       0x00000000   Number         0  rt_errno_addr.o ABSOLUTE
    ../clib/angel/scatter.s                  0x00000000   Number         0  __scatter.o ABSOLUTE
    ../clib/angel/startup.s                  0x00000000   Number         0  __main.o ABSOLUTE
    ../clib/angel/sys.s                      0x00000000   Number         0  mutex_dummy.o ABSOLUTE
    ../clib/angel/sys.s                      0x00000000   Number         0  libspace.o ABSOLUTE
    ../clib/angel/sys.s                      0x00000000   Number         0  use_no_semi.o ABSOLUTE
    ../clib/angel/sys.s                      0x00000000   Number         0  indicate_semi.o ABSOLUTE
    ../clib/angel/sys.s                      0x00000000   Number         0  sys_stackheap_outer.o ABSOLUTE
    ../clib/angel/sysapp.c                   0x00000000   Number         0  sys_wrch.o ABSOLUTE
    ../clib/angel/sysapp.c                   0x00000000   Number         0  sys_command.o ABSOLUTE
    ../clib/angel/sysapp.c                   0x00000000   Number         0  sys_exit.o ABSOLUTE
    ../clib/armsys.c                         0x00000000   Number         0  _get_argv.o ABSOLUTE
    ../clib/armsys.c                         0x00000000   Number         0  argv_veneer.o ABSOLUTE
    ../clib/armsys.c                         0x00000000   Number         0  _get_argv_nomalloc.o ABSOLUTE
    ../clib/armsys.c                         0x00000000   Number         0  argv_veneer.o ABSOLUTE
    ../clib/armsys.c                         0x00000000   Number         0  no_argv.o ABSOLUTE
    ../clib/bigflt.c                         0x00000000   Number         0  bigflt0.o ABSOLUTE
    ../clib/btod.s                           0x00000000   Number         0  btod.o ABSOLUTE
    ../clib/heap1.c                          0x00000000   Number         0  h1_free.o ABSOLUTE
    ../clib/heap1.c                          0x00000000   Number         0  h1_init.o ABSOLUTE
    ../clib/heap1.c                          0x00000000   Number         0  h1_final.o ABSOLUTE
    ../clib/heap1.c                          0x00000000   Number         0  h1_extend_mt.o ABSOLUTE
    ../clib/heap1.c                          0x00000000   Number         0  h1_extend.o ABSOLUTE
    ../clib/heap1.c                          0x00000000   Number         0  h1_final_mt.o ABSOLUTE
    ../clib/heap1.c                          0x00000000   Number         0  h1_free_mt.o ABSOLUTE
    ../clib/heap1.c                          0x00000000   Number         0  h1_init_mt.o ABSOLUTE
    ../clib/heap1.c                          0x00000000   Number         0  h1_alloc.o ABSOLUTE
    ../clib/heap1.c                          0x00000000   Number         0  h1_alloc_mt.o ABSOLUTE
    ../clib/heap2.c                          0x00000000   Number         0  fdtree.o ABSOLUTE
    ../clib/heap2.c                          0x00000000   Number         0  heap2.o ABSOLUTE
    ../clib/heap2.c                          0x00000000   Number         0  heap2mt.o ABSOLUTE
    ../clib/heapalloc.c                      0x00000000   Number         0  maybetermalloc2.o ABSOLUTE
    ../clib/heapalloc.c                      0x00000000   Number         0  maybetermalloc1.o ABSOLUTE
    ../clib/heapalloc.c                      0x00000000   Number         0  maybetermalloc1.o ABSOLUTE
    ../clib/heapalloc.c                      0x00000000   Number         0  hrguard.o ABSOLUTE
    ../clib/heapalloc.c                      0x00000000   Number         0  malloc.o ABSOLUTE
    ../clib/heapalloc.c                      0x00000000   Number         0  init_alloc.o ABSOLUTE
    ../clib/heapalloc.c                      0x00000000   Number         0  free.o ABSOLUTE
    ../clib/heapalloc.c                      0x00000000   Number         0  heapstubs.o ABSOLUTE
    ../clib/heapalloc.c                      0x00000000   Number         0  term_alloc.o ABSOLUTE
    ../clib/heapalloc.c                      0x00000000   Number         0  maybetermalloc2.o ABSOLUTE
    ../clib/heapalloc.c                      0x00000000   Number         0  hguard.o ABSOLUTE
    ../clib/heapaux.c                        0x00000000   Number         0  heapauxi.o ABSOLUTE
    ../clib/heapaux.c                        0x00000000   Number         0  heapauxa.o ABSOLUTE
    ../clib/libinit.s                        0x00000000   Number         0  libshutdown.o ABSOLUTE
    ../clib/libinit.s                        0x00000000   Number         0  libinit.o ABSOLUTE
    ../clib/libinit.s                        0x00000000   Number         0  libshutdown2.o ABSOLUTE
    ../clib/libinit.s                        0x00000000   Number         0  libinit2.o ABSOLUTE
    ../clib/locale.c                         0x00000000   Number         0  _wcrtomb.o ABSOLUTE
    ../clib/locale.s                         0x00000000   Number         0  lc_numeric_c.o ABSOLUTE
    ../clib/locale.s                         0x00000000   Number         0  lc_ctype_c.o ABSOLUTE
    ../clib/longlong.s                       0x00000000   Number         0  lludiv10.o ABSOLUTE
    ../clib/memcpset.s                       0x00000000   Number         0  strncpy.o ABSOLUTE
    ../clib/memcpset.s                       0x00000000   Number         0  rt_memclr_w.o ABSOLUTE
    ../clib/memcpset.s                       0x00000000   Number         0  rt_memclr.o ABSOLUTE
    ../clib/memcpset.s                       0x00000000   Number         0  aeabi_memset.o ABSOLUTE
    ../clib/memcpset.s                       0x00000000   Number         0  strcmpv7m.o ABSOLUTE
    ../clib/memcpset.s                       0x00000000   Number         0  rt_memcpy_w.o ABSOLUTE
    ../clib/memcpset.s                       0x00000000   Number         0  rt_memcpy_v6.o ABSOLUTE
    ../clib/misc.s                           0x00000000   Number         0  printf_stubs.o ABSOLUTE
    ../clib/printf.c                         0x00000000   Number         0  _printf_fp_dec.o ABSOLUTE
    ../clib/printf.c                         0x00000000   Number         0  _printf_char_common.o ABSOLUTE
    ../clib/printf.c                         0x00000000   Number         0  _sputc.o ABSOLUTE
    ../clib/printf.c                         0x00000000   Number         0  _snputc.o ABSOLUTE
    ../clib/printf.c                         0x00000000   Number         0  _printf_char.o ABSOLUTE
    ../clib/printf.c                         0x00000000   Number         0  _printf_wctomb.o ABSOLUTE
    ../clib/printf.c                         0x00000000   Number         0  _printf_longlong_dec.o ABSOLUTE
    ../clib/printf.c                         0x00000000   Number         0  _printf_oct_ll.o ABSOLUTE
    ../clib/printf.c                         0x00000000   Number         0  _printf_intcommon.o ABSOLUTE
    ../clib/printf.c                         0x00000000   Number         0  _printf_oct_int.o ABSOLUTE
    ../clib/printf.c                         0x00000000   Number         0  _printf_oct_int_ll.o ABSOLUTE
    ../clib/printf.c                         0x00000000   Number         0  _printf_wchar.o ABSOLUTE
    ../clib/printf.c                         0x00000000   Number         0  __printf_nopercent.o ABSOLUTE
    ../clib/printf.c                         0x00000000   Number         0  _printf_fp_infnan.o ABSOLUTE
    ../clib/printf.c                         0x00000000   Number         0  __printf_flags_wp.o ABSOLUTE
    ../clib/printf.c                         0x00000000   Number         0  __printf_flags_ss_wp.o ABSOLUTE
    ../clib/printf.c                         0x00000000   Number         0  __printf_ss_wp.o ABSOLUTE
    ../clib/printf.c                         0x00000000   Number         0  __printf_wp.o ABSOLUTE
    ../clib/printf.c                         0x00000000   Number         0  __printf_flags_ss.o ABSOLUTE
    ../clib/printf.c                         0x00000000   Number         0  __printf_ss.o ABSOLUTE
    ../clib/printf.c                         0x00000000   Number         0  __printf_flags.o ABSOLUTE
    ../clib/printf.c                         0x00000000   Number         0  _printf_hex_int_ll_ptr.o ABSOLUTE
    ../clib/printf.c                         0x00000000   Number         0  _printf_hex_ll_ptr.o ABSOLUTE
    ../clib/printf.c                         0x00000000   Number         0  _printf_hex_int_ptr.o ABSOLUTE
    ../clib/printf.c                         0x00000000   Number         0  _printf_hex_ptr.o ABSOLUTE
    ../clib/printf.c                         0x00000000   Number         0  _printf_hex_int_ll.o ABSOLUTE
    ../clib/printf.c                         0x00000000   Number         0  _printf_hex_int.o ABSOLUTE
    ../clib/printf.c                         0x00000000   Number         0  _printf_hex_ll.o ABSOLUTE
    ../clib/printf.c                         0x00000000   Number         0  _printf_dec.o ABSOLUTE
    ../clib/printf.c                         0x00000000   Number         0  _printf_str.o ABSOLUTE
    ../clib/printf.c                         0x00000000   Number         0  _printf_pad.o ABSOLUTE
    ../clib/printf.c                         0x00000000   Number         0  __printf.o ABSOLUTE
    ../clib/printf.c                         0x00000000   Number         0  noretval__2sprintf.o ABSOLUTE
    ../clib/printf.c                         0x00000000   Number         0  __2sprintf.o ABSOLUTE
    ../clib/printf.c                         0x00000000   Number         0  c89vsnprintf.o ABSOLUTE
    ../clib/printf.c                         0x00000000   Number         0  _printf_truncate.o ABSOLUTE
    ../clib/printf.c                         0x00000000   Number         0  _printf_charcount.o ABSOLUTE
    ../clib/printf_percent.s                 0x00000000   Number         0  _printf_p.o ABSOLUTE
    ../clib/printf_percent.s                 0x00000000   Number         0  _printf_llx.o ABSOLUTE
    ../clib/printf_percent.s                 0x00000000   Number         0  _printf_llo.o ABSOLUTE
    ../clib/printf_percent.s                 0x00000000   Number         0  _printf_ls.o ABSOLUTE
    ../clib/printf_percent.s                 0x00000000   Number         0  _printf_o.o ABSOLUTE
    ../clib/printf_percent.s                 0x00000000   Number         0  _printf_n.o ABSOLUTE
    ../clib/printf_percent.s                 0x00000000   Number         0  _printf_lc.o ABSOLUTE
    ../clib/printf_percent.s                 0x00000000   Number         0  _printf_ll.o ABSOLUTE
    ../clib/printf_percent.s                 0x00000000   Number         0  _printf_l.o ABSOLUTE
    ../clib/printf_percent.s                 0x00000000   Number         0  _printf_e.o ABSOLUTE
    ../clib/printf_percent.s                 0x00000000   Number         0  _printf_llu.o ABSOLUTE
    ../clib/printf_percent.s                 0x00000000   Number         0  _printf_lli.o ABSOLUTE
    ../clib/printf_percent.s                 0x00000000   Number         0  _printf_a.o ABSOLUTE
    ../clib/printf_percent.s                 0x00000000   Number         0  _printf_c.o ABSOLUTE
    ../clib/printf_percent.s                 0x00000000   Number         0  _printf_i.o ABSOLUTE
    ../clib/printf_percent.s                 0x00000000   Number         0  _printf_g.o ABSOLUTE
    ../clib/printf_percent.s                 0x00000000   Number         0  _printf_u.o ABSOLUTE
    ../clib/printf_percent.s                 0x00000000   Number         0  _printf_percent_end.o ABSOLUTE
    ../clib/printf_percent.s                 0x00000000   Number         0  _printf_d.o ABSOLUTE
    ../clib/printf_percent.s                 0x00000000   Number         0  _printf_x.o ABSOLUTE
    ../clib/printf_percent.s                 0x00000000   Number         0  _printf_f.o ABSOLUTE
    ../clib/printf_percent.s                 0x00000000   Number         0  _printf_percent.o ABSOLUTE
    ../clib/printf_percent.s                 0x00000000   Number         0  _printf_lld.o ABSOLUTE
    ../clib/printf_percent.s                 0x00000000   Number         0  _printf_s.o ABSOLUTE
    ../clib/scanf.c                          0x00000000   Number         0  strtol.o ABSOLUTE
    ../clib/scanf.c                          0x00000000   Number         0  _chval.o ABSOLUTE
    ../clib/scanf.c                          0x00000000   Number         0  _strtoul.o ABSOLUTE
    ../clib/scanf.c                          0x00000000   Number         0  atoi.o ABSOLUTE
    ../clib/signal.c                         0x00000000   Number         0  defsig_rtmem_outer.o ABSOLUTE
    ../clib/signal.c                         0x00000000   Number         0  defsig_rtmem_formal.o ABSOLUTE
    ../clib/signal.c                         0x00000000   Number         0  defsig_cppl_inner.o ABSOLUTE
    ../clib/signal.c                         0x00000000   Number         0  defsig_segv_inner.o ABSOLUTE
    ../clib/signal.c                         0x00000000   Number         0  defsig_exit.o ABSOLUTE
    ../clib/signal.c                         0x00000000   Number         0  defsig_rtred_inner.o ABSOLUTE
    ../clib/signal.c                         0x00000000   Number         0  defsig_fpe_inner.o ABSOLUTE
    ../clib/signal.c                         0x00000000   Number         0  defsig_stak_inner.o ABSOLUTE
    ../clib/signal.c                         0x00000000   Number         0  defsig_pvfn_inner.o ABSOLUTE
    ../clib/signal.c                         0x00000000   Number         0  defsig_rtmem_inner.o ABSOLUTE
    ../clib/signal.c                         0x00000000   Number         0  __raise.o ABSOLUTE
    ../clib/signal.c                         0x00000000   Number         0  defsig_other.o ABSOLUTE
    ../clib/signal.c                         0x00000000   Number         0  defsig_general.o ABSOLUTE
    ../clib/signal.c                         0x00000000   Number         0  defsig_abrt_inner.o ABSOLUTE
    ../clib/signal.s                         0x00000000   Number         0  defsig.o ABSOLUTE
    ../clib/stdlib.c                         0x00000000   Number         0  exit.o ABSOLUTE
    ../clib/string.c                         0x00000000   Number         0  memcmp.o ABSOLUTE
    ../clib/string.c                         0x00000000   Number         0  strtok.o ABSOLUTE
    ../clib/string.c                         0x00000000   Number         0  strlen.o ABSOLUTE
    ../clib/string.c                         0x00000000   Number         0  strcspn.o ABSOLUTE
    ../clib/string.c                         0x00000000   Number         0  strspn.o ABSOLUTE
    ../clib/string.c                         0x00000000   Number         0  strncmp.o ABSOLUTE
    ../clib/string.c                         0x00000000   Number         0  strtok_int.o ABSOLUTE
    ../clib/string.c                         0x00000000   Number         0  strcpy.o ABSOLUTE
    ../fplib/daddsub.s                       0x00000000   Number         0  daddsub_clz.o ABSOLUTE
    ../fplib/ddiv.s                          0x00000000   Number         0  ddiv.o ABSOLUTE
    ../fplib/dfixu.s                         0x00000000   Number         0  dfixu.o ABSOLUTE
    ../fplib/dflt.s                          0x00000000   Number         0  dflt_clz.o ABSOLUTE
    ../fplib/dmul.s                          0x00000000   Number         0  dmul.o ABSOLUTE
    ../fplib/dnaninf.s                       0x00000000   Number         0  dnaninf.o ABSOLUTE
    ../fplib/dretinf.s                       0x00000000   Number         0  dretinf.o ABSOLUTE
    ../fplib/f2d.s                           0x00000000   Number         0  f2d.o ABSOLUTE
    ../fplib/fdiv.s                          0x00000000   Number         0  fdiv.o ABSOLUTE
    ../fplib/fflt.s                          0x00000000   Number         0  fflt_clz.o ABSOLUTE
    ../fplib/fmul.s                          0x00000000   Number         0  fmul.o ABSOLUTE
    ../fplib/fnaninf.s                       0x00000000   Number         0  fnaninf.o ABSOLUTE
    ../fplib/fpinit.s                        0x00000000   Number         0  fpinit.o ABSOLUTE
    ../fplib/fretinf.s                       0x00000000   Number         0  fretinf.o ABSOLUTE
    ../fplib/istatus.s                       0x00000000   Number         0  istatus.o ABSOLUTE
    ../fplib/printf1.s                       0x00000000   Number         0  printf1.o ABSOLUTE
    ../fplib/usenofp.s                       0x00000000   Number         0  usenofp.o ABSOLUTE
    ../mathlib/fpclassify.c                  0x00000000   Number         0  fpclassify.o ABSOLUTE
    ..\App\AppLayer\App_AlarmEvent.c         0x00000000   Number         0  app_alarmevent.o ABSOLUTE
    ..\App\AppLayer\App_Debug.c              0x00000000   Number         0  app_debug.o ABSOLUTE
    ..\App\AppLayer\App_DtuCfg.c             0x00000000   Number         0  app_dtucfg.o ABSOLUTE
    ..\App\AppLayer\App_MultFun.c            0x00000000   Number         0  app_multfun.o ABSOLUTE
    ..\App\AppLayer\App_Para.c               0x00000000   Number         0  app_para.o ABSOLUTE
    ..\App\AppLayer\App_Protocol.c           0x00000000   Number         0  app_protocol.o ABSOLUTE
    ..\App\AppLayer\App_Upgrade.c            0x00000000   Number         0  app_upgrade.o ABSOLUTE
    ..\App\AppLayer\App_UsrCmd.c             0x00000000   Number         0  app_usrcmd.o ABSOLUTE
    ..\App\AppLayer\App_json.c               0x00000000   Number         0  app_json.o ABSOLUTE
    ..\App\AppLayer\App_led.c                0x00000000   Number         0  app_led.o ABSOLUTE
    ..\App\AppLayer\App_plt.c                0x00000000   Number         0  app_plt.o ABSOLUTE
    ..\App\AppLayer\App_rtc.c                0x00000000   Number         0  app_rtc.o ABSOLUTE
    ..\App\AppLayer\App_vfd.c                0x00000000   Number         0  app_vfd.o ABSOLUTE
    ..\App\AppLayer\Simulation.c             0x00000000   Number         0  simulation.o ABSOLUTE
    ..\App\AppLayer\bsp.c                    0x00000000   Number         0  bsp.o ABSOLUTE
    ..\App\AppLayer\comm.c                   0x00000000   Number         0  comm.o ABSOLUTE
    ..\App\DevLayer\GC65.c                   0x00000000   Number         0  gc65.o ABSOLUTE
    ..\App\DevLayer\GC65_Bsp.c               0x00000000   Number         0  gc65_bsp.o ABSOLUTE
    ..\App\DevLayer\SST25VF_Bsp.c            0x00000000   Number         0  sst25vf_bsp.o ABSOLUTE
    ..\App\DevLayer\SST25VF_flash.c          0x00000000   Number         0  sst25vf_flash.o ABSOLUTE
    ..\App\DevLayer\pipe.c                   0x00000000   Number         0  pipe.o ABSOLUTE
    ..\App\DevLayer\uart.c                   0x00000000   Number         0  uart.o ABSOLUTE
    ..\App\Lib\SPIFlash\SPIFlashHal.c        0x00000000   Number         0  spiflashhal.o ABSOLUTE
    ..\App\Lib\SPIFlash\SPIFlashUsr.c        0x00000000   Number         0  spiflashusr.o ABSOLUTE
    ..\App\main.c                            0x00000000   Number         0  main.o ABSOLUTE
    ..\STM32F10x_StdPeriph_Driver\src\misc.c 0x00000000   Number         0  misc.o ABSOLUTE
    ..\STM32F10x_StdPeriph_Driver\src\stm32f10x_can.c 0x00000000   Number         0  stm32f10x_can.o ABSOLUTE
    ..\STM32F10x_StdPeriph_Driver\src\stm32f10x_dma.c 0x00000000   Number         0  stm32f10x_dma.o ABSOLUTE
    ..\STM32F10x_StdPeriph_Driver\src\stm32f10x_flash.c 0x00000000   Number         0  stm32f10x_flash.o ABSOLUTE
    ..\STM32F10x_StdPeriph_Driver\src\stm32f10x_gpio.c 0x00000000   Number         0  stm32f10x_gpio.o ABSOLUTE
    ..\STM32F10x_StdPeriph_Driver\src\stm32f10x_iwdg.c 0x00000000   Number         0  stm32f10x_iwdg.o ABSOLUTE
    ..\STM32F10x_StdPeriph_Driver\src\stm32f10x_rcc.c 0x00000000   Number         0  stm32f10x_rcc.o ABSOLUTE
    ..\STM32F10x_StdPeriph_Driver\src\stm32f10x_spi.c 0x00000000   Number         0  stm32f10x_spi.o ABSOLUTE
    ..\STM32F10x_StdPeriph_Driver\src\stm32f10x_usart.c 0x00000000   Number         0  stm32f10x_usart.o ABSOLUTE
    ..\STM32F10x_StdPeriph_Driver\stm32f10x_it.c 0x00000000   Number         0  stm32f10x_it.o ABSOLUTE
    RTE\Device\STM32F103RC\startup_stm32f10x_hd.s 0x00000000   Number         0  startup_stm32f10x_hd.o ABSOLUTE
    RTE\Device\STM32F103RC\system_stm32f10x.c 0x00000000   Number         0  system_stm32f10x.o ABSOLUTE
    Src\SPIFlash\SPIFlash.c                  0x00000000   Number         0  spiflash.o ABSOLUTE
    Src\SPIFlash\SPIFlashDev.c               0x00000000   Number         0  spiflashdev.o ABSOLUTE
    Src\crc32\crc32.c                        0x00000000   Number         0  crc32.o ABSOLUTE
    dc.s                                     0x00000000   Number         0  dc.o ABSOLUTE
    RESET                                    0x08000000   Section      304  startup_stm32f10x_hd.o(RESET)
    !!!main                                  0x08000130   Section        8  __main.o(!!!main)
    !!!scatter                               0x08000138   Section       52  __scatter.o(!!!scatter)
    !!dczerorl2                              0x0800016c   Section       90  __dczerorl2.o(!!dczerorl2)
    !!handler_zi                             0x080001c8   Section       28  __scatter_zi.o(!!handler_zi)
    .ARM.Collect$$_printf_percent$$00000000  0x080001e4   Section        0  _printf_percent.o(.ARM.Collect$$_printf_percent$$00000000)
    .ARM.Collect$$_printf_percent$$00000001  0x080001e4   Section        6  _printf_n.o(.ARM.Collect$$_printf_percent$$00000001)
    .ARM.Collect$$_printf_percent$$00000002  0x080001ea   Section        6  _printf_p.o(.ARM.Collect$$_printf_percent$$00000002)
    .ARM.Collect$$_printf_percent$$00000003  0x080001f0   Section        6  _printf_f.o(.ARM.Collect$$_printf_percent$$00000003)
    .ARM.Collect$$_printf_percent$$00000004  0x080001f6   Section        6  _printf_e.o(.ARM.Collect$$_printf_percent$$00000004)
    .ARM.Collect$$_printf_percent$$00000005  0x080001fc   Section        6  _printf_g.o(.ARM.Collect$$_printf_percent$$00000005)
    .ARM.Collect$$_printf_percent$$00000006  0x08000202   Section        6  _printf_a.o(.ARM.Collect$$_printf_percent$$00000006)
    .ARM.Collect$$_printf_percent$$00000007  0x08000208   Section       10  _printf_ll.o(.ARM.Collect$$_printf_percent$$00000007)
    .ARM.Collect$$_printf_percent$$00000008  0x08000212   Section        6  _printf_i.o(.ARM.Collect$$_printf_percent$$00000008)
    .ARM.Collect$$_printf_percent$$00000009  0x08000218   Section        6  _printf_d.o(.ARM.Collect$$_printf_percent$$00000009)
    .ARM.Collect$$_printf_percent$$0000000A  0x0800021e   Section        6  _printf_u.o(.ARM.Collect$$_printf_percent$$0000000A)
    .ARM.Collect$$_printf_percent$$0000000B  0x08000224   Section        6  _printf_o.o(.ARM.Collect$$_printf_percent$$0000000B)
    .ARM.Collect$$_printf_percent$$0000000C  0x0800022a   Section        6  _printf_x.o(.ARM.Collect$$_printf_percent$$0000000C)
    .ARM.Collect$$_printf_percent$$0000000D  0x08000230   Section        6  _printf_lli.o(.ARM.Collect$$_printf_percent$$0000000D)
    .ARM.Collect$$_printf_percent$$0000000E  0x08000236   Section        6  _printf_lld.o(.ARM.Collect$$_printf_percent$$0000000E)
    .ARM.Collect$$_printf_percent$$0000000F  0x0800023c   Section        6  _printf_llu.o(.ARM.Collect$$_printf_percent$$0000000F)
    .ARM.Collect$$_printf_percent$$00000010  0x08000242   Section        6  _printf_llo.o(.ARM.Collect$$_printf_percent$$00000010)
    .ARM.Collect$$_printf_percent$$00000011  0x08000248   Section        6  _printf_llx.o(.ARM.Collect$$_printf_percent$$00000011)
    .ARM.Collect$$_printf_percent$$00000012  0x0800024e   Section       10  _printf_l.o(.ARM.Collect$$_printf_percent$$00000012)
    .ARM.Collect$$_printf_percent$$00000013  0x08000258   Section        6  _printf_c.o(.ARM.Collect$$_printf_percent$$00000013)
    .ARM.Collect$$_printf_percent$$00000014  0x0800025e   Section        6  _printf_s.o(.ARM.Collect$$_printf_percent$$00000014)
    .ARM.Collect$$_printf_percent$$00000015  0x08000264   Section        6  _printf_lc.o(.ARM.Collect$$_printf_percent$$00000015)
    .ARM.Collect$$_printf_percent$$00000016  0x0800026a   Section        6  _printf_ls.o(.ARM.Collect$$_printf_percent$$00000016)
    .ARM.Collect$$_printf_percent$$00000017  0x08000270   Section        4  _printf_percent_end.o(.ARM.Collect$$_printf_percent$$00000017)
    .ARM.Collect$$libinit$$00000000          0x08000274   Section        2  libinit.o(.ARM.Collect$$libinit$$00000000)
    .ARM.Collect$$libinit$$00000002          0x08000276   Section        0  libinit2.o(.ARM.Collect$$libinit$$00000002)
    .ARM.Collect$$libinit$$00000004          0x08000276   Section        0  libinit2.o(.ARM.Collect$$libinit$$00000004)
    .ARM.Collect$$libinit$$00000005          0x08000276   Section        8  libinit2.o(.ARM.Collect$$libinit$$00000005)
    .ARM.Collect$$libinit$$0000000A          0x0800027e   Section        0  libinit2.o(.ARM.Collect$$libinit$$0000000A)
    .ARM.Collect$$libinit$$0000000C          0x0800027e   Section        0  libinit2.o(.ARM.Collect$$libinit$$0000000C)
    .ARM.Collect$$libinit$$0000000E          0x0800027e   Section        0  libinit2.o(.ARM.Collect$$libinit$$0000000E)
    .ARM.Collect$$libinit$$0000000F          0x0800027e   Section        6  libinit2.o(.ARM.Collect$$libinit$$0000000F)
    .ARM.Collect$$libinit$$00000011          0x08000284   Section        0  libinit2.o(.ARM.Collect$$libinit$$00000011)
    .ARM.Collect$$libinit$$00000012          0x08000284   Section       12  libinit2.o(.ARM.Collect$$libinit$$00000012)
    .ARM.Collect$$libinit$$00000013          0x08000290   Section        0  libinit2.o(.ARM.Collect$$libinit$$00000013)
    .ARM.Collect$$libinit$$00000015          0x08000290   Section        0  libinit2.o(.ARM.Collect$$libinit$$00000015)
    .ARM.Collect$$libinit$$00000016          0x08000290   Section       10  libinit2.o(.ARM.Collect$$libinit$$00000016)
    .ARM.Collect$$libinit$$00000017          0x0800029a   Section        0  libinit2.o(.ARM.Collect$$libinit$$00000017)
    .ARM.Collect$$libinit$$00000019          0x0800029a   Section        0  libinit2.o(.ARM.Collect$$libinit$$00000019)
    .ARM.Collect$$libinit$$0000001B          0x0800029a   Section        0  libinit2.o(.ARM.Collect$$libinit$$0000001B)
    .ARM.Collect$$libinit$$0000001D          0x0800029a   Section        0  libinit2.o(.ARM.Collect$$libinit$$0000001D)
    .ARM.Collect$$libinit$$0000001F          0x0800029a   Section        0  libinit2.o(.ARM.Collect$$libinit$$0000001F)
    .ARM.Collect$$libinit$$00000021          0x0800029a   Section        0  libinit2.o(.ARM.Collect$$libinit$$00000021)
    .ARM.Collect$$libinit$$00000023          0x0800029a   Section        0  libinit2.o(.ARM.Collect$$libinit$$00000023)
    .ARM.Collect$$libinit$$00000025          0x0800029a   Section        0  libinit2.o(.ARM.Collect$$libinit$$00000025)
    .ARM.Collect$$libinit$$0000002C          0x0800029a   Section        0  libinit2.o(.ARM.Collect$$libinit$$0000002C)
    .ARM.Collect$$libinit$$0000002E          0x0800029a   Section        0  libinit2.o(.ARM.Collect$$libinit$$0000002E)
    .ARM.Collect$$libinit$$00000030          0x0800029a   Section        0  libinit2.o(.ARM.Collect$$libinit$$00000030)
    .ARM.Collect$$libinit$$00000032          0x0800029a   Section        0  libinit2.o(.ARM.Collect$$libinit$$00000032)
    .ARM.Collect$$libinit$$00000033          0x0800029a   Section        2  libinit2.o(.ARM.Collect$$libinit$$00000033)
    .ARM.Collect$$libshutdown$$00000000      0x0800029c   Section        2  libshutdown.o(.ARM.Collect$$libshutdown$$00000000)
    .ARM.Collect$$libshutdown$$00000003      0x0800029e   Section        0  libshutdown2.o(.ARM.Collect$$libshutdown$$00000003)
    .ARM.Collect$$libshutdown$$00000006      0x0800029e   Section        0  libshutdown2.o(.ARM.Collect$$libshutdown$$00000006)
    .ARM.Collect$$libshutdown$$00000009      0x0800029e   Section        0  libshutdown2.o(.ARM.Collect$$libshutdown$$00000009)
    .ARM.Collect$$libshutdown$$0000000B      0x0800029e   Section        0  libshutdown2.o(.ARM.Collect$$libshutdown$$0000000B)
    .ARM.Collect$$libshutdown$$0000000E      0x0800029e   Section        0  libshutdown2.o(.ARM.Collect$$libshutdown$$0000000E)
    .ARM.Collect$$libshutdown$$0000000F      0x0800029e   Section        2  libshutdown2.o(.ARM.Collect$$libshutdown$$0000000F)
    .ARM.Collect$$rtentry$$00000000          0x080002a0   Section        0  __rtentry.o(.ARM.Collect$$rtentry$$00000000)
    .ARM.Collect$$rtentry$$00000002          0x080002a0   Section        0  __rtentry2.o(.ARM.Collect$$rtentry$$00000002)
    .ARM.Collect$$rtentry$$00000004          0x080002a0   Section        6  __rtentry4.o(.ARM.Collect$$rtentry$$00000004)
    .ARM.Collect$$rtentry$$00000009          0x080002a6   Section        0  __rtentry2.o(.ARM.Collect$$rtentry$$00000009)
    .ARM.Collect$$rtentry$$0000000A          0x080002a6   Section        4  __rtentry2.o(.ARM.Collect$$rtentry$$0000000A)
    .ARM.Collect$$rtentry$$0000000C          0x080002aa   Section        0  __rtentry2.o(.ARM.Collect$$rtentry$$0000000C)
    .ARM.Collect$$rtentry$$0000000D          0x080002aa   Section        8  __rtentry2.o(.ARM.Collect$$rtentry$$0000000D)
    .ARM.Collect$$rtexit$$00000000           0x080002b2   Section        2  rtexit.o(.ARM.Collect$$rtexit$$00000000)
    .ARM.Collect$$rtexit$$00000002           0x080002b4   Section        0  rtexit2.o(.ARM.Collect$$rtexit$$00000002)
    .ARM.Collect$$rtexit$$00000003           0x080002b4   Section        4  rtexit2.o(.ARM.Collect$$rtexit$$00000003)
    .ARM.Collect$$rtexit$$00000004           0x080002b8   Section        6  rtexit2.o(.ARM.Collect$$rtexit$$00000004)
    .emb_text                                0x080002c0   Section        0  maybetermalloc1.o(.emb_text)
    .text                                    0x080002c0   Section       64  startup_stm32f10x_hd.o(.text)
    .text                                    0x08000300   Section        0  h1_alloc.o(.text)
    .text                                    0x08000360   Section        0  c89vsnprintf.o(.text)
    .text                                    0x08000394   Section        0  __2sprintf.o(.text)
    .text                                    0x080003c0   Section        0  _printf_pad.o(.text)
    .text                                    0x0800040e   Section        0  _printf_str.o(.text)
    .text                                    0x08000460   Section        0  _printf_dec.o(.text)
    .text                                    0x080004d8   Section        0  _printf_hex_int_ll_ptr.o(.text)
    _printf_hex_common                       0x080004d9   Thumb Code     0  _printf_hex_int_ll_ptr.o(.text)
    .text                                    0x0800056c   Section        0  __printf_flags_ss_wp.o(.text)
    .text                                    0x080006f4   Section        0  atoi.o(.text)
    .text                                    0x08000710   Section        0  strtok.o(.text)
    .text                                    0x0800071c   Section        0  memcmp.o(.text)
    .text                                    0x08000774   Section        0  strcpy.o(.text)
    .text                                    0x080007bc   Section        0  strlen.o(.text)
    .text                                    0x080007fa   Section        0  strncmp.o(.text)
    .text                                    0x08000890   Section      138  rt_memcpy_v6.o(.text)
    .text                                    0x0800091a   Section       16  aeabi_memset.o(.text)
    .text                                    0x0800092a   Section       68  rt_memclr.o(.text)
    .text                                    0x0800096e   Section       78  rt_memclr_w.o(.text)
    .text                                    0x080009bc   Section       86  strncpy.o(.text)
    .text                                    0x08000a14   Section      128  strcmpv7m.o(.text)
    .text                                    0x08000a94   Section        0  heapauxi.o(.text)
    .text                                    0x08000a9c   Section        8  rt_heap_descriptor_intlibspace.o(.text)
    .text                                    0x08000aa4   Section        8  rt_errno_addr_intlibspace.o(.text)
    .text                                    0x08000aac   Section        0  hguard.o(.text)
    .text                                    0x08000ab0   Section        0  init_alloc.o(.text)
    .text                                    0x08000b3a   Section        0  h1_init.o(.text)
    .text                                    0x08000b48   Section        0  h1_free.o(.text)
    .text                                    0x08000b96   Section        0  _printf_truncate.o(.text)
    .text                                    0x08000bba   Section        0  _printf_intcommon.o(.text)
    .text                                    0x08000c6c   Section        0  _printf_charcount.o(.text)
    .text                                    0x08000c94   Section        0  _printf_fp_dec.o(.text)
    _fp_digits                               0x08000c97   Thumb Code   428  _printf_fp_dec.o(.text)
    .text                                    0x080010b0   Section        0  _printf_char_common.o(.text)
    _printf_input_char                       0x080010b1   Thumb Code    10  _printf_char_common.o(.text)
    .text                                    0x080010e0   Section        0  _sputc.o(.text)
    .text                                    0x080010ea   Section        0  _snputc.o(.text)
    .text                                    0x080010fa   Section        0  _printf_char.o(.text)
    .text                                    0x08001128   Section        0  _printf_wctomb.o(.text)
    .text                                    0x080011e4   Section        0  _printf_longlong_dec.o(.text)
    .text                                    0x08001260   Section        0  _printf_oct_int_ll.o(.text)
    _printf_longlong_oct_internal            0x08001261   Thumb Code     0  _printf_oct_int_ll.o(.text)
    .text                                    0x080012d0   Section        0  strtol.o(.text)
    .text                                    0x08001340   Section        0  strtok_int.o(.text)
    .text                                    0x08001384   Section      100  rt_memcpy_w.o(.text)
    .text                                    0x080013e8   Section        8  libspace.o(.text)
    .text                                    0x080013f0   Section       16  rt_ctype_table.o(.text)
    .text                                    0x08001400   Section        8  rt_locale_intlibspace.o(.text)
    .text                                    0x08001408   Section        0  h1_extend.o(.text)
    .text                                    0x0800143c   Section      138  lludiv10.o(.text)
    .text                                    0x080014c8   Section        0  _printf_fp_infnan.o(.text)
    .text                                    0x08001548   Section        0  _printf_wchar.o(.text)
    .text                                    0x08001574   Section        0  _strtoul.o(.text)
    .text                                    0x08001614   Section        0  bigflt0.o(.text)
    .text                                    0x080016f0   Section        0  _wcrtomb.o(.text)
    .text                                    0x08001730   Section        0  defsig_rtmem_outer.o(.text)
    .text                                    0x0800173e   Section        0  strcspn.o(.text)
    .text                                    0x0800175e   Section        0  strspn.o(.text)
    .text                                    0x0800177a   Section        2  use_no_semi.o(.text)
    .text                                    0x0800177c   Section        0  indicate_semi.o(.text)
    .text                                    0x0800177c   Section       74  sys_stackheap_outer.o(.text)
    .text                                    0x080017c6   Section        0  _chval.o(.text)
    .text                                    0x080017e2   Section        0  exit.o(.text)
    .text                                    0x080017ee   Section        0  defsig_exit.o(.text)
    .text                                    0x080017f8   Section        0  defsig_rtmem_inner.o(.text)
    .text                                    0x08001848   Section        0  sys_exit.o(.text)
    .text                                    0x08001854   Section        0  defsig_general.o(.text)
    .text                                    0x08001886   Section        0  sys_wrch.o(.text)
    CL$$btod_d2e                             0x08001894   Section       62  btod.o(CL$$btod_d2e)
    CL$$btod_d2e_denorm_low                  0x080018d2   Section       70  btod.o(CL$$btod_d2e_denorm_low)
    CL$$btod_d2e_norm_op1                    0x08001918   Section       96  btod.o(CL$$btod_d2e_norm_op1)
    CL$$btod_div_common                      0x08001978   Section      824  btod.o(CL$$btod_div_common)
    CL$$btod_e2e                             0x08001cb0   Section      198  btod.o(CL$$btod_e2e)
    CL$$btod_ediv                            0x08001d76   Section       40  btod.o(CL$$btod_ediv)
    CL$$btod_emul                            0x08001d9e   Section       40  btod.o(CL$$btod_emul)
    CL$$btod_mult_common                     0x08001dc6   Section      580  btod.o(CL$$btod_mult_common)
    i.ASCIIToHex                             0x0800200a   Section        0  comm.o(i.ASCIIToHex)
    i.ATCmdCnntSvr                           0x08002040   Section        0  gc65.o(i.ATCmdCnntSvr)
    ATCmdCnntSvr                             0x08002041   Thumb Code    64  gc65.o(i.ATCmdCnntSvr)
    i.ATCmdParse                             0x080020a4   Section        0  gc65.o(i.ATCmdParse)
    i.ATCmdSend                              0x08002cf0   Section        0  gc65.o(i.ATCmdSend)
    ATCmdSend                                0x08002cf1   Thumb Code    52  gc65.o(i.ATCmdSend)
    i.ATCmdSetAPN                            0x08002d30   Section        0  gc65.o(i.ATCmdSetAPN)
    i.ATstrToInt32U                          0x08002d74   Section        0  gc65.o(i.ATstrToInt32U)
    i.AckPacket                              0x08002db2   Section        0  app_protocol.o(i.AckPacket)
    i.AlarmEventDeal                         0x08002e0c   Section        0  app_alarmevent.o(i.AlarmEventDeal)
    i.AlarmEventInit                         0x0800308c   Section        0  app_alarmevent.o(i.AlarmEventInit)
    i.AlarmFilterTimeOver                    0x08003200   Section        0  app_alarmevent.o(i.AlarmFilterTimeOver)
    AlarmFilterTimeOver                      0x08003201   Thumb Code   130  app_alarmevent.o(i.AlarmFilterTimeOver)
    i.AlarmFilterTimer                       0x08003284   Section        0  app_alarmevent.o(i.AlarmFilterTimer)
    i.Alarm_Filter_Deal                      0x080032ac   Section        0  app_alarmevent.o(i.Alarm_Filter_Deal)
    i.AppDebugInit                           0x080032fc   Section        0  app_debug.o(i.AppDebugInit)
    i.BigEndConvert                          0x08003334   Section        0  app_dtucfg.o(i.BigEndConvert)
    i.BufExchange                            0x0800336a   Section        0  comm.o(i.BufExchange)
    i.BusFault_Handler                       0x08003386   Section        0  stm32f10x_it.o(i.BusFault_Handler)
    i.CAN_DeInit                             0x0800338c   Section        0  stm32f10x_can.o(i.CAN_DeInit)
    i.CAN_FilterInit                         0x080033c4   Section        0  stm32f10x_can.o(i.CAN_FilterInit)
    i.CAN_ITConfig                           0x080034cc   Section        0  stm32f10x_can.o(i.CAN_ITConfig)
    i.CAN_Init                               0x080034de   Section        0  stm32f10x_can.o(i.CAN_Init)
    i.CAN_MessagePending                     0x080035f2   Section        0  stm32f10x_can.o(i.CAN_MessagePending)
    i.CAN_Receive                            0x08003610   Section        0  stm32f10x_can.o(i.CAN_Receive)
    i.CAN_StructInit                         0x08003700   Section        0  stm32f10x_can.o(i.CAN_StructInit)
    i.CAN_Transmit                           0x08003720   Section        0  stm32f10x_can.o(i.CAN_Transmit)
    i.CRC16_1                                0x08003848   Section        0  comm.o(i.CRC16_1)
    i.CRC32Calc                              0x08003880   Section        0  crc32.o(i.CRC32Calc)
    i.CRC32CalcReset                         0x080038b4   Section        0  crc32.o(i.CRC32CalcReset)
    i.CanBus_ISR_Rx                          0x080038c4   Section        0  app_vfd.o(i.CanBus_ISR_Rx)
    i.Can_Config                             0x080038ec   Section        0  bsp.o(i.Can_Config)
    i.CharConvert                            0x08003988   Section        0  comm.o(i.CharConvert)
    i.ChgVfdAddr                             0x08003998   Section        0  app_vfd.o(i.ChgVfdAddr)
    i.ClearHeartTimer                        0x0800399c   Section        0  app_protocol.o(i.ClearHeartTimer)
    i.ConverseTimeNum                        0x080039ac   Section        0  app_rtc.o(i.ConverseTimeNum)
    i.DMA1_Channel6_IRQHandler               0x08003a2c   Section        0  gc65_bsp.o(i.DMA1_Channel6_IRQHandler)
    i.DMA1_Channel7_IRQHandler               0x08003a70   Section        0  stm32f10x_it.o(i.DMA1_Channel7_IRQHandler)
    i.DMA_ClearFlag                          0x08003aa4   Section        0  stm32f10x_dma.o(i.DMA_ClearFlag)
    i.DMA_Cmd                                0x08003ac0   Section        0  stm32f10x_dma.o(i.DMA_Cmd)
    i.DMA_DeInit                             0x08003ad8   Section        0  stm32f10x_dma.o(i.DMA_DeInit)
    i.DMA_GetFlagStatus                      0x08003c24   Section        0  stm32f10x_dma.o(i.DMA_GetFlagStatus)
    i.DMA_ITConfig                           0x08003c50   Section        0  stm32f10x_dma.o(i.DMA_ITConfig)
    i.DMA_Init                               0x08003c62   Section        0  stm32f10x_dma.o(i.DMA_Init)
    i.DWordToBuf                             0x08003c9e   Section        0  comm.o(i.DWordToBuf)
    i.Debug                                  0x08003cbc   Section        0  app_debug.o(i.Debug)
    Debug                                    0x08003cbd   Thumb Code    66  app_debug.o(i.Debug)
    i.DebugFtpTest                           0x08003d08   Section        0  app_usrcmd.o(i.DebugFtpTest)
    i.DebugMon_Handler                       0x08003d1a   Section        0  stm32f10x_it.o(i.DebugMon_Handler)
    i.DebugMsg                               0x08003d1c   Section        0  app_debug.o(i.DebugMsg)
    i.DebugStrMsg                            0x08003e1c   Section        0  app_debug.o(i.DebugStrMsg)
    i.DebugWithLen                           0x08003e48   Section        0  app_debug.o(i.DebugWithLen)
    DebugWithLen                             0x08003e49   Thumb Code    60  app_debug.o(i.DebugWithLen)
    i.DelayReConnect                         0x08003e8c   Section        0  gc65.o(i.DelayReConnect)
    i.DevFourByteToDWord                     0x08003ebc   Section        0  comm.o(i.DevFourByteToDWord)
    i.DevFourByteToU16                       0x08003ed8   Section        0  comm.o(i.DevFourByteToU16)
    i.DevParaDefault                         0x08003f28   Section        0  app_para.o(i.DevParaDefault)
    i.DevParaRead                            0x0800419c   Section        0  app_para.o(i.DevParaRead)
    DevParaRead                              0x0800419d   Thumb Code   322  app_para.o(i.DevParaRead)
    i.DevParaWrite                           0x08004300   Section        0  app_para.o(i.DevParaWrite)
    i.DevStatToSystem                        0x08004438   Section        0  app_protocol.o(i.DevStatToSystem)
    i.DevTwoByteToWord                       0x08004568   Section        0  comm.o(i.DevTwoByteToWord)
    i.DriveCan_sendData                      0x08004578   Section        0  app_vfd.o(i.DriveCan_sendData)
    i.FLASH_ClearFlag                        0x080045c8   Section        0  stm32f10x_flash.o(i.FLASH_ClearFlag)
    i.FLASH_ErasePage                        0x080045d4   Section        0  stm32f10x_flash.o(i.FLASH_ErasePage)
    i.FLASH_GetBank1Status                   0x08004620   Section        0  stm32f10x_flash.o(i.FLASH_GetBank1Status)
    i.FLASH_Lock                             0x08004654   Section        0  stm32f10x_flash.o(i.FLASH_Lock)
    i.FLASH_ProgramWord                      0x08004668   Section        0  stm32f10x_flash.o(i.FLASH_ProgramWord)
    i.FLASH_Unlock                           0x080046d4   Section        0  stm32f10x_flash.o(i.FLASH_Unlock)
    i.FLASH_WaitForLastOperation             0x080046ec   Section        0  stm32f10x_flash.o(i.FLASH_WaitForLastOperation)
    i.FTPConnectRequestSet                   0x08004714   Section        0  app_upgrade.o(i.FTPConnectRequestSet)
    i.FeedDog                                0x0800472c   Section        0  bsp.o(i.FeedDog)
    i.FieldValOffset                         0x0800472e   Section        0  app_para.o(i.FieldValOffset)
    i.FlashBufferRead                        0x08004748   Section        0  spiflashdev.o(i.FlashBufferRead)
    i.FlashBufferWrite                       0x08004790   Section        0  spiflashdev.o(i.FlashBufferWrite)
    i.FlashHalInit                           0x08004898   Section        0  spiflashhal.o(i.FlashHalInit)
    i.FlashLockCreate                        0x08004968   Section        0  spiflashusr.o(i.FlashLockCreate)
    i.FlashLockPend                          0x0800496a   Section        0  spiflashusr.o(i.FlashLockPend)
    i.FlashLockPost                          0x0800496c   Section        0  spiflashusr.o(i.FlashLockPost)
    i.FlashModelRead                         0x08004970   Section        0  spiflash.o(i.FlashModelRead)
    FlashModelRead                           0x08004971   Thumb Code    82  spiflash.o(i.FlashModelRead)
    i.FlashReadID                            0x080049c8   Section        0  spiflashdev.o(i.FlashReadID)
    i.FlashReadStatusRegister                0x08004a04   Section        0  spiflashdev.o(i.FlashReadStatusRegister)
    FlashReadStatusRegister                  0x08004a05   Thumb Code    32  spiflashdev.o(i.FlashReadStatusRegister)
    i.FlashSPISend                           0x08004a24   Section        0  spiflashhal.o(i.FlashSPISend)
    i.FlashSectorErase_4KByte                0x08004a5c   Section        0  spiflashdev.o(i.FlashSectorErase_4KByte)
    i.FlashSelect                            0x08004a9c   Section        0  spiflashhal.o(i.FlashSelect)
    i.FlashWaitForWriteEnd                   0x08004abc   Section        0  spiflashdev.o(i.FlashWaitForWriteEnd)
    FlashWaitForWriteEnd                     0x08004abd   Thumb Code    32  spiflashdev.o(i.FlashWaitForWriteEnd)
    i.FlashWait_Busy_AAI                     0x08004adc   Section        0  spiflashdev.o(i.FlashWait_Busy_AAI)
    FlashWait_Busy_AAI                       0x08004add   Thumb Code    18  spiflashdev.o(i.FlashWait_Busy_AAI)
    i.FlashWriteDisable                      0x08004aee   Section        0  spiflashdev.o(i.FlashWriteDisable)
    FlashWriteDisable                        0x08004aef   Thumb Code    24  spiflashdev.o(i.FlashWriteDisable)
    i.FlashWriteEnable                       0x08004b06   Section        0  spiflashdev.o(i.FlashWriteEnable)
    FlashWriteEnable                         0x08004b07   Thumb Code    24  spiflashdev.o(i.FlashWriteEnable)
    i.FtpDataGetFlag                         0x08004b20   Section        0  app_upgrade.o(i.FtpDataGetFlag)
    i.FtpInfoInit                            0x08004b48   Section        0  app_upgrade.o(i.FtpInfoInit)
    i.FtpTimeDelay                           0x08004bfc   Section        0  app_upgrade.o(i.FtpTimeDelay)
    i.GB_GeneralAck                          0x08004c14   Section        0  app_protocol.o(i.GB_GeneralAck)
    i.GB_GetAckMsgHead                       0x08004cc8   Section        0  app_protocol.o(i.GB_GetAckMsgHead)
    i.GB_GetMsgHead                          0x08004d24   Section        0  app_protocol.o(i.GB_GetMsgHead)
    i.GC65Timer                              0x08004d94   Section        0  gc65.o(i.GC65Timer)
    i.GPIO_Configuration                     0x08004df0   Section        0  bsp.o(i.GPIO_Configuration)
    i.GPIO_Init                              0x08004f40   Section        0  stm32f10x_gpio.o(i.GPIO_Init)
    i.GPIO_PinRemapConfig                    0x08005058   Section        0  stm32f10x_gpio.o(i.GPIO_PinRemapConfig)
    i.GPIO_ResetBits                         0x080050e8   Section        0  stm32f10x_gpio.o(i.GPIO_ResetBits)
    i.GPIO_SetBits                           0x080050ec   Section        0  stm32f10x_gpio.o(i.GPIO_SetBits)
    i.GPRSDataDeal                           0x080050f0   Section        0  app_protocol.o(i.GPRSDataDeal)
    i.GPRSUartDMAInit                        0x08005354   Section        0  gc65_bsp.o(i.GPRSUartDMAInit)
    i.GetAckVaule                            0x080053dc   Section        0  app_protocol.o(i.GetAckVaule)
    i.GetComIndex                            0x080053e8   Section        0  app_vfd.o(i.GetComIndex)
    GetComIndex                              0x080053e9   Thumb Code    44  app_vfd.o(i.GetComIndex)
    i.GetEventInfo                           0x08005420   Section        0  app_protocol.o(i.GetEventInfo)
    i.GetGprsUartDMABuf                      0x0800660c   Section        0  gc65_bsp.o(i.GetGprsUartDMABuf)
    i.GetHeartData                           0x08006618   Section        0  app_protocol.o(i.GetHeartData)
    i.GetMeter2ReadAddr                      0x08006730   Section        0  app_plt.o(i.GetMeter2ReadAddr)
    i.GetMeterReadAddr                       0x08006754   Section        0  app_plt.o(i.GetMeterReadAddr)
    i.GetMultLoc                             0x08006778   Section        0  gc65.o(i.GetMultLoc)
    i.GetPlt1SpecPara                        0x08006800   Section        0  app_plt.o(i.GetPlt1SpecPara)
    i.GetPlt2SpecPara                        0x0800694c   Section        0  app_plt.o(i.GetPlt2SpecPara)
    i.GetPlt3SpecPara                        0x08006a5c   Section        0  app_plt.o(i.GetPlt3SpecPara)
    i.GetPltAllPara                          0x08006b04   Section        0  app_plt.o(i.GetPltAllPara)
    i.GetPltReadAddr                         0x08006dc8   Section        0  app_plt.o(i.GetPltReadAddr)
    i.GetRegister                            0x08006e80   Section        0  app_protocol.o(i.GetRegister)
    i.GetRsp                                 0x08006ee4   Section        0  app_protocol.o(i.GetRsp)
    i.GetRtctime                             0x08006f14   Section        0  app_rtc.o(i.GetRtctime)
    i.GetStatusUpData                        0x08007048   Section        0  app_protocol.o(i.GetStatusUpData)
    GetStatusUpData                          0x08007049   Thumb Code   416  app_protocol.o(i.GetStatusUpData)
    i.GetUpdateData                          0x0800721c   Section        0  app_protocol.o(i.GetUpdateData)
    i.GetVfdOptInfo                          0x08007268   Section        0  app_protocol.o(i.GetVfdOptInfo)
    i.GprsAppInit                            0x08007300   Section        0  gc65.o(i.GprsAppInit)
    i.GprsDMAReceiveDisable                  0x08007350   Section        0  gc65_bsp.o(i.GprsDMAReceiveDisable)
    i.GprsParaInit                           0x08007388   Section        0  gc65.o(i.GprsParaInit)
    i.GprsReAPN                              0x080073d0   Section        0  gc65.o(i.GprsReAPN)
    i.GprsReConnect                          0x08007408   Section        0  gc65.o(i.GprsReConnect)
    i.GprsReadNetTime                        0x08007434   Section        0  app_rtc.o(i.GprsReadNetTime)
    i.GprsReadQeng                           0x08007510   Section        0  gc65.o(i.GprsReadQeng)
    i.GprsSndDataAccept                      0x080076d4   Section        0  gc65.o(i.GprsSndDataAccept)
    i.GprsSndDataFlush                       0x080076f4   Section        0  gc65.o(i.GprsSndDataFlush)
    i.GprsSndDataPost                        0x08007704   Section        0  gc65.o(i.GprsSndDataPost)
    i.GprsUART_SetDMAReceive                 0x08007720   Section        0  gc65_bsp.o(i.GprsUART_SetDMAReceive)
    i.GprsUartCmd                            0x0800776c   Section        0  gc65_bsp.o(i.GprsUartCmd)
    i.GprsUartDMAReceive                     0x08007780   Section        0  gc65_bsp.o(i.GprsUartDMAReceive)
    i.GprsUartIsr                            0x080077a0   Section        0  gc65.o(i.GprsUartIsr)
    i.HardFault_Handler                      0x08007b34   Section        0  stm32f10x_it.o(i.HardFault_Handler)
    i.HardWareInit                           0x08007b38   Section        0  bsp.o(i.HardWareInit)
    i.HaveDataSend                           0x08007c0c   Section        0  gc65.o(i.HaveDataSend)
    i.Hex2Float                              0x08007cd4   Section        0  comm.o(i.Hex2Float)
    i.Init485Uart                            0x08007cdc   Section        0  bsp.o(i.Init485Uart)
    i.InitCan                                0x08007d74   Section        0  bsp.o(i.InitCan)
    i.InitIWDG                               0x08007dec   Section        0  bsp.o(i.InitIWDG)
    i.InitUart                               0x08007df0   Section        0  bsp.o(i.InitUart)
    i.InsertTo                               0x08008030   Section        0  gc65.o(i.InsertTo)
    i.InterruptConfig                        0x08008068   Section        0  bsp.o(i.InterruptConfig)
    i.IsIp                                   0x08008110   Section        0  comm.o(i.IsIp)
    i.IsModbusMaster                         0x0800817c   Section        0  app_vfd.o(i.IsModbusMaster)
    i.IsNumber                               0x08008186   Section        0  comm.o(i.IsNumber)
    i.IsReg                                  0x080081b0   Section        0  app_protocol.o(i.IsReg)
    i.JSON_AddrAndDataToObject               0x080081c0   Section        0  app_json.o(i.JSON_AddrAndDataToObject)
    i.JSON_AddrListExtract                   0x08008400   Section        0  app_json.o(i.JSON_AddrListExtract)
    i.JSON_AddrNumberDataToObject            0x08008458   Section        0  app_json.o(i.JSON_AddrNumberDataToObject)
    i.JSON_AddrStringDataToObject            0x080084e8   Section        0  app_json.o(i.JSON_AddrStringDataToObject)
    i.JSON_ArrayExtract                      0x08008518   Section        0  app_json.o(i.JSON_ArrayExtract)
    i.JSON_EventNoInfToObject                0x08008624   Section        0  app_json.o(i.JSON_EventNoInfToObject)
    i.JSON_EventWithInfToObject              0x0800864c   Section        0  app_json.o(i.JSON_EventWithInfToObject)
    i.JSON_Extract                           0x080086e4   Section        0  app_json.o(i.JSON_Extract)
    i.JSON_ExtractObjNode                    0x08008788   Section        0  app_json.o(i.JSON_ExtractObjNode)
    i.JSON_FlowDataToObject                  0x08008934   Section        0  app_json.o(i.JSON_FlowDataToObject)
    i.JSON_IsObjectBegin                     0x08008b2c   Section        0  app_json.o(i.JSON_IsObjectBegin)
    i.JSON_MeterDataToObject                 0x08008b54   Section        0  app_json.o(i.JSON_MeterDataToObject)
    i.JSON_NumberValToObject                 0x08008d90   Section        0  app_json.o(i.JSON_NumberValToObject)
    i.JSON_ObjectBegin                       0x08008dc0   Section        0  app_json.o(i.JSON_ObjectBegin)
    i.JSON_ObjectEnd                         0x08008dcc   Section        0  app_json.o(i.JSON_ObjectEnd)
    i.JSON_RtcTimeGet                        0x08008df4   Section        0  app_protocol.o(i.JSON_RtcTimeGet)
    i.JSON_StringValToObject                 0x08008f20   Section        0  app_json.o(i.JSON_StringValToObject)
    i.LeapYear                               0x08008f50   Section        0  app_rtc.o(i.LeapYear)
    i.LedOnSet                               0x08008f8c   Section        0  app_led.o(i.LedOnSet)
    i.Led_Indicate                           0x08008fe8   Section        0  app_led.o(i.Led_Indicate)
    Led_Indicate                             0x08008fe9   Thumb Code   164  app_led.o(i.Led_Indicate)
    i.Led_Indicate_Init                      0x0800909c   Section        0  app_led.o(i.Led_Indicate_Init)
    i.MemManage_Handler                      0x080090dc   Section        0  stm32f10x_it.o(i.MemManage_Handler)
    i.Meter2ClrTimeOut                       0x080090e0   Section        0  app_vfd.o(i.Meter2ClrTimeOut)
    i.MeterClrTimeOut                        0x08009108   Section        0  app_vfd.o(i.MeterClrTimeOut)
    i.MeterReadIndexChg                      0x08009130   Section        0  app_vfd.o(i.MeterReadIndexChg)
    MeterReadIndexChg                        0x08009131   Thumb Code    90  app_vfd.o(i.MeterReadIndexChg)
    i.MeterWaitResp                          0x08009194   Section        0  app_vfd.o(i.MeterWaitResp)
    i.ModbusAddrInit                         0x080091a0   Section        0  app_vfd.o(i.ModbusAddrInit)
    i.ModbusDelay                            0x080091c4   Section        0  app_vfd.o(i.ModbusDelay)
    i.ModbusFunInit                          0x080091d2   Section        0  app_vfd.o(i.ModbusFunInit)
    i.ModbusOvTmInit                         0x080091e8   Section        0  app_vfd.o(i.ModbusOvTmInit)
    i.ModbusRcvCrcChk                        0x080091f2   Section        0  app_vfd.o(i.ModbusRcvCrcChk)
    i.ModbusRcvFinish                        0x0800922e   Section        0  app_vfd.o(i.ModbusRcvFinish)
    i.ModbusRcvTimeOut                       0x08009266   Section        0  app_vfd.o(i.ModbusRcvTimeOut)
    i.ModbusSendNextChar                     0x08009296   Section        0  app_vfd.o(i.ModbusSendNextChar)
    i.ModbusStartSend                        0x080092e8   Section        0  app_vfd.o(i.ModbusStartSend)
    i.ModbusUartIsr                          0x0800932a   Section        0  app_vfd.o(i.ModbusUartIsr)
    i.ModelIsFtping                          0x0800937c   Section        0  app_upgrade.o(i.ModelIsFtping)
    i.MultFunInit                            0x0800938c   Section        0  app_multfun.o(i.MultFunInit)
    i.NMI_Handler                            0x0800945c   Section        0  stm32f10x_it.o(i.NMI_Handler)
    i.NVIC_Init                              0x08009460   Section        0  misc.o(i.NVIC_Init)
    i.NVIC_PriorityGroupConfig               0x080094d0   Section        0  misc.o(i.NVIC_PriorityGroupConfig)
    i.NVIC_SetPriority                       0x080094e4   Section        0  bsp.o(i.NVIC_SetPriority)
    NVIC_SetPriority                         0x080094e5   Thumb Code    32  bsp.o(i.NVIC_SetPriority)
    i.NetFourByteToDWord                     0x0800950c   Section        0  comm.o(i.NetFourByteToDWord)
    i.NetTwoByteToWord                       0x08009528   Section        0  comm.o(i.NetTwoByteToWord)
    i.ObjRespondToServer                     0x08009538   Section        0  app_protocol.o(i.ObjRespondToServer)
    ObjRespondToServer                       0x08009539   Thumb Code   166  app_protocol.o(i.ObjRespondToServer)
    i.OnlykeyVarRead                         0x08009614   Section        0  app_protocol.o(i.OnlykeyVarRead)
    OnlykeyVarRead                           0x08009615   Thumb Code    42  app_protocol.o(i.OnlykeyVarRead)
    i.Packet                                 0x08009644   Section        0  app_protocol.o(i.Packet)
    i.PipeDataValid                          0x0800969e   Section        0  pipe.o(i.PipeDataValid)
    i.Plt3SysVarRead                         0x080096b0   Section        0  app_plt.o(i.Plt3SysVarRead)
    i.PltDevDataPrase                        0x08009cf4   Section        0  app_plt.o(i.PltDevDataPrase)
    i.PltDevMan860DataPrase                  0x0800a9e0   Section        0  app_plt.o(i.PltDevMan860DataPrase)
    i.PltMam6080OtherDataPrase               0x0800af6c   Section        0  app_plt.o(i.PltMam6080OtherDataPrase)
    i.PltMam6080OtherVarRead                 0x0800b4d8   Section        0  app_plt.o(i.PltMam6080OtherVarRead)
    i.PltParaWrite                           0x0800bb70   Section        0  app_vfd.o(i.PltParaWrite)
    i.PltSysVarWriter                        0x0800be58   Section        0  app_plt.o(i.PltSysVarWriter)
    i.Plt_Fault_Deal                         0x0800c068   Section        0  app_plt.o(i.Plt_Fault_Deal)
    i.Plt_PreAlarm_Deal                      0x0800c174   Section        0  app_plt.o(i.Plt_PreAlarm_Deal)
    i.Plt_RunStata_Deal                      0x0800c190   Section        0  app_plt.o(i.Plt_RunStata_Deal)
    i.ProDataSend                            0x0800c230   Section        0  app_protocol.o(i.ProDataSend)
    i.ProSendInit                            0x0800c3ec   Section        0  app_protocol.o(i.ProSendInit)
    i.RCC_AHBPeriphClockCmd                  0x0800c41c   Section        0  stm32f10x_rcc.o(i.RCC_AHBPeriphClockCmd)
    i.RCC_APB1PeriphClockCmd                 0x0800c43c   Section        0  stm32f10x_rcc.o(i.RCC_APB1PeriphClockCmd)
    i.RCC_APB1PeriphResetCmd                 0x0800c45c   Section        0  stm32f10x_rcc.o(i.RCC_APB1PeriphResetCmd)
    i.RCC_APB2PeriphClockCmd                 0x0800c47c   Section        0  stm32f10x_rcc.o(i.RCC_APB2PeriphClockCmd)
    i.RCC_ClearFlag                          0x0800c49c   Section        0  stm32f10x_rcc.o(i.RCC_ClearFlag)
    i.RCC_GetClocksFreq                      0x0800c4b0   Section        0  stm32f10x_rcc.o(i.RCC_GetClocksFreq)
    i.RS4850_ChgToRcv                        0x0800c584   Section        0  app_vfd.o(i.RS4850_ChgToRcv)
    i.RS4850_ChgToSnd                        0x0800c5b0   Section        0  app_vfd.o(i.RS4850_ChgToSnd)
    i.RS4851_ChgToRcv                        0x0800c5f8   Section        0  app_vfd.o(i.RS4851_ChgToRcv)
    i.RS4851_ChgToSnd                        0x0800c624   Section        0  app_vfd.o(i.RS4851_ChgToSnd)
    i.RS4852_ChgToRcv                        0x0800c668   Section        0  app_vfd.o(i.RS4852_ChgToRcv)
    i.RS4852_ChgToSnd                        0x0800c694   Section        0  app_vfd.o(i.RS4852_ChgToSnd)
    i.RS485CfgResp                           0x0800c6dc   Section        0  app_debug.o(i.RS485CfgResp)
    i.RS485ComInit                           0x0800c704   Section        0  app_vfd.o(i.RS485ComInit)
    i.RS485SndDly                            0x0800c740   Section        0  app_debug.o(i.RS485SndDly)
    i.RTC_GmtToBjTime                        0x0800c754   Section        0  app_rtc.o(i.RTC_GmtToBjTime)
    i.ReadIndexChg                           0x0800c814   Section        0  app_vfd.o(i.ReadIndexChg)
    i.RebootDelay                            0x0800c8ac   Section        0  app_protocol.o(i.RebootDelay)
    i.RebootRequest                          0x0800c8cc   Section        0  app_upgrade.o(i.RebootRequest)
    i.RegTimerErrCode                        0x0800c8d8   Section        0  app_multfun.o(i.RegTimerErrCode)
    i.RegTimerInit                           0x0800c950   Section        0  app_multfun.o(i.RegTimerInit)
    i.RegTimerRun                            0x0800c96c   Section        0  app_multfun.o(i.RegTimerRun)
    i.RegTimerStop                           0x0800c9e8   Section        0  app_multfun.o(i.RegTimerStop)
    i.RemoveBlackatoi                        0x0800c9fc   Section        0  gc65.o(i.RemoveBlackatoi)
    i.ReturnToInserStage                     0x0800ca18   Section        0  gc65.o(i.ReturnToInserStage)
    i.Rs485ComLed                            0x0800ca3c   Section        0  app_led.o(i.Rs485ComLed)
    i.Rs485ComOptResultAlarm                 0x0800ca7c   Section        0  app_vfd.o(i.Rs485ComOptResultAlarm)
    i.SPIFlashErase4K                        0x0800cb80   Section        0  spiflash.o(i.SPIFlashErase4K)
    i.SPIFlashInit                           0x0800cb96   Section        0  spiflash.o(i.SPIFlashInit)
    i.SPIFlashRead                           0x0800cbb6   Section        0  spiflash.o(i.SPIFlashRead)
    i.SPIFlashWrite                          0x0800cbd4   Section        0  spiflash.o(i.SPIFlashWrite)
    i.SPI_Cmd                                0x0800cbf2   Section        0  stm32f10x_spi.o(i.SPI_Cmd)
    i.SPI_I2S_GetFlagStatus                  0x0800cc0a   Section        0  stm32f10x_spi.o(i.SPI_I2S_GetFlagStatus)
    i.SPI_I2S_ReceiveData                    0x0800cc1c   Section        0  stm32f10x_spi.o(i.SPI_I2S_ReceiveData)
    i.SPI_I2S_SendData                       0x0800cc22   Section        0  stm32f10x_spi.o(i.SPI_I2S_SendData)
    i.SPI_Init                               0x0800cc26   Section        0  stm32f10x_spi.o(i.SPI_Init)
    i.SST25V_DBSY                            0x0800cc62   Section        0  spiflashdev.o(i.SST25V_DBSY)
    i.SST25V_EnableWriteStatusRegister       0x0800cc7a   Section        0  spiflashdev.o(i.SST25V_EnableWriteStatusRegister)
    i.SST25V_WriteStatusRegister             0x0800cc92   Section        0  spiflashdev.o(i.SST25V_WriteStatusRegister)
    i.SVC_Handler                            0x0800ccb6   Section        0  stm32f10x_it.o(i.SVC_Handler)
    i.SendATCondition                        0x0800ccb8   Section        0  gc65.o(i.SendATCondition)
    i.SendIPDATA                             0x0800cdb0   Section        0  gc65.o(i.SendIPDATA)
    i.ServerCmdDeal                          0x0800cde0   Section        0  app_protocol.o(i.ServerCmdDeal)
    i.ServerCmd_Head_Deal                    0x0800d398   Section        0  app_protocol.o(i.ServerCmd_Head_Deal)
    i.ServerDataGetRespond                   0x0800d440   Section        0  app_protocol.o(i.ServerDataGetRespond)
    i.ServerParaSet                          0x0800d628   Section        0  app_protocol.o(i.ServerParaSet)
    i.ServerTimeSet                          0x0800d894   Section        0  app_rtc.o(i.ServerTimeSet)
    i.Server_Writer_Data_Buf                 0x0800d9b0   Section        0  app_plt.o(i.Server_Writer_Data_Buf)
    i.Server_Writer_Data_SendBuf             0x0800da1c   Section        0  app_plt.o(i.Server_Writer_Data_SendBuf)
    i.SetBindStatus                          0x0800da78   Section        0  app_protocol.o(i.SetBindStatus)
    SetBindStatus                            0x0800da79   Thumb Code    80  app_protocol.o(i.SetBindStatus)
    i.SetMeterReadIndex                      0x0800dad0   Section        0  app_vfd.o(i.SetMeterReadIndex)
    i.SetParaSaveFlag                        0x0800db4c   Section        0  app_protocol.o(i.SetParaSaveFlag)
    i.SetRemoteOptResult                     0x0800dbb0   Section        0  app_vfd.o(i.SetRemoteOptResult)
    i.SetSysClock                            0x0800dbdc   Section        0  system_stm32f10x.o(i.SetSysClock)
    SetSysClock                              0x0800dbdd   Thumb Code     8  system_stm32f10x.o(i.SetSysClock)
    i.SetSysClockTo72                        0x0800dbe4   Section        0  system_stm32f10x.o(i.SetSysClockTo72)
    SetSysClockTo72                          0x0800dbe5   Thumb Code   214  system_stm32f10x.o(i.SetSysClockTo72)
    i.Simulation                             0x0800dcc4   Section        0  simulation.o(i.Simulation)
    i.SoftWareInit                           0x0800dd38   Section        0  main.o(i.SoftWareInit)
    i.SpecAddrRead                           0x0800de68   Section        0  app_para.o(i.SpecAddrRead)
    i.Start_Stop_Filter                      0x0800dfb8   Section        0  app_alarmevent.o(i.Start_Stop_Filter)
    i.StringToHex                            0x0800dfe4   Section        0  comm.o(i.StringToHex)
    i.SysAppInfUpdate                        0x0800e090   Section        0  app_upgrade.o(i.SysAppInfUpdate)
    i.SysComLed                              0x0800e0d0   Section        0  app_led.o(i.SysComLed)
    i.SysParaRead                            0x0800e1b8   Section        0  app_para.o(i.SysParaRead)
    i.SysParaStorage                         0x0800e2b4   Section        0  app_para.o(i.SysParaStorage)
    i.SysTick_Handler                        0x0800e3fc   Section        0  stm32f10x_it.o(i.SysTick_Handler)
    i.SysTime_Delay                          0x0800e51c   Section        0  app_rtc.o(i.SysTime_Delay)
    i.SysTime_Fresh                          0x0800e532   Section        0  app_rtc.o(i.SysTime_Fresh)
    i.SysTime_Get                            0x0800e544   Section        0  app_rtc.o(i.SysTime_Get)
    i.SysTime_Updata                         0x0800e550   Section        0  app_rtc.o(i.SysTime_Updata)
    i.SysVarInit                             0x0800e58c   Section        0  app_para.o(i.SysVarInit)
    i.SysVarRead                             0x0800e5d4   Section        0  app_para.o(i.SysVarRead)
    i.SystemInit                             0x0800e7bc   Section        0  system_stm32f10x.o(i.SystemInit)
    i.TaskGC65                               0x0800e81c   Section        0  gc65.o(i.TaskGC65)
    i.Task_Meter2Comm                        0x08010748   Section        0  app_vfd.o(i.Task_Meter2Comm)
    i.Task_Meter2Deal                        0x0801096c   Section        0  app_vfd.o(i.Task_Meter2Deal)
    i.Task_Meter2Init                        0x08010b30   Section        0  app_vfd.o(i.Task_Meter2Init)
    i.Task_MeterComm                         0x08010b78   Section        0  app_vfd.o(i.Task_MeterComm)
    i.Task_MeterDeal                         0x08010e00   Section        0  app_vfd.o(i.Task_MeterDeal)
    i.Task_MeterInit                         0x08010fa8   Section        0  app_vfd.o(i.Task_MeterInit)
    i.Task_MultFun_1s                        0x08010ff4   Section        0  app_multfun.o(i.Task_MultFun_1s)
    i.Task_ProDeal                           0x080111b4   Section        0  app_protocol.o(i.Task_ProDeal)
    i.Task_ProSend                           0x08011204   Section        0  app_protocol.o(i.Task_ProSend)
    i.Task_VfdComm                           0x080117d0   Section        0  app_vfd.o(i.Task_VfdComm)
    i.Task_VfdDeal                           0x08011b74   Section        0  app_vfd.o(i.Task_VfdDeal)
    i.Task_VfdInit                           0x08011e90   Section        0  app_vfd.o(i.Task_VfdInit)
    i.UART4_IRQHandler                       0x08011eec   Section        0  stm32f10x_it.o(i.UART4_IRQHandler)
    i.USART1_IRQHandler                      0x08011f70   Section        0  stm32f10x_it.o(i.USART1_IRQHandler)
    i.USART2_IRQHandler                      0x080120a4   Section        0  stm32f10x_it.o(i.USART2_IRQHandler)
    i.USART3_IRQHandler                      0x08012128   Section        0  stm32f10x_it.o(i.USART3_IRQHandler)
    i.USART_ClearFlag                        0x080121ac   Section        0  stm32f10x_usart.o(i.USART_ClearFlag)
    i.USART_ClearITPendingBit                0x080121be   Section        0  stm32f10x_usart.o(i.USART_ClearITPendingBit)
    i.USART_Cmd                              0x080121dc   Section        0  stm32f10x_usart.o(i.USART_Cmd)
    i.USART_DMACmd                           0x080121f4   Section        0  stm32f10x_usart.o(i.USART_DMACmd)
    i.USART_GetFlagStatus                    0x08012206   Section        0  stm32f10x_usart.o(i.USART_GetFlagStatus)
    i.USART_GetITStatus                      0x08012220   Section        0  stm32f10x_usart.o(i.USART_GetITStatus)
    i.USART_ITConfig                         0x08012274   Section        0  stm32f10x_usart.o(i.USART_ITConfig)
    i.USART_Init                             0x080122c0   Section        0  stm32f10x_usart.o(i.USART_Init)
    i.USART_ReceiveData                      0x08012398   Section        0  stm32f10x_usart.o(i.USART_ReceiveData)
    i.USART_SendData                         0x080123a2   Section        0  stm32f10x_usart.o(i.USART_SendData)
    i.USB_LP_CAN1_RX0_IRQHandler             0x080123ac   Section        0  stm32f10x_it.o(i.USB_LP_CAN1_RX0_IRQHandler)
    i.UartFirstChar                          0x080123e4   Section        0  uart.o(i.UartFirstChar)
    i.UartIntSendData                        0x08012408   Section        0  uart.o(i.UartIntSendData)
    i.UartRcvTimeOut                         0x08012464   Section        0  stm32f10x_it.o(i.UartRcvTimeOut)
    i.UartSendData                           0x0801249c   Section        0  uart.o(i.UartSendData)
    i.UartTimerOver                          0x080125a8   Section        0  uart.o(i.UartTimerOver)
    i.UpdateFileCrcCheck                     0x080125e4   Section        0  app_upgrade.o(i.UpdateFileCrcCheck)
    i.UpdateFileGet                          0x080126c4   Section        0  app_upgrade.o(i.UpdateFileGet)
    i.UpdateFileWrite                        0x0801272c   Section        0  app_upgrade.o(i.UpdateFileWrite)
    i.UpgradeFlagSet                         0x080127ec   Section        0  app_upgrade.o(i.UpgradeFlagSet)
    i.UpgradeSectorErase                     0x08012814   Section        0  app_upgrade.o(i.UpgradeSectorErase)
    i.UpgradeServerInit                      0x08012860   Section        0  app_upgrade.o(i.UpgradeServerInit)
    i.UpgradeSizeInit                        0x0801289c   Section        0  app_upgrade.o(i.UpgradeSizeInit)
    i.UpgradeTask                            0x080128b4   Section        0  app_upgrade.o(i.UpgradeTask)
    i.UpgradeUsrInit                         0x080129ec   Section        0  app_upgrade.o(i.UpgradeUsrInit)
    i.UpgradeVersionInit                     0x08012a28   Section        0  app_upgrade.o(i.UpgradeVersionInit)
    i.UsageFault_Handler                     0x08012b24   Section        0  stm32f10x_it.o(i.UsageFault_Handler)
    i.UsrCmdCtrl                             0x08012b28   Section        0  app_usrcmd.o(i.UsrCmdCtrl)
    i.UsrCmdDebug                            0x08012b68   Section        0  app_usrcmd.o(i.UsrCmdDebug)
    i.UsrCmdParse                            0x08012bfc   Section        0  app_usrcmd.o(i.UsrCmdParse)
    i.UsrCmdQuery                            0x08012e24   Section        0  app_usrcmd.o(i.UsrCmdQuery)
    i.UsrCmdSet                              0x0801302c   Section        0  app_usrcmd.o(i.UsrCmdSet)
    i.UsrCmdTest                             0x080130ac   Section        0  app_usrcmd.o(i.UsrCmdTest)
    i.VfdClrTimeOut                          0x080130e0   Section        0  app_vfd.o(i.VfdClrTimeOut)
    i.VfdCtrlInit                            0x08013108   Section        0  app_vfd.o(i.VfdCtrlInit)
    i.VfdReadRegPacket                       0x0801312c   Section        0  app_vfd.o(i.VfdReadRegPacket)
    i.VfdSetWhoUse                           0x0801317c   Section        0  app_vfd.o(i.VfdSetWhoUse)
    i.VfdWaitResp                            0x080131dc   Section        0  app_vfd.o(i.VfdWaitResp)
    i.VfdWriteMoreRegPacket                  0x080131e8   Section        0  app_vfd.o(i.VfdWriteMoreRegPacket)
    i.VfdWriteRegPacket                      0x0801325c   Section        0  app_vfd.o(i.VfdWriteRegPacket)
    i.Vfd_Meter_Write_Data                   0x080132ac   Section        0  app_vfd.o(i.Vfd_Meter_Write_Data)
    i.WaitRsp                                0x080132d4   Section        0  app_protocol.o(i.WaitRsp)
    i.WordToBuf                              0x0801331c   Section        0  comm.o(i.WordToBuf)
    i.XYDevDataDeal                          0x0801332c   Section        0  app_plt.o(i.XYDevDataDeal)
    i.XYMeterVarRead                         0x080134fc   Section        0  app_plt.o(i.XYMeterVarRead)
    i.YearDay                                0x080136e8   Section        0  app_rtc.o(i.YearDay)
    i.__ARM_fpclassify                       0x08013740   Section        0  fpclassify.o(i.__ARM_fpclassify)
    i._flashErase                            0x08013768   Section        0  app_para.o(i._flashErase)
    _flashErase                              0x08013769   Thumb Code    36  app_para.o(i._flashErase)
    i._flashRead                             0x0801378c   Section        0  app_para.o(i._flashRead)
    i._flashWrite                            0x080137c8   Section        0  app_para.o(i._flashWrite)
    i._is_digit                              0x0801384c   Section        0  __printf_wp.o(i._is_digit)
    i.dtuCfgDataCheck                        0x0801385a   Section        0  app_dtucfg.o(i.dtuCfgDataCheck)
    i.dtuCfgDataCrc                          0x0801388e   Section        0  app_dtucfg.o(i.dtuCfgDataCrc)
    i.dtuConfigResp                          0x080138aa   Section        0  app_dtucfg.o(i.dtuConfigResp)
    i.dtuFactoryConfig                       0x08013920   Section        0  app_dtucfg.o(i.dtuFactoryConfig)
    i.gprsIsConnect                          0x08013e98   Section        0  gc65.o(i.gprsIsConnect)
    i.isGprsCon                              0x08013ea8   Section        0  app_protocol.o(i.isGprsCon)
    i.main                                   0x08013eb8   Section        0  main.o(i.main)
    i.my_atof                                0x08014100   Section        0  comm.o(i.my_atof)
    i.my_atoi                                0x080141bc   Section        0  comm.o(i.my_atoi)
    i.my_itoa                                0x08014208   Section        0  comm.o(i.my_itoa)
    i.pipeCreate                             0x0801424c   Section        0  pipe.o(i.pipeCreate)
    i.pipeDataRead                           0x080142de   Section        0  pipe.o(i.pipeDataRead)
    i.pipeDataWrite                          0x08014350   Section        0  pipe.o(i.pipeDataWrite)
    i.pipeFlush                              0x080143d4   Section        0  pipe.o(i.pipeFlush)
    i.rst_data_process                       0x080143f4   Section        0  app_multfun.o(i.rst_data_process)
    i.stricmp                                0x08014470   Section        0  comm.o(i.stricmp)
    i.systick_init                           0x080144ac   Section        0  bsp.o(i.systick_init)
    systick_init                             0x080144ad   Thumb Code    68  bsp.o(i.systick_init)
    locale$$code                             0x080144f0   Section       44  lc_numeric_c.o(locale$$code)
    locale$$code                             0x0801451c   Section       44  lc_ctype_c.o(locale$$code)
    x$fpl$dadd                               0x08014548   Section      336  daddsub_clz.o(x$fpl$dadd)
    _dadd1                                   0x08014559   Thumb Code     0  daddsub_clz.o(x$fpl$dadd)
    x$fpl$ddiv                               0x08014698   Section      688  ddiv.o(x$fpl$ddiv)
    ddiv_entry                               0x0801469f   Thumb Code     0  ddiv.o(x$fpl$ddiv)
    x$fpl$dfixu                              0x08014948   Section       90  dfixu.o(x$fpl$dfixu)
    x$fpl$dflt                               0x080149a2   Section       46  dflt_clz.o(x$fpl$dflt)
    x$fpl$dfltu                              0x080149d0   Section       38  dflt_clz.o(x$fpl$dfltu)
    x$fpl$dmul                               0x080149f8   Section      340  dmul.o(x$fpl$dmul)
    x$fpl$dnaninf                            0x08014b4c   Section      156  dnaninf.o(x$fpl$dnaninf)
    x$fpl$dretinf                            0x08014be8   Section       12  dretinf.o(x$fpl$dretinf)
    x$fpl$dsub                               0x08014bf4   Section      468  daddsub_clz.o(x$fpl$dsub)
    _dsub1                                   0x08014c05   Thumb Code     0  daddsub_clz.o(x$fpl$dsub)
    x$fpl$f2d                                0x08014dc8   Section       86  f2d.o(x$fpl$f2d)
    x$fpl$fdiv                               0x08014e20   Section      388  fdiv.o(x$fpl$fdiv)
    _fdiv1                                   0x08014e21   Thumb Code     0  fdiv.o(x$fpl$fdiv)
    x$fpl$fflt                               0x08014fa4   Section       48  fflt_clz.o(x$fpl$fflt)
    x$fpl$ffltu                              0x08014fd4   Section       38  fflt_clz.o(x$fpl$ffltu)
    x$fpl$fmul                               0x08014ffc   Section      258  fmul.o(x$fpl$fmul)
    x$fpl$fnaninf                            0x080150fe   Section      140  fnaninf.o(x$fpl$fnaninf)
    x$fpl$fretinf                            0x0801518a   Section       10  fretinf.o(x$fpl$fretinf)
    x$fpl$printf1                            0x08015194   Section        4  printf1.o(x$fpl$printf1)
    .constdata                               0x08015198   Section     1864  app_plt.o(.constdata)
    x$fpl$usenofp                            0x08015198   Section        0  usenofp.o(x$fpl$usenofp)
    .constdata                               0x080158e0   Section      512  comm.o(.constdata)
    .constdata                               0x08015ae0   Section       13  app_rtc.o(.constdata)
    .constdata                               0x08015aed   Section       81  app_protocol.o(.constdata)
    .constdata                               0x08015b40   Section     1024  crc32.o(.constdata)
    .constdata                               0x08015f40   Section       40  _printf_hex_int_ll_ptr.o(.constdata)
    uc_hextab                                0x08015f40   Data          20  _printf_hex_int_ll_ptr.o(.constdata)
    lc_hextab                                0x08015f54   Data          20  _printf_hex_int_ll_ptr.o(.constdata)
    .constdata                               0x08015f68   Section       17  __printf_flags_ss_wp.o(.constdata)
    maptable                                 0x08015f68   Data          17  __printf_flags_ss_wp.o(.constdata)
    .constdata                               0x08015f7c   Section        8  _printf_wctomb.o(.constdata)
    initial_mbstate                          0x08015f7c   Data           8  _printf_wctomb.o(.constdata)
    .constdata                               0x08015f84   Section      148  bigflt0.o(.constdata)
    tenpwrs_x                                0x08015f84   Data          60  bigflt0.o(.constdata)
    tenpwrs_i                                0x08015fc0   Data          64  bigflt0.o(.constdata)
    .conststring                             0x08016018   Section      579  app_protocol.o(.conststring)
    locale$$data                             0x0801627c   Section       28  lc_numeric_c.o(locale$$data)
    __lcnum_c_name                           0x08016280   Data           2  lc_numeric_c.o(locale$$data)
    __lcnum_c_start                          0x08016288   Data           0  lc_numeric_c.o(locale$$data)
    __lcnum_c_point                          0x08016294   Data           0  lc_numeric_c.o(locale$$data)
    __lcnum_c_thousands                      0x08016296   Data           0  lc_numeric_c.o(locale$$data)
    __lcnum_c_grouping                       0x08016297   Data           0  lc_numeric_c.o(locale$$data)
    locale$$data                             0x08016298   Section      272  lc_ctype_c.o(locale$$data)
    __lcnum_c_end                            0x08016298   Data           0  lc_numeric_c.o(locale$$data)
    __lcctype_c_name                         0x0801629c   Data           2  lc_ctype_c.o(locale$$data)
    __lcctype_c_start                        0x080162a4   Data           0  lc_ctype_c.o(locale$$data)
    __lcctype_c_end                          0x080163a8   Data           0  lc_ctype_c.o(locale$$data)
    .data                                    0x20000000   Section       24  app_alarmevent.o(.data)
    AlmFltTimer                              0x20000008   Data           4  app_alarmevent.o(.data)
    LastAlmFlg                               0x2000000c   Data           4  app_alarmevent.o(.data)
    LastPreAlmFlg                            0x20000010   Data           4  app_alarmevent.o(.data)
    LastDevAlmFlg                            0x20000014   Data           4  app_alarmevent.o(.data)
    .data                                    0x20000018   Section        8  app_debug.o(.data)
    argp                                     0x2000001c   Data           4  app_debug.o(.data)
    .data                                    0x20000020   Section       25  app_led.o(.data)
    LedCtrl                                  0x20000024   Data           6  app_led.o(.data)
    LedDelay                                 0x20000030   Data           2  app_led.o(.data)
    count                                    0x20000034   Data           4  app_led.o(.data)
    led_step                                 0x20000038   Data           1  app_led.o(.data)
    .data                                    0x2000003c   Section       22  app_para.o(.data)
    temp                                     0x20000050   Data           2  app_para.o(.data)
    .data                                    0x20000052   Section       16  app_plt.o(.data)
    Power_Consume_Total                      0x20000058   Data           8  app_plt.o(.data)
    LastMachineStat                          0x20000060   Data           2  app_plt.o(.data)
    .data                                    0x20000064   Section       99  app_vfd.o(.data)
    Meter_Writer_Flag                        0x20000078   Data           1  app_vfd.o(.data)
    Meter_Writer_Data                        0x20000079   Data           6  app_vfd.o(.data)
    VfdDelay                                 0x20000080   Data           4  app_vfd.o(.data)
    MeterDelay                               0x20000084   Data           4  app_vfd.o(.data)
    Meter2Delay                              0x20000088   Data           4  app_vfd.o(.data)
    RevCanFlag                               0x2000009c   Data           1  app_vfd.o(.data)
    CommErrCnt                               0x200000b8   Data           4  app_vfd.o(.data)
    CommOkCnt                                0x200000bc   Data           4  app_vfd.o(.data)
    CommOKFlag                               0x200000c0   Data           4  app_vfd.o(.data)
    LastDTuStatus                            0x200000c4   Data           2  app_vfd.o(.data)
    ParaStep                                 0x200000c6   Data           1  app_vfd.o(.data)
    .data                                    0x200000c8   Section        2  stm32f10x_it.o(.data)
    Nms                                      0x200000c8   Data           2  stm32f10x_it.o(.data)
    .data                                    0x200000ca   Section        2  app_dtucfg.o(.data)
    .data                                    0x200000cc   Section       18  app_rtc.o(.data)
    gTime_realSysCount                       0x200000d4   Data           4  app_rtc.o(.data)
    gTime_RtcTime                            0x200000d8   Data           4  app_rtc.o(.data)
    SysMsCount                               0x200000dc   Data           2  app_rtc.o(.data)
    .data                                    0x200000e0   Section       48  app_multfun.o(.data)
    CommTime                                 0x20000104   Data           4  app_multfun.o(.data)
    CommErrCnt                               0x20000108   Data           4  app_multfun.o(.data)
    ParaErrCnt                               0x2000010c   Data           4  app_multfun.o(.data)
    .data                                    0x20000110   Section        9  app_upgrade.o(.data)
    GbRebootFlag                             0x20000118   Data           1  app_upgrade.o(.data)
    .data                                    0x2000011c   Section       54  gc65.o(.data)
    InitStep                                 0x20000144   Data           1  gc65.o(.data)
    RcvTmpLen                                0x2000014c   Data           2  gc65.o(.data)
    RcvStep                                  0x2000014e   Data           1  gc65.o(.data)
    RcvSize                                  0x20000150   Data           2  gc65.o(.data)
    .data                                    0x20000152   Section        1  uart.o(.data)
    .data                                    0x20000153   Section       20  stm32f10x_rcc.o(.data)
    APBAHBPrescTable                         0x20000153   Data          16  stm32f10x_rcc.o(.data)
    ADCPrescTable                            0x20000163   Data           4  stm32f10x_rcc.o(.data)
    .data                                    0x20000168   Section       57  app_protocol.o(.data)
    SendLen                                  0x2000018a   Data           2  app_protocol.o(.data)
    PtlSendState                             0x20000194   Data           1  app_protocol.o(.data)
    WaitNms                                  0x20000196   Data           2  app_protocol.o(.data)
    RetryCnt                                 0x20000198   Data           1  app_protocol.o(.data)
    StepDelay                                0x2000019c   Data           4  app_protocol.o(.data)
    bSendHeart                               0x200001a0   Data           1  app_protocol.o(.data)
    .data                                    0x200001a4   Section        4  crc32.o(.data)
    crc32                                    0x200001a4   Data           4  crc32.o(.data)
    .data                                    0x200001a8   Section        1  spiflashdev.o(.data)
    .data                                    0x200001ac   Section        4  strtok.o(.data)
    _strtok_saves1                           0x200001ac   Data           4  strtok.o(.data)
    .bss                                     0x200001b0   Section       48  app_alarmevent.o(.bss)
    .bss                                     0x200001e0   Section      416  app_debug.o(.bss)
    DbgMsgstr                                0x200001f0   Data         400  app_debug.o(.bss)
    .bss                                     0x20000380   Section      532  app_json.o(.bss)
    .bss                                     0x20000594   Section     1024  app_para.o(.bss)
    TempPara                                 0x200008b0   Data         228  app_para.o(.bss)
    .bss                                     0x20000994   Section      115  app_plt.o(.bss)
    .bss                                     0x20000a08   Section      784  app_vfd.o(.bss)
    RevCanBuf                                0x20000ce4   Data          12  app_vfd.o(.bss)
    RecDataBuff                              0x20000cf0   Data          20  app_vfd.o(.bss)
    RecDataBuff2                             0x20000d04   Data          20  app_vfd.o(.bss)
    .bss                                     0x20000d18   Section     1024  app_dtucfg.o(.bss)
    .bss                                     0x20001118   Section      512  app_upgrade.o(.bss)
    .bss                                     0x20001318   Section     5496  gc65.o(.bss)
    _gprsDealBuf                             0x2000208c   Data        1028  gc65.o(.bss)
    ATCharRcvBuf                             0x20002490   Data        1024  gc65.o(.bss)
    .bss                                     0x20002890   Section      522  gc65_bsp.o(.bss)
    .bss                                     0x20002a9a   Section     1162  uart.o(.bss)
    DMAUart2Buf                              0x20002b06   Data        1054  uart.o(.bss)
    .bss                                     0x20002f24   Section     2176  app_protocol.o(.bss)
    Update                                   0x2000376c   Data          36  app_protocol.o(.bss)
    SendData                                 0x20003790   Data          20  app_protocol.o(.bss)
    .bss                                     0x200037a4   Section       96  libspace.o(.bss)
    HEAP                                     0x20003808   Section      512  startup_stm32f10x_hd.o(HEAP)
    Heap_Mem                                 0x20003808   Data         512  startup_stm32f10x_hd.o(HEAP)
    STACK                                    0x20003a08   Section     1024  startup_stm32f10x_hd.o(STACK)
    Stack_Mem                                0x20003a08   Data        1024  startup_stm32f10x_hd.o(STACK)
    __initial_sp                             0x20003e08   Data           0  startup_stm32f10x_hd.o(STACK)

    Global Symbols

    Symbol Name                              Value     Ov Type        Size  Object(Section)

    BuildAttributes$$THM_ISAv4$P$D$K$B$S$PE$A:L22UL41UL21$X:L11$S22US41US21$IEEE1$IW$USESV6$~STKCKD$USESV7$~SHL$OTIME$ROPI$IEEEJ$EBA8$UX$STANDARDLIB$REQ8$PRES8$EABIv2 0x00000000   Number         0  anon$$obj.o ABSOLUTE
    __ARM_use_no_argv                        0x00000000   Number         0  main.o ABSOLUTE
    _printf_flags                            0x00000000   Number         0  printf_stubs.o ABSOLUTE
    _printf_return_value                     0x00000000   Number         0  printf_stubs.o ABSOLUTE
    _printf_sizespec                         0x00000000   Number         0  printf_stubs.o ABSOLUTE
    _printf_widthprec                        0x00000000   Number         0  printf_stubs.o ABSOLUTE
    __ARM_exceptions_init                     - Undefined Weak Reference
    __alloca_initialize                       - Undefined Weak Reference
    __arm_preinit_                            - Undefined Weak Reference
    __cpp_initialize__aeabi_                  - Undefined Weak Reference
    __cxa_finalize                            - Undefined Weak Reference
    __sigvec_lookup                           - Undefined Weak Reference
    __user_heap_extent                        - Undefined Weak Reference
    _atexit_init                              - Undefined Weak Reference
    _call_atexit_fns                          - Undefined Weak Reference
    _clock_init                               - Undefined Weak Reference
    _fp_trap_init                             - Undefined Weak Reference
    _fp_trap_shutdown                         - Undefined Weak Reference
    _get_lc_collate                           - Undefined Weak Reference
    _get_lc_monetary                          - Undefined Weak Reference
    _get_lc_time                              - Undefined Weak Reference
    _getenv_init                              - Undefined Weak Reference
    _handle_redirection                       - Undefined Weak Reference
    _initio                                   - Undefined Weak Reference
    _mutex_acquire                            - Undefined Weak Reference
    _mutex_free                               - Undefined Weak Reference
    _mutex_release                            - Undefined Weak Reference
    _printf_fp_hex                            - Undefined Weak Reference
    _printf_mbtowc                            - Undefined Weak Reference
    _printf_wc                                - Undefined Weak Reference
    _rand_init                                - Undefined Weak Reference
    _signal_finish                            - Undefined Weak Reference
    _signal_init                              - Undefined Weak Reference
    _terminateio                              - Undefined Weak Reference
    __Vectors_Size                           0x00000130   Number         0  startup_stm32f10x_hd.o ABSOLUTE
    __Vectors                                0x08000000   Data           4  startup_stm32f10x_hd.o(RESET)
    __Vectors_End                            0x08000130   Data           0  startup_stm32f10x_hd.o(RESET)
    __main                                   0x08000131   Thumb Code     8  __main.o(!!!main)
    __scatterload                            0x08000139   Thumb Code     0  __scatter.o(!!!scatter)
    __scatterload_rt2                        0x08000139   Thumb Code    44  __scatter.o(!!!scatter)
    __scatterload_rt2_thumb_only             0x08000139   Thumb Code     0  __scatter.o(!!!scatter)
    __scatterload_null                       0x08000147   Thumb Code     0  __scatter.o(!!!scatter)
    __decompress                             0x0800016d   Thumb Code    90  __dczerorl2.o(!!dczerorl2)
    __decompress1                            0x0800016d   Thumb Code     0  __dczerorl2.o(!!dczerorl2)
    __scatterload_zeroinit                   0x080001c9   Thumb Code    28  __scatter_zi.o(!!handler_zi)
    _printf_n                                0x080001e5   Thumb Code     0  _printf_n.o(.ARM.Collect$$_printf_percent$$00000001)
    _printf_percent                          0x080001e5   Thumb Code     0  _printf_percent.o(.ARM.Collect$$_printf_percent$$00000000)
    _printf_p                                0x080001eb   Thumb Code     0  _printf_p.o(.ARM.Collect$$_printf_percent$$00000002)
    _printf_f                                0x080001f1   Thumb Code     0  _printf_f.o(.ARM.Collect$$_printf_percent$$00000003)
    _printf_e                                0x080001f7   Thumb Code     0  _printf_e.o(.ARM.Collect$$_printf_percent$$00000004)
    _printf_g                                0x080001fd   Thumb Code     0  _printf_g.o(.ARM.Collect$$_printf_percent$$00000005)
    _printf_a                                0x08000203   Thumb Code     0  _printf_a.o(.ARM.Collect$$_printf_percent$$00000006)
    _printf_ll                               0x08000209   Thumb Code     0  _printf_ll.o(.ARM.Collect$$_printf_percent$$00000007)
    _printf_i                                0x08000213   Thumb Code     0  _printf_i.o(.ARM.Collect$$_printf_percent$$00000008)
    _printf_d                                0x08000219   Thumb Code     0  _printf_d.o(.ARM.Collect$$_printf_percent$$00000009)
    _printf_u                                0x0800021f   Thumb Code     0  _printf_u.o(.ARM.Collect$$_printf_percent$$0000000A)
    _printf_o                                0x08000225   Thumb Code     0  _printf_o.o(.ARM.Collect$$_printf_percent$$0000000B)
    _printf_x                                0x0800022b   Thumb Code     0  _printf_x.o(.ARM.Collect$$_printf_percent$$0000000C)
    _printf_lli                              0x08000231   Thumb Code     0  _printf_lli.o(.ARM.Collect$$_printf_percent$$0000000D)
    _printf_lld                              0x08000237   Thumb Code     0  _printf_lld.o(.ARM.Collect$$_printf_percent$$0000000E)
    _printf_llu                              0x0800023d   Thumb Code     0  _printf_llu.o(.ARM.Collect$$_printf_percent$$0000000F)
    _printf_llo                              0x08000243   Thumb Code     0  _printf_llo.o(.ARM.Collect$$_printf_percent$$00000010)
    _printf_llx                              0x08000249   Thumb Code     0  _printf_llx.o(.ARM.Collect$$_printf_percent$$00000011)
    _printf_l                                0x0800024f   Thumb Code     0  _printf_l.o(.ARM.Collect$$_printf_percent$$00000012)
    _printf_c                                0x08000259   Thumb Code     0  _printf_c.o(.ARM.Collect$$_printf_percent$$00000013)
    _printf_s                                0x0800025f   Thumb Code     0  _printf_s.o(.ARM.Collect$$_printf_percent$$00000014)
    _printf_lc                               0x08000265   Thumb Code     0  _printf_lc.o(.ARM.Collect$$_printf_percent$$00000015)
    _printf_ls                               0x0800026b   Thumb Code     0  _printf_ls.o(.ARM.Collect$$_printf_percent$$00000016)
    _printf_percent_end                      0x08000271   Thumb Code     0  _printf_percent_end.o(.ARM.Collect$$_printf_percent$$00000017)
    __rt_lib_init                            0x08000275   Thumb Code     0  libinit.o(.ARM.Collect$$libinit$$00000000)
    __rt_lib_init_fp_1                       0x08000277   Thumb Code     0  libinit2.o(.ARM.Collect$$libinit$$00000002)
    __rt_lib_init_heap_2                     0x08000277   Thumb Code     0  libinit2.o(.ARM.Collect$$libinit$$00000005)
    __rt_lib_init_preinit_1                  0x08000277   Thumb Code     0  libinit2.o(.ARM.Collect$$libinit$$00000004)
    __rt_lib_init_heap_1                     0x0800027f   Thumb Code     0  libinit2.o(.ARM.Collect$$libinit$$0000000A)
    __rt_lib_init_lc_common                  0x0800027f   Thumb Code     0  libinit2.o(.ARM.Collect$$libinit$$0000000F)
    __rt_lib_init_rand_1                     0x0800027f   Thumb Code     0  libinit2.o(.ARM.Collect$$libinit$$0000000E)
    __rt_lib_init_user_alloc_1               0x0800027f   Thumb Code     0  libinit2.o(.ARM.Collect$$libinit$$0000000C)
    __rt_lib_init_lc_collate_1               0x08000285   Thumb Code     0  libinit2.o(.ARM.Collect$$libinit$$00000011)
    __rt_lib_init_lc_ctype_2                 0x08000285   Thumb Code     0  libinit2.o(.ARM.Collect$$libinit$$00000012)
    __rt_lib_init_lc_ctype_1                 0x08000291   Thumb Code     0  libinit2.o(.ARM.Collect$$libinit$$00000013)
    __rt_lib_init_lc_monetary_1              0x08000291   Thumb Code     0  libinit2.o(.ARM.Collect$$libinit$$00000015)
    __rt_lib_init_lc_numeric_2               0x08000291   Thumb Code     0  libinit2.o(.ARM.Collect$$libinit$$00000016)
    __rt_lib_init_alloca_1                   0x0800029b   Thumb Code     0  libinit2.o(.ARM.Collect$$libinit$$0000002E)
    __rt_lib_init_argv_1                     0x0800029b   Thumb Code     0  libinit2.o(.ARM.Collect$$libinit$$0000002C)
    __rt_lib_init_atexit_1                   0x0800029b   Thumb Code     0  libinit2.o(.ARM.Collect$$libinit$$0000001B)
    __rt_lib_init_clock_1                    0x0800029b   Thumb Code     0  libinit2.o(.ARM.Collect$$libinit$$00000021)
    __rt_lib_init_cpp_1                      0x0800029b   Thumb Code     0  libinit2.o(.ARM.Collect$$libinit$$00000032)
    __rt_lib_init_exceptions_1               0x0800029b   Thumb Code     0  libinit2.o(.ARM.Collect$$libinit$$00000030)
    __rt_lib_init_fp_trap_1                  0x0800029b   Thumb Code     0  libinit2.o(.ARM.Collect$$libinit$$0000001F)
    __rt_lib_init_getenv_1                   0x0800029b   Thumb Code     0  libinit2.o(.ARM.Collect$$libinit$$00000023)
    __rt_lib_init_lc_numeric_1               0x0800029b   Thumb Code     0  libinit2.o(.ARM.Collect$$libinit$$00000017)
    __rt_lib_init_lc_time_1                  0x0800029b   Thumb Code     0  libinit2.o(.ARM.Collect$$libinit$$00000019)
    __rt_lib_init_return                     0x0800029b   Thumb Code     0  libinit2.o(.ARM.Collect$$libinit$$00000033)
    __rt_lib_init_signal_1                   0x0800029b   Thumb Code     0  libinit2.o(.ARM.Collect$$libinit$$0000001D)
    __rt_lib_init_stdio_1                    0x0800029b   Thumb Code     0  libinit2.o(.ARM.Collect$$libinit$$00000025)
    __rt_lib_shutdown                        0x0800029d   Thumb Code     0  libshutdown.o(.ARM.Collect$$libshutdown$$00000000)
    __rt_lib_shutdown_fp_trap_1              0x0800029f   Thumb Code     0  libshutdown2.o(.ARM.Collect$$libshutdown$$00000006)
    __rt_lib_shutdown_heap_1                 0x0800029f   Thumb Code     0  libshutdown2.o(.ARM.Collect$$libshutdown$$0000000E)
    __rt_lib_shutdown_return                 0x0800029f   Thumb Code     0  libshutdown2.o(.ARM.Collect$$libshutdown$$0000000F)
    __rt_lib_shutdown_signal_1               0x0800029f   Thumb Code     0  libshutdown2.o(.ARM.Collect$$libshutdown$$00000009)
    __rt_lib_shutdown_stdio_1                0x0800029f   Thumb Code     0  libshutdown2.o(.ARM.Collect$$libshutdown$$00000003)
    __rt_lib_shutdown_user_alloc_1           0x0800029f   Thumb Code     0  libshutdown2.o(.ARM.Collect$$libshutdown$$0000000B)
    __rt_entry                               0x080002a1   Thumb Code     0  __rtentry.o(.ARM.Collect$$rtentry$$00000000)
    __rt_entry_presh_1                       0x080002a1   Thumb Code     0  __rtentry2.o(.ARM.Collect$$rtentry$$00000002)
    __rt_entry_sh                            0x080002a1   Thumb Code     0  __rtentry4.o(.ARM.Collect$$rtentry$$00000004)
    __rt_entry_li                            0x080002a7   Thumb Code     0  __rtentry2.o(.ARM.Collect$$rtentry$$0000000A)
    __rt_entry_postsh_1                      0x080002a7   Thumb Code     0  __rtentry2.o(.ARM.Collect$$rtentry$$00000009)
    __rt_entry_main                          0x080002ab   Thumb Code     0  __rtentry2.o(.ARM.Collect$$rtentry$$0000000D)
    __rt_entry_postli_1                      0x080002ab   Thumb Code     0  __rtentry2.o(.ARM.Collect$$rtentry$$0000000C)
    __rt_exit                                0x080002b3   Thumb Code     0  rtexit.o(.ARM.Collect$$rtexit$$00000000)
    __rt_exit_ls                             0x080002b5   Thumb Code     0  rtexit2.o(.ARM.Collect$$rtexit$$00000003)
    __rt_exit_prels_1                        0x080002b5   Thumb Code     0  rtexit2.o(.ARM.Collect$$rtexit$$00000002)
    __rt_exit_exit                           0x080002b9   Thumb Code     0  rtexit2.o(.ARM.Collect$$rtexit$$00000004)
    Reset_Handler                            0x080002c1   Thumb Code     8  startup_stm32f10x_hd.o(.text)
    _maybe_terminate_alloc                   0x080002c1   Thumb Code     0  maybetermalloc1.o(.emb_text)
    PendSV_Handler                           0x080002d7   Thumb Code     2  startup_stm32f10x_hd.o(.text)
    ADC1_2_IRQHandler                        0x080002db   Thumb Code     0  startup_stm32f10x_hd.o(.text)
    ADC3_IRQHandler                          0x080002db   Thumb Code     0  startup_stm32f10x_hd.o(.text)
    CAN1_RX1_IRQHandler                      0x080002db   Thumb Code     0  startup_stm32f10x_hd.o(.text)
    CAN1_SCE_IRQHandler                      0x080002db   Thumb Code     0  startup_stm32f10x_hd.o(.text)
    DMA1_Channel1_IRQHandler                 0x080002db   Thumb Code     0  startup_stm32f10x_hd.o(.text)
    DMA1_Channel2_IRQHandler                 0x080002db   Thumb Code     0  startup_stm32f10x_hd.o(.text)
    DMA1_Channel3_IRQHandler                 0x080002db   Thumb Code     0  startup_stm32f10x_hd.o(.text)
    DMA1_Channel4_IRQHandler                 0x080002db   Thumb Code     0  startup_stm32f10x_hd.o(.text)
    DMA1_Channel5_IRQHandler                 0x080002db   Thumb Code     0  startup_stm32f10x_hd.o(.text)
    DMA2_Channel1_IRQHandler                 0x080002db   Thumb Code     0  startup_stm32f10x_hd.o(.text)
    DMA2_Channel2_IRQHandler                 0x080002db   Thumb Code     0  startup_stm32f10x_hd.o(.text)
    DMA2_Channel3_IRQHandler                 0x080002db   Thumb Code     0  startup_stm32f10x_hd.o(.text)
    DMA2_Channel4_5_IRQHandler               0x080002db   Thumb Code     0  startup_stm32f10x_hd.o(.text)
    EXTI0_IRQHandler                         0x080002db   Thumb Code     0  startup_stm32f10x_hd.o(.text)
    EXTI15_10_IRQHandler                     0x080002db   Thumb Code     0  startup_stm32f10x_hd.o(.text)
    EXTI1_IRQHandler                         0x080002db   Thumb Code     0  startup_stm32f10x_hd.o(.text)
    EXTI2_IRQHandler                         0x080002db   Thumb Code     0  startup_stm32f10x_hd.o(.text)
    EXTI3_IRQHandler                         0x080002db   Thumb Code     0  startup_stm32f10x_hd.o(.text)
    EXTI4_IRQHandler                         0x080002db   Thumb Code     0  startup_stm32f10x_hd.o(.text)
    EXTI9_5_IRQHandler                       0x080002db   Thumb Code     0  startup_stm32f10x_hd.o(.text)
    FLASH_IRQHandler                         0x080002db   Thumb Code     0  startup_stm32f10x_hd.o(.text)
    FSMC_IRQHandler                          0x080002db   Thumb Code     0  startup_stm32f10x_hd.o(.text)
    I2C1_ER_IRQHandler                       0x080002db   Thumb Code     0  startup_stm32f10x_hd.o(.text)
    I2C1_EV_IRQHandler                       0x080002db   Thumb Code     0  startup_stm32f10x_hd.o(.text)
    I2C2_ER_IRQHandler                       0x080002db   Thumb Code     0  startup_stm32f10x_hd.o(.text)
    I2C2_EV_IRQHandler                       0x080002db   Thumb Code     0  startup_stm32f10x_hd.o(.text)
    PVD_IRQHandler                           0x080002db   Thumb Code     0  startup_stm32f10x_hd.o(.text)
    RCC_IRQHandler                           0x080002db   Thumb Code     0  startup_stm32f10x_hd.o(.text)
    RTCAlarm_IRQHandler                      0x080002db   Thumb Code     0  startup_stm32f10x_hd.o(.text)
    RTC_IRQHandler                           0x080002db   Thumb Code     0  startup_stm32f10x_hd.o(.text)
    SDIO_IRQHandler                          0x080002db   Thumb Code     0  startup_stm32f10x_hd.o(.text)
    SPI1_IRQHandler                          0x080002db   Thumb Code     0  startup_stm32f10x_hd.o(.text)
    SPI2_IRQHandler                          0x080002db   Thumb Code     0  startup_stm32f10x_hd.o(.text)
    SPI3_IRQHandler                          0x080002db   Thumb Code     0  startup_stm32f10x_hd.o(.text)
    TAMPER_IRQHandler                        0x080002db   Thumb Code     0  startup_stm32f10x_hd.o(.text)
    TIM1_BRK_IRQHandler                      0x080002db   Thumb Code     0  startup_stm32f10x_hd.o(.text)
    TIM1_CC_IRQHandler                       0x080002db   Thumb Code     0  startup_stm32f10x_hd.o(.text)
    TIM1_TRG_COM_IRQHandler                  0x080002db   Thumb Code     0  startup_stm32f10x_hd.o(.text)
    TIM1_UP_IRQHandler                       0x080002db   Thumb Code     0  startup_stm32f10x_hd.o(.text)
    TIM2_IRQHandler                          0x080002db   Thumb Code     0  startup_stm32f10x_hd.o(.text)
    TIM3_IRQHandler                          0x080002db   Thumb Code     0  startup_stm32f10x_hd.o(.text)
    TIM4_IRQHandler                          0x080002db   Thumb Code     0  startup_stm32f10x_hd.o(.text)
    TIM5_IRQHandler                          0x080002db   Thumb Code     0  startup_stm32f10x_hd.o(.text)
    TIM6_IRQHandler                          0x080002db   Thumb Code     0  startup_stm32f10x_hd.o(.text)
    TIM7_IRQHandler                          0x080002db   Thumb Code     0  startup_stm32f10x_hd.o(.text)
    TIM8_BRK_IRQHandler                      0x080002db   Thumb Code     0  startup_stm32f10x_hd.o(.text)
    TIM8_CC_IRQHandler                       0x080002db   Thumb Code     0  startup_stm32f10x_hd.o(.text)
    TIM8_TRG_COM_IRQHandler                  0x080002db   Thumb Code     0  startup_stm32f10x_hd.o(.text)
    TIM8_UP_IRQHandler                       0x080002db   Thumb Code     0  startup_stm32f10x_hd.o(.text)
    UART5_IRQHandler                         0x080002db   Thumb Code     0  startup_stm32f10x_hd.o(.text)
    USBWakeUp_IRQHandler                     0x080002db   Thumb Code     0  startup_stm32f10x_hd.o(.text)
    USB_HP_CAN1_TX_IRQHandler                0x080002db   Thumb Code     0  startup_stm32f10x_hd.o(.text)
    WWDG_IRQHandler                          0x080002db   Thumb Code     0  startup_stm32f10x_hd.o(.text)
    __user_initial_stackheap                 0x080002dd   Thumb Code     0  startup_stm32f10x_hd.o(.text)
    malloc                                   0x08000301   Thumb Code    94  h1_alloc.o(.text)
    __c89vsnprintf                           0x08000361   Thumb Code    48  c89vsnprintf.o(.text)
    __2sprintf                               0x08000395   Thumb Code    38  __2sprintf.o(.text)
    _printf_pre_padding                      0x080003c1   Thumb Code    44  _printf_pad.o(.text)
    _printf_post_padding                     0x080003ed   Thumb Code    34  _printf_pad.o(.text)
    _printf_str                              0x0800040f   Thumb Code    82  _printf_str.o(.text)
    _printf_int_dec                          0x08000461   Thumb Code   104  _printf_dec.o(.text)
    _printf_longlong_hex                     0x080004d9   Thumb Code    86  _printf_hex_int_ll_ptr.o(.text)
    _printf_int_hex                          0x0800052f   Thumb Code    28  _printf_hex_int_ll_ptr.o(.text)
    _printf_ll_hex                           0x0800054b   Thumb Code    12  _printf_hex_int_ll_ptr.o(.text)
    _printf_hex_ptr                          0x08000557   Thumb Code    18  _printf_hex_int_ll_ptr.o(.text)
    __printf                                 0x0800056d   Thumb Code   388  __printf_flags_ss_wp.o(.text)
    atoi                                     0x080006f5   Thumb Code    26  atoi.o(.text)
    strtok                                   0x08000711   Thumb Code     6  strtok.o(.text)
    memcmp                                   0x0800071d   Thumb Code    88  memcmp.o(.text)
    strcpy                                   0x08000775   Thumb Code    72  strcpy.o(.text)
    strlen                                   0x080007bd   Thumb Code    62  strlen.o(.text)
    strncmp                                  0x080007fb   Thumb Code   150  strncmp.o(.text)
    __aeabi_memcpy                           0x08000891   Thumb Code     0  rt_memcpy_v6.o(.text)
    __rt_memcpy                              0x08000891   Thumb Code   138  rt_memcpy_v6.o(.text)
    _memcpy_lastbytes                        0x080008f7   Thumb Code     0  rt_memcpy_v6.o(.text)
    __aeabi_memset                           0x0800091b   Thumb Code    16  aeabi_memset.o(.text)
    __aeabi_memclr                           0x0800092b   Thumb Code     0  rt_memclr.o(.text)
    __rt_memclr                              0x0800092b   Thumb Code    68  rt_memclr.o(.text)
    _memset                                  0x0800092f   Thumb Code     0  rt_memclr.o(.text)
    __aeabi_memclr4                          0x0800096f   Thumb Code     0  rt_memclr_w.o(.text)
    __aeabi_memclr8                          0x0800096f   Thumb Code     0  rt_memclr_w.o(.text)
    __rt_memclr_w                            0x0800096f   Thumb Code    78  rt_memclr_w.o(.text)
    _memset_w                                0x08000973   Thumb Code     0  rt_memclr_w.o(.text)
    strncpy                                  0x080009bd   Thumb Code    86  strncpy.o(.text)
    strcmp                                   0x08000a15   Thumb Code   128  strcmpv7m.o(.text)
    __use_two_region_memory                  0x08000a95   Thumb Code     2  heapauxi.o(.text)
    __rt_heap_escrow                         0x08000a97   Thumb Code     2  heapauxi.o(.text)
    __rt_heap_expand                         0x08000a99   Thumb Code     2  heapauxi.o(.text)
    __rt_heap_descriptor                     0x08000a9d   Thumb Code     8  rt_heap_descriptor_intlibspace.o(.text)
    __aeabi_errno_addr                       0x08000aa5   Thumb Code     8  rt_errno_addr_intlibspace.o(.text)
    __errno$intlibspace                      0x08000aa5   Thumb Code     0  rt_errno_addr_intlibspace.o(.text)
    __rt_errno_addr$intlibspace              0x08000aa5   Thumb Code     0  rt_errno_addr_intlibspace.o(.text)
    __use_no_heap                            0x08000aad   Thumb Code     2  hguard.o(.text)
    __heap$guard                             0x08000aaf   Thumb Code     2  hguard.o(.text)
    _terminate_user_alloc                    0x08000ab1   Thumb Code     2  init_alloc.o(.text)
    _init_user_alloc                         0x08000ab3   Thumb Code     2  init_alloc.o(.text)
    __Heap_Full                              0x08000ab5   Thumb Code    34  init_alloc.o(.text)
    __Heap_Broken                            0x08000ad7   Thumb Code     6  init_alloc.o(.text)
    _init_alloc                              0x08000add   Thumb Code    94  init_alloc.o(.text)
    __Heap_Initialize                        0x08000b3b   Thumb Code    10  h1_init.o(.text)
    __Heap_DescSize                          0x08000b45   Thumb Code     4  h1_init.o(.text)
    free                                     0x08000b49   Thumb Code    78  h1_free.o(.text)
    _printf_truncate_signed                  0x08000b97   Thumb Code    18  _printf_truncate.o(.text)
    _printf_truncate_unsigned                0x08000ba9   Thumb Code    18  _printf_truncate.o(.text)
    _printf_int_common                       0x08000bbb   Thumb Code   178  _printf_intcommon.o(.text)
    _printf_charcount                        0x08000c6d   Thumb Code    40  _printf_charcount.o(.text)
    __lib_sel_fp_printf                      0x08000c95   Thumb Code     2  _printf_fp_dec.o(.text)
    _printf_fp_dec_real                      0x08000e43   Thumb Code   620  _printf_fp_dec.o(.text)
    _printf_char_common                      0x080010bb   Thumb Code    32  _printf_char_common.o(.text)
    _sputc                                   0x080010e1   Thumb Code    10  _sputc.o(.text)
    _snputc                                  0x080010eb   Thumb Code    16  _snputc.o(.text)
    _printf_cs_common                        0x080010fb   Thumb Code    20  _printf_char.o(.text)
    _printf_char                             0x0800110f   Thumb Code    16  _printf_char.o(.text)
    _printf_string                           0x0800111f   Thumb Code     8  _printf_char.o(.text)
    _printf_wctomb                           0x08001129   Thumb Code   182  _printf_wctomb.o(.text)
    _printf_longlong_dec                     0x080011e5   Thumb Code   108  _printf_longlong_dec.o(.text)
    _printf_longlong_oct                     0x08001261   Thumb Code    68  _printf_oct_int_ll.o(.text)
    _printf_int_oct                          0x080012a5   Thumb Code    24  _printf_oct_int_ll.o(.text)
    _printf_ll_oct                           0x080012bd   Thumb Code    12  _printf_oct_int_ll.o(.text)
    strtol                                   0x080012d1   Thumb Code   112  strtol.o(.text)
    __strtok_internal                        0x08001341   Thumb Code    64  strtok_int.o(.text)
    __aeabi_memcpy4                          0x08001385   Thumb Code     0  rt_memcpy_w.o(.text)
    __aeabi_memcpy8                          0x08001385   Thumb Code     0  rt_memcpy_w.o(.text)
    __rt_memcpy_w                            0x08001385   Thumb Code   100  rt_memcpy_w.o(.text)
    _memcpy_lastbytes_aligned                0x080013cd   Thumb Code     0  rt_memcpy_w.o(.text)
    __user_libspace                          0x080013e9   Thumb Code     8  libspace.o(.text)
    __user_perproc_libspace                  0x080013e9   Thumb Code     0  libspace.o(.text)
    __user_perthread_libspace                0x080013e9   Thumb Code     0  libspace.o(.text)
    __rt_ctype_table                         0x080013f1   Thumb Code    16  rt_ctype_table.o(.text)
    __rt_locale                              0x08001401   Thumb Code     8  rt_locale_intlibspace.o(.text)
    __Heap_ProvideMemory                     0x08001409   Thumb Code    52  h1_extend.o(.text)
    _ll_udiv10                               0x0800143d   Thumb Code   138  lludiv10.o(.text)
    _printf_fp_infnan                        0x080014c9   Thumb Code   112  _printf_fp_infnan.o(.text)
    _printf_lcs_common                       0x08001549   Thumb Code    20  _printf_wchar.o(.text)
    _printf_wchar                            0x0800155d   Thumb Code    16  _printf_wchar.o(.text)
    _printf_wstring                          0x0800156d   Thumb Code     8  _printf_wchar.o(.text)
    _strtoul                                 0x08001575   Thumb Code   158  _strtoul.o(.text)
    _btod_etento                             0x08001615   Thumb Code   216  bigflt0.o(.text)
    _wcrtomb                                 0x080016f1   Thumb Code    64  _wcrtomb.o(.text)
    __rt_SIGRTMEM                            0x08001731   Thumb Code    14  defsig_rtmem_outer.o(.text)
    strcspn                                  0x0800173f   Thumb Code    32  strcspn.o(.text)
    strspn                                   0x0800175f   Thumb Code    28  strspn.o(.text)
    __I$use$semihosting                      0x0800177b   Thumb Code     0  use_no_semi.o(.text)
    __use_no_semihosting_swi                 0x0800177b   Thumb Code     2  use_no_semi.o(.text)
    __semihosting_library_function           0x0800177d   Thumb Code     0  indicate_semi.o(.text)
    __user_setup_stackheap                   0x0800177d   Thumb Code    74  sys_stackheap_outer.o(.text)
    _chval                                   0x080017c7   Thumb Code    28  _chval.o(.text)
    exit                                     0x080017e3   Thumb Code    12  exit.o(.text)
    __sig_exit                               0x080017ef   Thumb Code    10  defsig_exit.o(.text)
    __rt_SIGRTMEM_inner                      0x080017f9   Thumb Code    22  defsig_rtmem_inner.o(.text)
    _sys_exit                                0x08001849   Thumb Code     8  sys_exit.o(.text)
    __default_signal_display                 0x08001855   Thumb Code    50  defsig_general.o(.text)
    _ttywrch                                 0x08001887   Thumb Code    14  sys_wrch.o(.text)
    _btod_d2e                                0x08001895   Thumb Code    62  btod.o(CL$$btod_d2e)
    _d2e_denorm_low                          0x080018d3   Thumb Code    70  btod.o(CL$$btod_d2e_denorm_low)
    _d2e_norm_op1                            0x08001919   Thumb Code    96  btod.o(CL$$btod_d2e_norm_op1)
    __btod_div_common                        0x08001979   Thumb Code   696  btod.o(CL$$btod_div_common)
    _e2e                                     0x08001cb1   Thumb Code   198  btod.o(CL$$btod_e2e)
    _btod_ediv                               0x08001d77   Thumb Code    40  btod.o(CL$$btod_ediv)
    _btod_emul                               0x08001d9f   Thumb Code    40  btod.o(CL$$btod_emul)
    __btod_mult_common                       0x08001dc7   Thumb Code   580  btod.o(CL$$btod_mult_common)
    ASCIIToHex                               0x0800200b   Thumb Code    52  comm.o(i.ASCIIToHex)
    ATCmdParse                               0x080020a5   Thumb Code  2998  gc65.o(i.ATCmdParse)
    ATCmdSetAPN                              0x08002d31   Thumb Code    38  gc65.o(i.ATCmdSetAPN)
    ATstrToInt32U                            0x08002d75   Thumb Code    62  gc65.o(i.ATstrToInt32U)
    AckPacket                                0x08002db3   Thumb Code    90  app_protocol.o(i.AckPacket)
    AlarmEventDeal                           0x08002e0d   Thumb Code   594  app_alarmevent.o(i.AlarmEventDeal)
    AlarmEventInit                           0x0800308d   Thumb Code   338  app_alarmevent.o(i.AlarmEventInit)
    AlarmFilterTimer                         0x08003285   Thumb Code    30  app_alarmevent.o(i.AlarmFilterTimer)
    Alarm_Filter_Deal                        0x080032ad   Thumb Code    70  app_alarmevent.o(i.Alarm_Filter_Deal)
    AppDebugInit                             0x080032fd   Thumb Code    50  app_debug.o(i.AppDebugInit)
    BigEndConvert                            0x08003335   Thumb Code    54  app_dtucfg.o(i.BigEndConvert)
    BufExchange                              0x0800336b   Thumb Code    28  comm.o(i.BufExchange)
    BusFault_Handler                         0x08003387   Thumb Code     4  stm32f10x_it.o(i.BusFault_Handler)
    CAN_DeInit                               0x0800338d   Thumb Code    50  stm32f10x_can.o(i.CAN_DeInit)
    CAN_FilterInit                           0x080033c5   Thumb Code   258  stm32f10x_can.o(i.CAN_FilterInit)
    CAN_ITConfig                             0x080034cd   Thumb Code    18  stm32f10x_can.o(i.CAN_ITConfig)
    CAN_Init                                 0x080034df   Thumb Code   276  stm32f10x_can.o(i.CAN_Init)
    CAN_MessagePending                       0x080035f3   Thumb Code    30  stm32f10x_can.o(i.CAN_MessagePending)
    CAN_Receive                              0x08003611   Thumb Code   240  stm32f10x_can.o(i.CAN_Receive)
    CAN_StructInit                           0x08003701   Thumb Code    32  stm32f10x_can.o(i.CAN_StructInit)
    CAN_Transmit                             0x08003721   Thumb Code   294  stm32f10x_can.o(i.CAN_Transmit)
    CRC16_1                                  0x08003849   Thumb Code    48  comm.o(i.CRC16_1)
    CRC32Calc                                0x08003881   Thumb Code    42  crc32.o(i.CRC32Calc)
    CRC32CalcReset                           0x080038b5   Thumb Code    10  crc32.o(i.CRC32CalcReset)
    CanBus_ISR_Rx                            0x080038c5   Thumb Code    30  app_vfd.o(i.CanBus_ISR_Rx)
    Can_Config                               0x080038ed   Thumb Code   150  bsp.o(i.Can_Config)
    CharConvert                              0x08003989   Thumb Code    16  comm.o(i.CharConvert)
    ChgVfdAddr                               0x08003999   Thumb Code     4  app_vfd.o(i.ChgVfdAddr)
    ClearHeartTimer                          0x0800399d   Thumb Code    10  app_protocol.o(i.ClearHeartTimer)
    ConverseTimeNum                          0x080039ad   Thumb Code   124  app_rtc.o(i.ConverseTimeNum)
    DMA1_Channel6_IRQHandler                 0x08003a2d   Thumb Code    54  gc65_bsp.o(i.DMA1_Channel6_IRQHandler)
    DMA1_Channel7_IRQHandler                 0x08003a71   Thumb Code    42  stm32f10x_it.o(i.DMA1_Channel7_IRQHandler)
    DMA_ClearFlag                            0x08003aa5   Thumb Code    18  stm32f10x_dma.o(i.DMA_ClearFlag)
    DMA_Cmd                                  0x08003ac1   Thumb Code    24  stm32f10x_dma.o(i.DMA_Cmd)
    DMA_DeInit                               0x08003ad9   Thumb Code   324  stm32f10x_dma.o(i.DMA_DeInit)
    DMA_GetFlagStatus                        0x08003c25   Thumb Code    36  stm32f10x_dma.o(i.DMA_GetFlagStatus)
    DMA_ITConfig                             0x08003c51   Thumb Code    18  stm32f10x_dma.o(i.DMA_ITConfig)
    DMA_Init                                 0x08003c63   Thumb Code    60  stm32f10x_dma.o(i.DMA_Init)
    DWordToBuf                               0x08003c9f   Thumb Code    28  comm.o(i.DWordToBuf)
    DebugFtpTest                             0x08003d09   Thumb Code    18  app_usrcmd.o(i.DebugFtpTest)
    DebugMon_Handler                         0x08003d1b   Thumb Code     2  stm32f10x_it.o(i.DebugMon_Handler)
    DebugMsg                                 0x08003d1d   Thumb Code   186  app_debug.o(i.DebugMsg)
    DebugStrMsg                              0x08003e1d   Thumb Code    36  app_debug.o(i.DebugStrMsg)
    DelayReConnect                           0x08003e8d   Thumb Code    40  gc65.o(i.DelayReConnect)
    DevFourByteToDWord                       0x08003ebd   Thumb Code    28  comm.o(i.DevFourByteToDWord)
    DevFourByteToU16                         0x08003ed9   Thumb Code    80  comm.o(i.DevFourByteToU16)
    DevParaDefault                           0x08003f29   Thumb Code   462  app_para.o(i.DevParaDefault)
    DevParaWrite                             0x08004301   Thumb Code   284  app_para.o(i.DevParaWrite)
    DevStatToSystem                          0x08004439   Thumb Code   278  app_protocol.o(i.DevStatToSystem)
    DevTwoByteToWord                         0x08004569   Thumb Code    14  comm.o(i.DevTwoByteToWord)
    DriveCan_sendData                        0x08004579   Thumb Code    74  app_vfd.o(i.DriveCan_sendData)
    FLASH_ClearFlag                          0x080045c9   Thumb Code     6  stm32f10x_flash.o(i.FLASH_ClearFlag)
    FLASH_ErasePage                          0x080045d5   Thumb Code    72  stm32f10x_flash.o(i.FLASH_ErasePage)
    FLASH_GetBank1Status                     0x08004621   Thumb Code    48  stm32f10x_flash.o(i.FLASH_GetBank1Status)
    FLASH_Lock                               0x08004655   Thumb Code    14  stm32f10x_flash.o(i.FLASH_Lock)
    FLASH_ProgramWord                        0x08004669   Thumb Code   102  stm32f10x_flash.o(i.FLASH_ProgramWord)
    FLASH_Unlock                             0x080046d5   Thumb Code    12  stm32f10x_flash.o(i.FLASH_Unlock)
    FLASH_WaitForLastOperation               0x080046ed   Thumb Code    38  stm32f10x_flash.o(i.FLASH_WaitForLastOperation)
    FTPConnectRequestSet                     0x08004715   Thumb Code    18  app_upgrade.o(i.FTPConnectRequestSet)
    FeedDog                                  0x0800472d   Thumb Code     2  bsp.o(i.FeedDog)
    FieldValOffset                           0x0800472f   Thumb Code    26  app_para.o(i.FieldValOffset)
    FlashBufferRead                          0x08004749   Thumb Code    70  spiflashdev.o(i.FlashBufferRead)
    FlashBufferWrite                         0x08004791   Thumb Code   258  spiflashdev.o(i.FlashBufferWrite)
    FlashHalInit                             0x08004899   Thumb Code   192  spiflashhal.o(i.FlashHalInit)
    FlashLockCreate                          0x08004969   Thumb Code     2  spiflashusr.o(i.FlashLockCreate)
    FlashLockPend                            0x0800496b   Thumb Code     2  spiflashusr.o(i.FlashLockPend)
    FlashLockPost                            0x0800496d   Thumb Code     2  spiflashusr.o(i.FlashLockPost)
    FlashReadID                              0x080049c9   Thumb Code    60  spiflashdev.o(i.FlashReadID)
    FlashSPISend                             0x08004a25   Thumb Code    52  spiflashhal.o(i.FlashSPISend)
    FlashSectorErase_4KByte                  0x08004a5d   Thumb Code    64  spiflashdev.o(i.FlashSectorErase_4KByte)
    FlashSelect                              0x08004a9d   Thumb Code    26  spiflashhal.o(i.FlashSelect)
    FtpDataGetFlag                           0x08004b21   Thumb Code    34  app_upgrade.o(i.FtpDataGetFlag)
    FtpInfoInit                              0x08004b49   Thumb Code   136  app_upgrade.o(i.FtpInfoInit)
    FtpTimeDelay                             0x08004bfd   Thumb Code    18  app_upgrade.o(i.FtpTimeDelay)
    GB_GeneralAck                            0x08004c15   Thumb Code   144  app_protocol.o(i.GB_GeneralAck)
    GB_GetAckMsgHead                         0x08004cc9   Thumb Code    82  app_protocol.o(i.GB_GetAckMsgHead)
    GB_GetMsgHead                            0x08004d25   Thumb Code   102  app_protocol.o(i.GB_GetMsgHead)
    GC65Timer                                0x08004d95   Thumb Code    86  gc65.o(i.GC65Timer)
    GPIO_Configuration                       0x08004df1   Thumb Code   318  bsp.o(i.GPIO_Configuration)
    GPIO_Init                                0x08004f41   Thumb Code   278  stm32f10x_gpio.o(i.GPIO_Init)
    GPIO_PinRemapConfig                      0x08005059   Thumb Code   138  stm32f10x_gpio.o(i.GPIO_PinRemapConfig)
    GPIO_ResetBits                           0x080050e9   Thumb Code     4  stm32f10x_gpio.o(i.GPIO_ResetBits)
    GPIO_SetBits                             0x080050ed   Thumb Code     4  stm32f10x_gpio.o(i.GPIO_SetBits)
    GPRSDataDeal                             0x080050f1   Thumb Code   476  app_protocol.o(i.GPRSDataDeal)
    GPRSUartDMAInit                          0x08005355   Thumb Code   128  gc65_bsp.o(i.GPRSUartDMAInit)
    GetAckVaule                              0x080053dd   Thumb Code     6  app_protocol.o(i.GetAckVaule)
    GetEventInfo                             0x08005421   Thumb Code  4380  app_protocol.o(i.GetEventInfo)
    GetGprsUartDMABuf                        0x0800660d   Thumb Code     6  gc65_bsp.o(i.GetGprsUartDMABuf)
    GetHeartData                             0x08006619   Thumb Code   252  app_protocol.o(i.GetHeartData)
    GetMeter2ReadAddr                        0x08006731   Thumb Code    28  app_plt.o(i.GetMeter2ReadAddr)
    GetMeterReadAddr                         0x08006755   Thumb Code    28  app_plt.o(i.GetMeterReadAddr)
    GetMultLoc                               0x08006779   Thumb Code   132  gc65.o(i.GetMultLoc)
    GetPlt1SpecPara                          0x08006801   Thumb Code   324  app_plt.o(i.GetPlt1SpecPara)
    GetPlt2SpecPara                          0x0800694d   Thumb Code   268  app_plt.o(i.GetPlt2SpecPara)
    GetPlt3SpecPara                          0x08006a5d   Thumb Code   158  app_plt.o(i.GetPlt3SpecPara)
    GetPltAllPara                            0x08006b05   Thumb Code   654  app_plt.o(i.GetPltAllPara)
    GetPltReadAddr                           0x08006dc9   Thumb Code   164  app_plt.o(i.GetPltReadAddr)
    GetRegister                              0x08006e81   Thumb Code    76  app_protocol.o(i.GetRegister)
    GetRsp                                   0x08006ee5   Thumb Code    46  app_protocol.o(i.GetRsp)
    GetRtctime                               0x08006f15   Thumb Code   272  app_rtc.o(i.GetRtctime)
    GetUpdateData                            0x0800721d   Thumb Code    70  app_protocol.o(i.GetUpdateData)
    GetVfdOptInfo                            0x08007269   Thumb Code   108  app_protocol.o(i.GetVfdOptInfo)
    GprsAppInit                              0x08007301   Thumb Code    54  gc65.o(i.GprsAppInit)
    GprsDMAReceiveDisable                    0x08007351   Thumb Code    42  gc65_bsp.o(i.GprsDMAReceiveDisable)
    GprsParaInit                             0x08007389   Thumb Code    64  gc65.o(i.GprsParaInit)
    GprsReAPN                                0x080073d1   Thumb Code    50  gc65.o(i.GprsReAPN)
    GprsReConnect                            0x08007409   Thumb Code    40  gc65.o(i.GprsReConnect)
    GprsReadNetTime                          0x08007435   Thumb Code   214  app_rtc.o(i.GprsReadNetTime)
    GprsReadQeng                             0x08007511   Thumb Code   444  gc65.o(i.GprsReadQeng)
    GprsSndDataAccept                        0x080076d5   Thumb Code    28  gc65.o(i.GprsSndDataAccept)
    GprsSndDataFlush                         0x080076f5   Thumb Code    12  gc65.o(i.GprsSndDataFlush)
    GprsSndDataPost                          0x08007705   Thumb Code    22  gc65.o(i.GprsSndDataPost)
    GprsUART_SetDMAReceive                   0x08007721   Thumb Code    68  gc65_bsp.o(i.GprsUART_SetDMAReceive)
    GprsUartCmd                              0x0800776d   Thumb Code    18  gc65_bsp.o(i.GprsUartCmd)
    GprsUartDMAReceive                       0x08007781   Thumb Code    22  gc65_bsp.o(i.GprsUartDMAReceive)
    GprsUartIsr                              0x080077a1   Thumb Code   892  gc65.o(i.GprsUartIsr)
    HardFault_Handler                        0x08007b35   Thumb Code     4  stm32f10x_it.o(i.HardFault_Handler)
    HardWareInit                             0x08007b39   Thumb Code   194  bsp.o(i.HardWareInit)
    HaveDataSend                             0x08007c0d   Thumb Code   188  gc65.o(i.HaveDataSend)
    Hex2Float                                0x08007cd5   Thumb Code     6  comm.o(i.Hex2Float)
    Init485Uart                              0x08007cdd   Thumb Code   144  bsp.o(i.Init485Uart)
    InitCan                                  0x08007d75   Thumb Code   114  bsp.o(i.InitCan)
    InitIWDG                                 0x08007ded   Thumb Code     2  bsp.o(i.InitIWDG)
    InitUart                                 0x08007df1   Thumb Code   544  bsp.o(i.InitUart)
    InsertTo                                 0x08008031   Thumb Code    50  gc65.o(i.InsertTo)
    InterruptConfig                          0x08008069   Thumb Code   168  bsp.o(i.InterruptConfig)
    IsIp                                     0x08008111   Thumb Code   108  comm.o(i.IsIp)
    IsModbusMaster                           0x0800817d   Thumb Code    10  app_vfd.o(i.IsModbusMaster)
    IsNumber                                 0x08008187   Thumb Code    40  comm.o(i.IsNumber)
    IsReg                                    0x080081b1   Thumb Code    10  app_protocol.o(i.IsReg)
    JSON_AddrAndDataToObject                 0x080081c1   Thumb Code   468  app_json.o(i.JSON_AddrAndDataToObject)
    JSON_AddrListExtract                     0x08008401   Thumb Code    78  app_json.o(i.JSON_AddrListExtract)
    JSON_AddrNumberDataToObject              0x08008459   Thumb Code   102  app_json.o(i.JSON_AddrNumberDataToObject)
    JSON_AddrStringDataToObject              0x080084e9   Thumb Code    34  app_json.o(i.JSON_AddrStringDataToObject)
    JSON_ArrayExtract                        0x08008519   Thumb Code   266  app_json.o(i.JSON_ArrayExtract)
    JSON_EventNoInfToObject                  0x08008625   Thumb Code    26  app_json.o(i.JSON_EventNoInfToObject)
    JSON_EventWithInfToObject                0x0800864d   Thumb Code    98  app_json.o(i.JSON_EventWithInfToObject)
    JSON_Extract                             0x080086e5   Thumb Code   164  app_json.o(i.JSON_Extract)
    JSON_ExtractObjNode                      0x08008789   Thumb Code   428  app_json.o(i.JSON_ExtractObjNode)
    JSON_FlowDataToObject                    0x08008935   Thumb Code   412  app_json.o(i.JSON_FlowDataToObject)
    JSON_IsObjectBegin                       0x08008b2d   Thumb Code    38  app_json.o(i.JSON_IsObjectBegin)
    JSON_MeterDataToObject                   0x08008b55   Thumb Code   498  app_json.o(i.JSON_MeterDataToObject)
    JSON_NumberValToObject                   0x08008d91   Thumb Code    34  app_json.o(i.JSON_NumberValToObject)
    JSON_ObjectBegin                         0x08008dc1   Thumb Code     8  app_json.o(i.JSON_ObjectBegin)
    JSON_ObjectEnd                           0x08008dcd   Thumb Code    40  app_json.o(i.JSON_ObjectEnd)
    JSON_RtcTimeGet                          0x08008df5   Thumb Code   294  app_protocol.o(i.JSON_RtcTimeGet)
    JSON_StringValToObject                   0x08008f21   Thumb Code    34  app_json.o(i.JSON_StringValToObject)
    LeapYear                                 0x08008f51   Thumb Code    58  app_rtc.o(i.LeapYear)
    LedOnSet                                 0x08008f8d   Thumb Code    86  app_led.o(i.LedOnSet)
    Led_Indicate_Init                        0x0800909d   Thumb Code    56  app_led.o(i.Led_Indicate_Init)
    MemManage_Handler                        0x080090dd   Thumb Code     4  stm32f10x_it.o(i.MemManage_Handler)
    Meter2ClrTimeOut                         0x080090e1   Thumb Code    34  app_vfd.o(i.Meter2ClrTimeOut)
    MeterClrTimeOut                          0x08009109   Thumb Code    34  app_vfd.o(i.MeterClrTimeOut)
    MeterWaitResp                            0x08009195   Thumb Code     8  app_vfd.o(i.MeterWaitResp)
    ModbusAddrInit                           0x080091a1   Thumb Code    36  app_vfd.o(i.ModbusAddrInit)
    ModbusDelay                              0x080091c5   Thumb Code    14  app_vfd.o(i.ModbusDelay)
    ModbusFunInit                            0x080091d3   Thumb Code    22  app_vfd.o(i.ModbusFunInit)
    ModbusOvTmInit                           0x080091e9   Thumb Code    10  app_vfd.o(i.ModbusOvTmInit)
    ModbusRcvCrcChk                          0x080091f3   Thumb Code    60  app_vfd.o(i.ModbusRcvCrcChk)
    ModbusRcvFinish                          0x0800922f   Thumb Code    56  app_vfd.o(i.ModbusRcvFinish)
    ModbusRcvTimeOut                         0x08009267   Thumb Code    48  app_vfd.o(i.ModbusRcvTimeOut)
    ModbusSendNextChar                       0x08009297   Thumb Code    82  app_vfd.o(i.ModbusSendNextChar)
    ModbusStartSend                          0x080092e9   Thumb Code    66  app_vfd.o(i.ModbusStartSend)
    ModbusUartIsr                            0x0800932b   Thumb Code    80  app_vfd.o(i.ModbusUartIsr)
    ModelIsFtping                            0x0800937d   Thumb Code    10  app_upgrade.o(i.ModelIsFtping)
    MultFunInit                              0x0800938d   Thumb Code   144  app_multfun.o(i.MultFunInit)
    NMI_Handler                              0x0800945d   Thumb Code     2  stm32f10x_it.o(i.NMI_Handler)
    NVIC_Init                                0x08009461   Thumb Code   100  misc.o(i.NVIC_Init)
    NVIC_PriorityGroupConfig                 0x080094d1   Thumb Code    10  misc.o(i.NVIC_PriorityGroupConfig)
    NetFourByteToDWord                       0x0800950d   Thumb Code    28  comm.o(i.NetFourByteToDWord)
    NetTwoByteToWord                         0x08009529   Thumb Code    14  comm.o(i.NetTwoByteToWord)
    Packet                                   0x08009645   Thumb Code    90  app_protocol.o(i.Packet)
    PipeDataValid                            0x0800969f   Thumb Code    16  pipe.o(i.PipeDataValid)
    Plt3SysVarRead                           0x080096b1   Thumb Code  1600  app_plt.o(i.Plt3SysVarRead)
    PltDevDataPrase                          0x08009cf5   Thumb Code  3308  app_plt.o(i.PltDevDataPrase)
    PltDevMan860DataPrase                    0x0800a9e1   Thumb Code  1410  app_plt.o(i.PltDevMan860DataPrase)
    PltMam6080OtherDataPrase                 0x0800af6d   Thumb Code  1382  app_plt.o(i.PltMam6080OtherDataPrase)
    PltMam6080OtherVarRead                   0x0800b4d9   Thumb Code  1682  app_plt.o(i.PltMam6080OtherVarRead)
    PltParaWrite                             0x0800bb71   Thumb Code   710  app_vfd.o(i.PltParaWrite)
    PltSysVarWriter                          0x0800be59   Thumb Code   470  app_plt.o(i.PltSysVarWriter)
    Plt_Fault_Deal                           0x0800c069   Thumb Code   264  app_plt.o(i.Plt_Fault_Deal)
    Plt_PreAlarm_Deal                        0x0800c175   Thumb Code    26  app_plt.o(i.Plt_PreAlarm_Deal)
    Plt_RunStata_Deal                        0x0800c191   Thumb Code   152  app_plt.o(i.Plt_RunStata_Deal)
    ProDataSend                              0x0800c231   Thumb Code   338  app_protocol.o(i.ProDataSend)
    ProSendInit                              0x0800c3ed   Thumb Code    40  app_protocol.o(i.ProSendInit)
    RCC_AHBPeriphClockCmd                    0x0800c41d   Thumb Code    26  stm32f10x_rcc.o(i.RCC_AHBPeriphClockCmd)
    RCC_APB1PeriphClockCmd                   0x0800c43d   Thumb Code    26  stm32f10x_rcc.o(i.RCC_APB1PeriphClockCmd)
    RCC_APB1PeriphResetCmd                   0x0800c45d   Thumb Code    26  stm32f10x_rcc.o(i.RCC_APB1PeriphResetCmd)
    RCC_APB2PeriphClockCmd                   0x0800c47d   Thumb Code    26  stm32f10x_rcc.o(i.RCC_APB2PeriphClockCmd)
    RCC_ClearFlag                            0x0800c49d   Thumb Code    14  stm32f10x_rcc.o(i.RCC_ClearFlag)
    RCC_GetClocksFreq                        0x0800c4b1   Thumb Code   192  stm32f10x_rcc.o(i.RCC_GetClocksFreq)
    RS4850_ChgToRcv                          0x0800c585   Thumb Code    36  app_vfd.o(i.RS4850_ChgToRcv)
    RS4850_ChgToSnd                          0x0800c5b1   Thumb Code    62  app_vfd.o(i.RS4850_ChgToSnd)
    RS4851_ChgToRcv                          0x0800c5f9   Thumb Code    36  app_vfd.o(i.RS4851_ChgToRcv)
    RS4851_ChgToSnd                          0x0800c625   Thumb Code    60  app_vfd.o(i.RS4851_ChgToSnd)
    RS4852_ChgToRcv                          0x0800c669   Thumb Code    36  app_vfd.o(i.RS4852_ChgToRcv)
    RS4852_ChgToSnd                          0x0800c695   Thumb Code    62  app_vfd.o(i.RS4852_ChgToSnd)
    RS485CfgResp                             0x0800c6dd   Thumb Code    36  app_debug.o(i.RS485CfgResp)
    RS485ComInit                             0x0800c705   Thumb Code    48  app_vfd.o(i.RS485ComInit)
    RS485SndDly                              0x0800c741   Thumb Code    18  app_debug.o(i.RS485SndDly)
    RTC_GmtToBjTime                          0x0800c755   Thumb Code   186  app_rtc.o(i.RTC_GmtToBjTime)
    ReadIndexChg                             0x0800c815   Thumb Code   142  app_vfd.o(i.ReadIndexChg)
    RebootDelay                              0x0800c8ad   Thumb Code    26  app_protocol.o(i.RebootDelay)
    RebootRequest                            0x0800c8cd   Thumb Code     8  app_upgrade.o(i.RebootRequest)
    RegTimerErrCode                          0x0800c8d9   Thumb Code   110  app_multfun.o(i.RegTimerErrCode)
    RegTimerInit                             0x0800c951   Thumb Code    22  app_multfun.o(i.RegTimerInit)
    RegTimerRun                              0x0800c96d   Thumb Code   118  app_multfun.o(i.RegTimerRun)
    RegTimerStop                             0x0800c9e9   Thumb Code    14  app_multfun.o(i.RegTimerStop)
    RemoveBlackatoi                          0x0800c9fd   Thumb Code    26  gc65.o(i.RemoveBlackatoi)
    ReturnToInserStage                       0x0800ca19   Thumb Code    32  gc65.o(i.ReturnToInserStage)
    Rs485ComLed                              0x0800ca3d   Thumb Code    50  app_led.o(i.Rs485ComLed)
    Rs485ComOptResultAlarm                   0x0800ca7d   Thumb Code   232  app_vfd.o(i.Rs485ComOptResultAlarm)
    SPIFlashErase4K                          0x0800cb81   Thumb Code    22  spiflash.o(i.SPIFlashErase4K)
    SPIFlashInit                             0x0800cb97   Thumb Code    32  spiflash.o(i.SPIFlashInit)
    SPIFlashRead                             0x0800cbb7   Thumb Code    30  spiflash.o(i.SPIFlashRead)
    SPIFlashWrite                            0x0800cbd5   Thumb Code    30  spiflash.o(i.SPIFlashWrite)
    SPI_Cmd                                  0x0800cbf3   Thumb Code    24  stm32f10x_spi.o(i.SPI_Cmd)
    SPI_I2S_GetFlagStatus                    0x0800cc0b   Thumb Code    18  stm32f10x_spi.o(i.SPI_I2S_GetFlagStatus)
    SPI_I2S_ReceiveData                      0x0800cc1d   Thumb Code     6  stm32f10x_spi.o(i.SPI_I2S_ReceiveData)
    SPI_I2S_SendData                         0x0800cc23   Thumb Code     4  stm32f10x_spi.o(i.SPI_I2S_SendData)
    SPI_Init                                 0x0800cc27   Thumb Code    60  stm32f10x_spi.o(i.SPI_Init)
    SST25V_DBSY                              0x0800cc63   Thumb Code    24  spiflashdev.o(i.SST25V_DBSY)
    SST25V_EnableWriteStatusRegister         0x0800cc7b   Thumb Code    24  spiflashdev.o(i.SST25V_EnableWriteStatusRegister)
    SST25V_WriteStatusRegister               0x0800cc93   Thumb Code    36  spiflashdev.o(i.SST25V_WriteStatusRegister)
    SVC_Handler                              0x0800ccb7   Thumb Code     2  stm32f10x_it.o(i.SVC_Handler)
    SendATCondition                          0x0800ccb9   Thumb Code   240  gc65.o(i.SendATCondition)
    SendIPDATA                               0x0800cdb1   Thumb Code    42  gc65.o(i.SendIPDATA)
    ServerCmdDeal                            0x0800cde1   Thumb Code  1402  app_protocol.o(i.ServerCmdDeal)
    ServerCmd_Head_Deal                      0x0800d399   Thumb Code   144  app_protocol.o(i.ServerCmd_Head_Deal)
    ServerDataGetRespond                     0x0800d441   Thumb Code   440  app_protocol.o(i.ServerDataGetRespond)
    ServerParaSet                            0x0800d629   Thumb Code   608  app_protocol.o(i.ServerParaSet)
    ServerTimeSet                            0x0800d895   Thumb Code   276  app_rtc.o(i.ServerTimeSet)
    Server_Writer_Data_Buf                   0x0800d9b1   Thumb Code    98  app_plt.o(i.Server_Writer_Data_Buf)
    Server_Writer_Data_SendBuf               0x0800da1d   Thumb Code    88  app_plt.o(i.Server_Writer_Data_SendBuf)
    SetMeterReadIndex                        0x0800dad1   Thumb Code   112  app_vfd.o(i.SetMeterReadIndex)
    SetParaSaveFlag                          0x0800db4d   Thumb Code    94  app_protocol.o(i.SetParaSaveFlag)
    SetRemoteOptResult                       0x0800dbb1   Thumb Code    36  app_vfd.o(i.SetRemoteOptResult)
    Simulation                               0x0800dcc5   Thumb Code   114  simulation.o(i.Simulation)
    SoftWareInit                             0x0800dd39   Thumb Code    74  main.o(i.SoftWareInit)
    SpecAddrRead                             0x0800de69   Thumb Code   324  app_para.o(i.SpecAddrRead)
    Start_Stop_Filter                        0x0800dfb9   Thumb Code    34  app_alarmevent.o(i.Start_Stop_Filter)
    StringToHex                              0x0800dfe5   Thumb Code   170  comm.o(i.StringToHex)
    SysAppInfUpdate                          0x0800e091   Thumb Code    48  app_upgrade.o(i.SysAppInfUpdate)
    SysComLed                                0x0800e0d1   Thumb Code   218  app_led.o(i.SysComLed)
    SysParaRead                              0x0800e1b9   Thumb Code   188  app_para.o(i.SysParaRead)
    SysParaStorage                           0x0800e2b5   Thumb Code   216  app_para.o(i.SysParaStorage)
    SysTick_Handler                          0x0800e3fd   Thumb Code   256  stm32f10x_it.o(i.SysTick_Handler)
    SysTime_Delay                            0x0800e51d   Thumb Code    22  app_rtc.o(i.SysTime_Delay)
    SysTime_Fresh                            0x0800e533   Thumb Code    18  app_rtc.o(i.SysTime_Fresh)
    SysTime_Get                              0x0800e545   Thumb Code     6  app_rtc.o(i.SysTime_Get)
    SysTime_Updata                           0x0800e551   Thumb Code    46  app_rtc.o(i.SysTime_Updata)
    SysVarInit                               0x0800e58d   Thumb Code    32  app_para.o(i.SysVarInit)
    SysVarRead                               0x0800e5d5   Thumb Code   474  app_para.o(i.SysVarRead)
    SystemInit                               0x0800e7bd   Thumb Code    78  system_stm32f10x.o(i.SystemInit)
    TaskGC65                                 0x0800e81d   Thumb Code  7826  gc65.o(i.TaskGC65)
    Task_Meter2Comm                          0x08010749   Thumb Code   520  app_vfd.o(i.Task_Meter2Comm)
    Task_Meter2Deal                          0x0801096d   Thumb Code   418  app_vfd.o(i.Task_Meter2Deal)
    Task_Meter2Init                          0x08010b31   Thumb Code    58  app_vfd.o(i.Task_Meter2Init)
    Task_MeterComm                           0x08010b79   Thumb Code   610  app_vfd.o(i.Task_MeterComm)
    Task_MeterDeal                           0x08010e01   Thumb Code   400  app_vfd.o(i.Task_MeterDeal)
    Task_MeterInit                           0x08010fa9   Thumb Code    62  app_vfd.o(i.Task_MeterInit)
    Task_MultFun_1s                          0x08010ff5   Thumb Code   388  app_multfun.o(i.Task_MultFun_1s)
    Task_ProDeal                             0x080111b5   Thumb Code    68  app_protocol.o(i.Task_ProDeal)
    Task_ProSend                             0x08011205   Thumb Code  1464  app_protocol.o(i.Task_ProSend)
    Task_VfdComm                             0x080117d1   Thumb Code   868  app_vfd.o(i.Task_VfdComm)
    Task_VfdDeal                             0x08011b75   Thumb Code   764  app_vfd.o(i.Task_VfdDeal)
    Task_VfdInit                             0x08011e91   Thumb Code    76  app_vfd.o(i.Task_VfdInit)
    UART4_IRQHandler                         0x08011eed   Thumb Code   124  stm32f10x_it.o(i.UART4_IRQHandler)
    USART1_IRQHandler                        0x08011f71   Thumb Code   274  stm32f10x_it.o(i.USART1_IRQHandler)
    USART2_IRQHandler                        0x080120a5   Thumb Code   128  stm32f10x_it.o(i.USART2_IRQHandler)
    USART3_IRQHandler                        0x08012129   Thumb Code   124  stm32f10x_it.o(i.USART3_IRQHandler)
    USART_ClearFlag                          0x080121ad   Thumb Code    18  stm32f10x_usart.o(i.USART_ClearFlag)
    USART_ClearITPendingBit                  0x080121bf   Thumb Code    30  stm32f10x_usart.o(i.USART_ClearITPendingBit)
    USART_Cmd                                0x080121dd   Thumb Code    24  stm32f10x_usart.o(i.USART_Cmd)
    USART_DMACmd                             0x080121f5   Thumb Code    18  stm32f10x_usart.o(i.USART_DMACmd)
    USART_GetFlagStatus                      0x08012207   Thumb Code    26  stm32f10x_usart.o(i.USART_GetFlagStatus)
    USART_GetITStatus                        0x08012221   Thumb Code    84  stm32f10x_usart.o(i.USART_GetITStatus)
    USART_ITConfig                           0x08012275   Thumb Code    74  stm32f10x_usart.o(i.USART_ITConfig)
    USART_Init                               0x080122c1   Thumb Code   210  stm32f10x_usart.o(i.USART_Init)
    USART_ReceiveData                        0x08012399   Thumb Code    10  stm32f10x_usart.o(i.USART_ReceiveData)
    USART_SendData                           0x080123a3   Thumb Code     8  stm32f10x_usart.o(i.USART_SendData)
    USB_LP_CAN1_RX0_IRQHandler               0x080123ad   Thumb Code    50  stm32f10x_it.o(i.USB_LP_CAN1_RX0_IRQHandler)
    UartFirstChar                            0x080123e5   Thumb Code    34  uart.o(i.UartFirstChar)
    UartIntSendData                          0x08012409   Thumb Code    84  uart.o(i.UartIntSendData)
    UartRcvTimeOut                           0x08012465   Thumb Code    48  stm32f10x_it.o(i.UartRcvTimeOut)
    UartSendData                             0x0801249d   Thumb Code   242  uart.o(i.UartSendData)
    UartTimerOver                            0x080125a9   Thumb Code    58  uart.o(i.UartTimerOver)
    UpdateFileCrcCheck                       0x080125e5   Thumb Code   168  app_upgrade.o(i.UpdateFileCrcCheck)
    UpdateFileGet                            0x080126c5   Thumb Code    78  app_upgrade.o(i.UpdateFileGet)
    UpdateFileWrite                          0x0801272d   Thumb Code   140  app_upgrade.o(i.UpdateFileWrite)
    UpgradeFlagSet                           0x080127ed   Thumb Code    30  app_upgrade.o(i.UpgradeFlagSet)
    UpgradeSectorErase                       0x08012815   Thumb Code    56  app_upgrade.o(i.UpgradeSectorErase)
    UpgradeServerInit                        0x08012861   Thumb Code    52  app_upgrade.o(i.UpgradeServerInit)
    UpgradeSizeInit                          0x0801289d   Thumb Code    18  app_upgrade.o(i.UpgradeSizeInit)
    UpgradeTask                              0x080128b5   Thumb Code   282  app_upgrade.o(i.UpgradeTask)
    UpgradeUsrInit                           0x080129ed   Thumb Code    52  app_upgrade.o(i.UpgradeUsrInit)
    UpgradeVersionInit                       0x08012a29   Thumb Code   186  app_upgrade.o(i.UpgradeVersionInit)
    UsageFault_Handler                       0x08012b25   Thumb Code     4  stm32f10x_it.o(i.UsageFault_Handler)
    UsrCmdCtrl                               0x08012b29   Thumb Code    64  app_usrcmd.o(i.UsrCmdCtrl)
    UsrCmdDebug                              0x08012b69   Thumb Code   140  app_usrcmd.o(i.UsrCmdDebug)
    UsrCmdParse                              0x08012bfd   Thumb Code   424  app_usrcmd.o(i.UsrCmdParse)
    UsrCmdQuery                              0x08012e25   Thumb Code   210  app_usrcmd.o(i.UsrCmdQuery)
    UsrCmdSet                                0x0801302d   Thumb Code   116  app_usrcmd.o(i.UsrCmdSet)
    UsrCmdTest                               0x080130ad   Thumb Code    52  app_usrcmd.o(i.UsrCmdTest)
    VfdClrTimeOut                            0x080130e1   Thumb Code    34  app_vfd.o(i.VfdClrTimeOut)
    VfdCtrlInit                              0x08013109   Thumb Code    28  app_vfd.o(i.VfdCtrlInit)
    VfdReadRegPacket                         0x0801312d   Thumb Code    80  app_vfd.o(i.VfdReadRegPacket)
    VfdSetWhoUse                             0x0801317d   Thumb Code    88  app_vfd.o(i.VfdSetWhoUse)
    VfdWaitResp                              0x080131dd   Thumb Code     8  app_vfd.o(i.VfdWaitResp)
    VfdWriteMoreRegPacket                    0x080131e9   Thumb Code   116  app_vfd.o(i.VfdWriteMoreRegPacket)
    VfdWriteRegPacket                        0x0801325d   Thumb Code    80  app_vfd.o(i.VfdWriteRegPacket)
    Vfd_Meter_Write_Data                     0x080132ad   Thumb Code    30  app_vfd.o(i.Vfd_Meter_Write_Data)
    WaitRsp                                  0x080132d5   Thumb Code    68  app_protocol.o(i.WaitRsp)
    WordToBuf                                0x0801331d   Thumb Code    14  comm.o(i.WordToBuf)
    XYDevDataDeal                            0x0801332d   Thumb Code   454  app_plt.o(i.XYDevDataDeal)
    XYMeterVarRead                           0x080134fd   Thumb Code   484  app_plt.o(i.XYMeterVarRead)
    YearDay                                  0x080136e9   Thumb Code    72  app_rtc.o(i.YearDay)
    __ARM_fpclassify                         0x08013741   Thumb Code    40  fpclassify.o(i.__ARM_fpclassify)
    _flashRead                               0x0801378d   Thumb Code    60  app_para.o(i._flashRead)
    _flashWrite                              0x080137c9   Thumb Code    94  app_para.o(i._flashWrite)
    _is_digit                                0x0801384d   Thumb Code    14  __printf_wp.o(i._is_digit)
    dtuCfgDataCheck                          0x0801385b   Thumb Code    52  app_dtucfg.o(i.dtuCfgDataCheck)
    dtuCfgDataCrc                            0x0801388f   Thumb Code    28  app_dtucfg.o(i.dtuCfgDataCrc)
    dtuConfigResp                            0x080138ab   Thumb Code   116  app_dtucfg.o(i.dtuConfigResp)
    dtuFactoryConfig                         0x08013921   Thumb Code  1380  app_dtucfg.o(i.dtuFactoryConfig)
    gprsIsConnect                            0x08013e99   Thumb Code    10  gc65.o(i.gprsIsConnect)
    isGprsCon                                0x08013ea9   Thumb Code    10  app_protocol.o(i.isGprsCon)
    main                                     0x08013eb9   Thumb Code   532  main.o(i.main)
    my_atof                                  0x08014101   Thumb Code   176  comm.o(i.my_atof)
    my_atoi                                  0x080141bd   Thumb Code    74  comm.o(i.my_atoi)
    my_itoa                                  0x08014209   Thumb Code    62  comm.o(i.my_itoa)
    pipeCreate                               0x0801424d   Thumb Code   146  pipe.o(i.pipeCreate)
    pipeDataRead                             0x080142df   Thumb Code   114  pipe.o(i.pipeDataRead)
    pipeDataWrite                            0x08014351   Thumb Code   132  pipe.o(i.pipeDataWrite)
    pipeFlush                                0x080143d5   Thumb Code    32  pipe.o(i.pipeFlush)
    rst_data_process                         0x080143f5   Thumb Code    96  app_multfun.o(i.rst_data_process)
    stricmp                                  0x08014471   Thumb Code    60  comm.o(i.stricmp)
    _get_lc_numeric                          0x080144f1   Thumb Code    44  lc_numeric_c.o(locale$$code)
    _get_lc_ctype                            0x0801451d   Thumb Code    44  lc_ctype_c.o(locale$$code)
    __aeabi_dadd                             0x08014549   Thumb Code     0  daddsub_clz.o(x$fpl$dadd)
    _dadd                                    0x08014549   Thumb Code   332  daddsub_clz.o(x$fpl$dadd)
    __aeabi_ddiv                             0x08014699   Thumb Code     0  ddiv.o(x$fpl$ddiv)
    _ddiv                                    0x08014699   Thumb Code   552  ddiv.o(x$fpl$ddiv)
    __aeabi_d2uiz                            0x08014949   Thumb Code     0  dfixu.o(x$fpl$dfixu)
    _dfixu                                   0x08014949   Thumb Code    90  dfixu.o(x$fpl$dfixu)
    __aeabi_i2d                              0x080149a3   Thumb Code     0  dflt_clz.o(x$fpl$dflt)
    _dflt                                    0x080149a3   Thumb Code    46  dflt_clz.o(x$fpl$dflt)
    __aeabi_ui2d                             0x080149d1   Thumb Code     0  dflt_clz.o(x$fpl$dfltu)
    _dfltu                                   0x080149d1   Thumb Code    38  dflt_clz.o(x$fpl$dfltu)
    __aeabi_dmul                             0x080149f9   Thumb Code     0  dmul.o(x$fpl$dmul)
    _dmul                                    0x080149f9   Thumb Code   332  dmul.o(x$fpl$dmul)
    __fpl_dnaninf                            0x08014b4d   Thumb Code   156  dnaninf.o(x$fpl$dnaninf)
    __fpl_dretinf                            0x08014be9   Thumb Code    12  dretinf.o(x$fpl$dretinf)
    __aeabi_dsub                             0x08014bf5   Thumb Code     0  daddsub_clz.o(x$fpl$dsub)
    _dsub                                    0x08014bf5   Thumb Code   464  daddsub_clz.o(x$fpl$dsub)
    __aeabi_f2d                              0x08014dc9   Thumb Code     0  f2d.o(x$fpl$f2d)
    _f2d                                     0x08014dc9   Thumb Code    86  f2d.o(x$fpl$f2d)
    __aeabi_fdiv                             0x08014e21   Thumb Code     0  fdiv.o(x$fpl$fdiv)
    _fdiv                                    0x08014e21   Thumb Code   384  fdiv.o(x$fpl$fdiv)
    __aeabi_i2f                              0x08014fa5   Thumb Code     0  fflt_clz.o(x$fpl$fflt)
    _fflt                                    0x08014fa5   Thumb Code    48  fflt_clz.o(x$fpl$fflt)
    __aeabi_ui2f                             0x08014fd5   Thumb Code     0  fflt_clz.o(x$fpl$ffltu)
    _ffltu                                   0x08014fd5   Thumb Code    38  fflt_clz.o(x$fpl$ffltu)
    __aeabi_fmul                             0x08014ffd   Thumb Code     0  fmul.o(x$fpl$fmul)
    _fmul                                    0x08014ffd   Thumb Code   258  fmul.o(x$fpl$fmul)
    __fpl_fnaninf                            0x080150ff   Thumb Code   140  fnaninf.o(x$fpl$fnaninf)
    __fpl_fretinf                            0x0801518b   Thumb Code    10  fretinf.o(x$fpl$fretinf)
    _printf_fp_dec                           0x08015195   Thumb Code     4  printf1.o(x$fpl$printf1)
    Plt_Mam860_DataList                      0x08015198   Data         216  app_plt.o(.constdata)
    __I$use$fp                               0x08015198   Number         0  usenofp.o(x$fpl$usenofp)
    Plt_Mam6080_DataList                     0x08015270   Data        1456  app_plt.o(.constdata)
    Xy_DataList                              0x08015820   Data         192  app_plt.o(.constdata)
    chCRCHTalbe                              0x080158e0   Data         256  comm.o(.constdata)
    chCRCLTalbe                              0x080159e0   Data         256  comm.o(.constdata)
    Table                                    0x08015ae0   Data          13  app_rtc.o(.constdata)
    CutLineHead                              0x08015aed   Data          40  app_protocol.o(.constdata)
    CutLineEnd                               0x08015b15   Data          41  app_protocol.o(.constdata)
    CRC32Tab                                 0x08015b40   Data        1024  crc32.o(.constdata)
    Region$$Table$$Base                      0x0801625c   Number         0  anon$$obj.o(Region$$Table)
    Region$$Table$$Limit                     0x0801627c   Number         0  anon$$obj.o(Region$$Table)
    __ctype                                  0x080162a5   Data           0  lc_ctype_c.o(locale$$data)
    PreAlmFilterTimer                        0x20000000   Data           4  app_alarmevent.o(.data)
    StartFilterTimer                         0x20000004   Data           2  app_alarmevent.o(.data)
    StopFilterTimer                          0x20000006   Data           2  app_alarmevent.o(.data)
    AppDebug                                 0x20000018   Data           4  app_debug.o(.data)
    Led_indicate                             0x20000020   Data           4  app_led.o(.data)
    Led                                      0x2000002c   Data           4  app_led.o(.data)
    GpSysPara                                0x2000003c   Data           4  app_para.o(.data)
    GpUsrPara                                0x20000040   Data           4  app_para.o(.data)
    GpOthInfo                                0x20000044   Data           4  app_para.o(.data)
    GpAlmInfo                                0x20000048   Data           4  app_para.o(.data)
    GpSysStat                                0x2000004c   Data           4  app_para.o(.data)
    EnterPltParaWrite                        0x20000052   Data           1  app_plt.o(.data)
    PltTestData                              0x20000054   Data           2  app_plt.o(.data)
    PltAlowWrite                             0x20000056   Data           1  app_plt.o(.data)
    RemoteWritePara                          0x20000057   Data           1  app_plt.o(.data)
    GbEventFlag                              0x20000064   Data           1  app_vfd.o(.data)
    VfdInitFlag                              0x20000065   Data           1  app_vfd.o(.data)
    GbMeterEventFlag                         0x20000066   Data           1  app_vfd.o(.data)
    GbMeter2EventFlag                        0x20000067   Data           1  app_vfd.o(.data)
    bRemoteBoot                              0x20000068   Data           1  app_vfd.o(.data)
    bRemoteStop                              0x20000069   Data           1  app_vfd.o(.data)
    VfdWhoUse                                0x2000006a   Data           1  app_vfd.o(.data)
    MeterWhoUse                              0x2000006b   Data           1  app_vfd.o(.data)
    Meter2WhoUse                             0x2000006c   Data           1  app_vfd.o(.data)
    VfdOptRlt                                0x2000006d   Data           1  app_vfd.o(.data)
    MeterOptRlt                              0x2000006e   Data           1  app_vfd.o(.data)
    Meter2OptRlt                             0x2000006f   Data           1  app_vfd.o(.data)
    VfdOptAddr                               0x20000070   Data           2  app_vfd.o(.data)
    SvrVfdOpt                                0x20000072   Data           6  app_vfd.o(.data)
    MainVfd_Addr                             0x2000008c   Data           1  app_vfd.o(.data)
    Flow_Addr                                0x2000008d   Data           1  app_vfd.o(.data)
    Meter_Addr                               0x2000008e   Data           1  app_vfd.o(.data)
    pVfd                                     0x20000090   Data           4  app_vfd.o(.data)
    pMeter                                   0x20000094   Data           4  app_vfd.o(.data)
    pMeter2                                  0x20000098   Data           4  app_vfd.o(.data)
    VfdChgToSnd                              0x200000a0   Data           4  app_vfd.o(.data)
    VfdChgToRcv                              0x200000a4   Data           4  app_vfd.o(.data)
    MeterChgToSnd                            0x200000a8   Data           4  app_vfd.o(.data)
    MeterChgToRcv                            0x200000ac   Data           4  app_vfd.o(.data)
    Meter2ChgToSnd                           0x200000b0   Data           4  app_vfd.o(.data)
    Meter2ChgToRcv                           0x200000b4   Data           4  app_vfd.o(.data)
    GbCfgCmd                                 0x200000ca   Data           1  app_dtucfg.o(.data)
    GbDtuEnterCfg                            0x200000cb   Data           1  app_dtucfg.o(.data)
    SysTime                                  0x200000cc   Data           6  app_rtc.o(.data)
    TimeFlag                                 0x200000d2   Data           1  app_rtc.o(.data)
    BeforeReg                                0x200000e0   Data           8  app_multfun.o(.data)
    RS485ErrTime                             0x200000e8   Data           8  app_multfun.o(.data)
    MoneyCheckTimer                          0x200000f0   Data           4  app_multfun.o(.data)
    RmtBootTimer                             0x200000f4   Data           4  app_multfun.o(.data)
    RmtStopTimer                             0x200000f8   Data           4  app_multfun.o(.data)
    CfgDelay                                 0x200000fc   Data           4  app_multfun.o(.data)
    AlmDealDelay                             0x20000100   Data           4  app_multfun.o(.data)
    Upgrade                                  0x20000110   Data           8  app_upgrade.o(.data)
    pGprsSnd                                 0x2000011c   Data           4  gc65.o(.data)
    pSMSRcv                                  0x20000120   Data           4  gc65.o(.data)
    pSMSSnd                                  0x20000124   Data           4  gc65.o(.data)
    dtuDataRcvFlag                           0x20000128   Data           1  gc65.o(.data)
    pATResp                                  0x2000012c   Data           4  gc65.o(.data)
    pATSend                                  0x20000130   Data           4  gc65.o(.data)
    QEventGprsSnd                            0x20000134   Data           4  gc65.o(.data)
    pGprsRcv                                 0x20000138   Data           4  gc65.o(.data)
    QEventATResp                             0x2000013c   Data           4  gc65.o(.data)
    dtuStatus                                0x20000140   Data           4  gc65.o(.data)
    pToGprs                                  0x20000148   Data           4  gc65.o(.data)
    DebugUartRcvStat                         0x20000152   Data           1  uart.o(.data)
    SMSStatistics                            0x20000168   Data           2  app_protocol.o(.data)
    ParaUpload                               0x2000016c   Data           4  app_protocol.o(.data)
    ParaUpdate                               0x20000170   Data           4  app_protocol.o(.data)
    GbUpLoadAllPara                          0x20000174   Data           1  app_protocol.o(.data)
    RebootTime                               0x20000178   Data           4  app_protocol.o(.data)
    InitParaUp                               0x2000017c   Data           4  app_protocol.o(.data)
    GbeInitParaSend                          0x20000180   Data           1  app_protocol.o(.data)
    RegDelay                                 0x20000184   Data           4  app_protocol.o(.data)
    Rsp                                      0x20000188   Data           1  app_protocol.o(.data)
    Ack                                      0x20000189   Data           1  app_protocol.o(.data)
    ParaUploadDelay                          0x2000018c   Data           4  app_protocol.o(.data)
    Heart_CycleMoment                        0x20000190   Data           4  app_protocol.o(.data)
    FlashModle                               0x200001a8   Data           1  spiflashdev.o(.data)
    AlmFilterTimer                           0x200001b0   Data          48  app_alarmevent.o(.bss)
    DebugCheck                               0x200001e0   Data          16  app_debug.o(.bss)
    JsonNode                                 0x20000380   Data          12  app_json.o(.bss)
    JsonObjNode                              0x2000038c   Data          32  app_json.o(.bss)
    HeartAddrList                            0x200003ac   Data         162  app_json.o(.bss)
    JsonArrayBuf                             0x20000450   Data         324  app_json.o(.bss)
    SysParaBuf                               0x20000594   Data         228  app_para.o(.bss)
    UsrParaBuf                               0x20000678   Data          20  app_para.o(.bss)
    OthInfoBuf                               0x2000068c   Data          16  app_para.o(.bss)
    AlmInfoBuf                               0x2000069c   Data          16  app_para.o(.bss)
    SysStatBuf                               0x200006ac   Data         496  app_para.o(.bss)
    ParaFat                                  0x2000089c   Data          20  app_para.o(.bss)
    Server_Data_Buf                          0x20000994   Data          84  app_plt.o(.bss)
    VarBuf                                   0x200009e8   Data          31  app_plt.o(.bss)
    VfdCtrl                                  0x20000a08   Data          24  app_vfd.o(.bss)
    MeterCtrl                                0x20000a20   Data          24  app_vfd.o(.bss)
    Meter2Ctrl                               0x20000a38   Data          24  app_vfd.o(.bss)
    RS4850Modbus                             0x20000a50   Data         220  app_vfd.o(.bss)
    RS4851Modbus                             0x20000b2c   Data         220  app_vfd.o(.bss)
    RS4852Modbus                             0x20000c08   Data         220  app_vfd.o(.bss)
    dtuTmpBuf                                0x20000d18   Data        1024  app_dtucfg.o(.bss)
    UpgradeBuf                               0x20001118   Data         512  app_upgrade.o(.bss)
    GprsRcvBuf                               0x20001318   Data         802  gc65.o(.bss)
    GprsSndBuf                               0x2000163a   Data        1282  gc65.o(.bss)
    ATRespBuf                                0x20001b3c   Data         906  gc65.o(.bss)
    ATSendBuf                                0x20001ec6   Data          52  gc65.o(.bss)
    FtpInf                                   0x20001efc   Data         128  gc65.o(.bss)
    GprsCtrlInfo                             0x20001f7c   Data         272  gc65.o(.bss)
    DMAUart2Buf                              0x20002890   Data         522  gc65_bsp.o(.bss)
    UartTest                                 0x20002a9a   Data         108  uart.o(.bss)
    AlmStat                                  0x20002f24   Data          20  app_protocol.o(.bss)
    SysEvent                                 0x20002f38   Data          20  app_protocol.o(.bss)
    AlmMask                                  0x20002f4c   Data          16  app_protocol.o(.bss)
    ProSndInf                                0x20002f5c   Data          16  app_protocol.o(.bss)
    SendBuf                                  0x20002f6c   Data        1024  app_protocol.o(.bss)
    ProAckBuf                                0x2000336c   Data        1024  app_protocol.o(.bss)
    __libspace_start                         0x200037a4   Data          96  libspace.o(.bss)
    __temporary_stack_top$libspace           0x20003804   Data           0  libspace.o(.bss)



==============================================================================

Memory Map of the image

  Image Entry point : 0x08000131

  Load Region LR_IROM1 (Base: 0x08000000, Size: 0x00016558, Max: 0x00040000, ABSOLUTE, COMPRESSED[0x000163ec])

    Execution Region ER_IROM1 (Base: 0x08000000, Size: 0x000163a8, Max: 0x00040000, ABSOLUTE)

    Base Addr    Size         Type   Attr      Idx    E Section Name        Object

    0x08000000   0x00000130   Data   RO         3711    RESET               startup_stm32f10x_hd.o
    0x08000130   0x00000008   Code   RO         3947  * !!!main             c_w.l(__main.o)
    0x08000138   0x00000034   Code   RO         4319    !!!scatter          c_w.l(__scatter.o)
    0x0800016c   0x0000005a   Code   RO         4317    !!dczerorl2         c_w.l(__dczerorl2.o)
    0x080001c6   0x00000002   PAD
    0x080001c8   0x0000001c   Code   RO         4321    !!handler_zi        c_w.l(__scatter_zi.o)
    0x080001e4   0x00000000   Code   RO         3919    .ARM.Collect$$_printf_percent$$00000000  c_w.l(_printf_percent.o)
    0x080001e4   0x00000006   Code   RO         4054    .ARM.Collect$$_printf_percent$$00000001  c_w.l(_printf_n.o)
    0x080001ea   0x00000006   Code   RO         4055    .ARM.Collect$$_printf_percent$$00000002  c_w.l(_printf_p.o)
    0x080001f0   0x00000006   Code   RO         3918    .ARM.Collect$$_printf_percent$$00000003  c_w.l(_printf_f.o)
    0x080001f6   0x00000006   Code   RO         4059    .ARM.Collect$$_printf_percent$$00000004  c_w.l(_printf_e.o)
    0x080001fc   0x00000006   Code   RO         4060    .ARM.Collect$$_printf_percent$$00000005  c_w.l(_printf_g.o)
    0x08000202   0x00000006   Code   RO         4061    .ARM.Collect$$_printf_percent$$00000006  c_w.l(_printf_a.o)
    0x08000208   0x0000000a   Code   RO         4066    .ARM.Collect$$_printf_percent$$00000007  c_w.l(_printf_ll.o)
    0x08000212   0x00000006   Code   RO         4057    .ARM.Collect$$_printf_percent$$00000008  c_w.l(_printf_i.o)
    0x08000218   0x00000006   Code   RO         3917    .ARM.Collect$$_printf_percent$$00000009  c_w.l(_printf_d.o)
    0x0800021e   0x00000006   Code   RO         4058    .ARM.Collect$$_printf_percent$$0000000A  c_w.l(_printf_u.o)
    0x08000224   0x00000006   Code   RO         4056    .ARM.Collect$$_printf_percent$$0000000B  c_w.l(_printf_o.o)
    0x0800022a   0x00000006   Code   RO         3916    .ARM.Collect$$_printf_percent$$0000000C  c_w.l(_printf_x.o)
    0x08000230   0x00000006   Code   RO         4063    .ARM.Collect$$_printf_percent$$0000000D  c_w.l(_printf_lli.o)
    0x08000236   0x00000006   Code   RO         4064    .ARM.Collect$$_printf_percent$$0000000E  c_w.l(_printf_lld.o)
    0x0800023c   0x00000006   Code   RO         4065    .ARM.Collect$$_printf_percent$$0000000F  c_w.l(_printf_llu.o)
    0x08000242   0x00000006   Code   RO         4070    .ARM.Collect$$_printf_percent$$00000010  c_w.l(_printf_llo.o)
    0x08000248   0x00000006   Code   RO         4071    .ARM.Collect$$_printf_percent$$00000011  c_w.l(_printf_llx.o)
    0x0800024e   0x0000000a   Code   RO         4067    .ARM.Collect$$_printf_percent$$00000012  c_w.l(_printf_l.o)
    0x08000258   0x00000006   Code   RO         4053    .ARM.Collect$$_printf_percent$$00000013  c_w.l(_printf_c.o)
    0x0800025e   0x00000006   Code   RO         3915    .ARM.Collect$$_printf_percent$$00000014  c_w.l(_printf_s.o)
    0x08000264   0x00000006   Code   RO         4068    .ARM.Collect$$_printf_percent$$00000015  c_w.l(_printf_lc.o)
    0x0800026a   0x00000006   Code   RO         4069    .ARM.Collect$$_printf_percent$$00000016  c_w.l(_printf_ls.o)
    0x08000270   0x00000004   Code   RO         4062    .ARM.Collect$$_printf_percent$$00000017  c_w.l(_printf_percent_end.o)
    0x08000274   0x00000002   Code   RO         4257    .ARM.Collect$$libinit$$00000000  c_w.l(libinit.o)
    0x08000276   0x00000000   Code   RO         4081    .ARM.Collect$$libinit$$00000002  c_w.l(libinit2.o)
    0x08000276   0x00000000   Code   RO         4083    .ARM.Collect$$libinit$$00000004  c_w.l(libinit2.o)
    0x08000276   0x00000008   Code   RO         4084    .ARM.Collect$$libinit$$00000005  c_w.l(libinit2.o)
    0x0800027e   0x00000000   Code   RO         4086    .ARM.Collect$$libinit$$0000000A  c_w.l(libinit2.o)
    0x0800027e   0x00000000   Code   RO         4088    .ARM.Collect$$libinit$$0000000C  c_w.l(libinit2.o)
    0x0800027e   0x00000000   Code   RO         4090    .ARM.Collect$$libinit$$0000000E  c_w.l(libinit2.o)
    0x0800027e   0x00000006   Code   RO         4091    .ARM.Collect$$libinit$$0000000F  c_w.l(libinit2.o)
    0x08000284   0x00000000   Code   RO         4093    .ARM.Collect$$libinit$$00000011  c_w.l(libinit2.o)
    0x08000284   0x0000000c   Code   RO         4094    .ARM.Collect$$libinit$$00000012  c_w.l(libinit2.o)
    0x08000290   0x00000000   Code   RO         4095    .ARM.Collect$$libinit$$00000013  c_w.l(libinit2.o)
    0x08000290   0x00000000   Code   RO         4097    .ARM.Collect$$libinit$$00000015  c_w.l(libinit2.o)
    0x08000290   0x0000000a   Code   RO         4098    .ARM.Collect$$libinit$$00000016  c_w.l(libinit2.o)
    0x0800029a   0x00000000   Code   RO         4099    .ARM.Collect$$libinit$$00000017  c_w.l(libinit2.o)
    0x0800029a   0x00000000   Code   RO         4101    .ARM.Collect$$libinit$$00000019  c_w.l(libinit2.o)
    0x0800029a   0x00000000   Code   RO         4103    .ARM.Collect$$libinit$$0000001B  c_w.l(libinit2.o)
    0x0800029a   0x00000000   Code   RO         4105    .ARM.Collect$$libinit$$0000001D  c_w.l(libinit2.o)
    0x0800029a   0x00000000   Code   RO         4107    .ARM.Collect$$libinit$$0000001F  c_w.l(libinit2.o)
    0x0800029a   0x00000000   Code   RO         4109    .ARM.Collect$$libinit$$00000021  c_w.l(libinit2.o)
    0x0800029a   0x00000000   Code   RO         4111    .ARM.Collect$$libinit$$00000023  c_w.l(libinit2.o)
    0x0800029a   0x00000000   Code   RO         4113    .ARM.Collect$$libinit$$00000025  c_w.l(libinit2.o)
    0x0800029a   0x00000000   Code   RO         4117    .ARM.Collect$$libinit$$0000002C  c_w.l(libinit2.o)
    0x0800029a   0x00000000   Code   RO         4119    .ARM.Collect$$libinit$$0000002E  c_w.l(libinit2.o)
    0x0800029a   0x00000000   Code   RO         4121    .ARM.Collect$$libinit$$00000030  c_w.l(libinit2.o)
    0x0800029a   0x00000000   Code   RO         4123    .ARM.Collect$$libinit$$00000032  c_w.l(libinit2.o)
    0x0800029a   0x00000002   Code   RO         4124    .ARM.Collect$$libinit$$00000033  c_w.l(libinit2.o)
    0x0800029c   0x00000002   Code   RO         4314    .ARM.Collect$$libshutdown$$00000000  c_w.l(libshutdown.o)
    0x0800029e   0x00000000   Code   RO         4272    .ARM.Collect$$libshutdown$$00000003  c_w.l(libshutdown2.o)
    0x0800029e   0x00000000   Code   RO         4275    .ARM.Collect$$libshutdown$$00000006  c_w.l(libshutdown2.o)
    0x0800029e   0x00000000   Code   RO         4278    .ARM.Collect$$libshutdown$$00000009  c_w.l(libshutdown2.o)
    0x0800029e   0x00000000   Code   RO         4280    .ARM.Collect$$libshutdown$$0000000B  c_w.l(libshutdown2.o)
    0x0800029e   0x00000000   Code   RO         4283    .ARM.Collect$$libshutdown$$0000000E  c_w.l(libshutdown2.o)
    0x0800029e   0x00000002   Code   RO         4284    .ARM.Collect$$libshutdown$$0000000F  c_w.l(libshutdown2.o)
    0x080002a0   0x00000000   Code   RO         3989    .ARM.Collect$$rtentry$$00000000  c_w.l(__rtentry.o)
    0x080002a0   0x00000000   Code   RO         4140    .ARM.Collect$$rtentry$$00000002  c_w.l(__rtentry2.o)
    0x080002a0   0x00000006   Code   RO         4152    .ARM.Collect$$rtentry$$00000004  c_w.l(__rtentry4.o)
    0x080002a6   0x00000000   Code   RO         4142    .ARM.Collect$$rtentry$$00000009  c_w.l(__rtentry2.o)
    0x080002a6   0x00000004   Code   RO         4143    .ARM.Collect$$rtentry$$0000000A  c_w.l(__rtentry2.o)
    0x080002aa   0x00000000   Code   RO         4145    .ARM.Collect$$rtentry$$0000000C  c_w.l(__rtentry2.o)
    0x080002aa   0x00000008   Code   RO         4146    .ARM.Collect$$rtentry$$0000000D  c_w.l(__rtentry2.o)
    0x080002b2   0x00000002   Code   RO         4260    .ARM.Collect$$rtexit$$00000000  c_w.l(rtexit.o)
    0x080002b4   0x00000000   Code   RO         4288    .ARM.Collect$$rtexit$$00000002  c_w.l(rtexit2.o)
    0x080002b4   0x00000004   Code   RO         4289    .ARM.Collect$$rtexit$$00000003  c_w.l(rtexit2.o)
    0x080002b8   0x00000006   Code   RO         4290    .ARM.Collect$$rtexit$$00000004  c_w.l(rtexit2.o)
    0x080002be   0x00000002   PAD
    0x080002c0   0x00000000   Code   RO         4163    .emb_text           c_w.l(maybetermalloc1.o)
    0x080002c0   0x00000040   Code   RO         3712    .text               startup_stm32f10x_hd.o
    0x08000300   0x0000005e   Code   RO         3806    .text               c_w.l(h1_alloc.o)
    0x0800035e   0x00000002   PAD
    0x08000360   0x00000034   Code   RO         3860    .text               c_w.l(c89vsnprintf.o)
    0x08000394   0x0000002c   Code   RO         3862    .text               c_w.l(__2sprintf.o)
    0x080003c0   0x0000004e   Code   RO         3868    .text               c_w.l(_printf_pad.o)
    0x0800040e   0x00000052   Code   RO         3870    .text               c_w.l(_printf_str.o)
    0x08000460   0x00000078   Code   RO         3872    .text               c_w.l(_printf_dec.o)
    0x080004d8   0x00000094   Code   RO         3892    .text               c_w.l(_printf_hex_int_ll_ptr.o)
    0x0800056c   0x00000188   Code   RO         3912    .text               c_w.l(__printf_flags_ss_wp.o)
    0x080006f4   0x0000001a   Code   RO         3920    .text               c_w.l(atoi.o)
    0x0800070e   0x00000002   PAD
    0x08000710   0x0000000c   Code   RO         3922    .text               c_w.l(strtok.o)
    0x0800071c   0x00000058   Code   RO         3925    .text               c_w.l(memcmp.o)
    0x08000774   0x00000048   Code   RO         3927    .text               c_w.l(strcpy.o)
    0x080007bc   0x0000003e   Code   RO         3929    .text               c_w.l(strlen.o)
    0x080007fa   0x00000096   Code   RO         3931    .text               c_w.l(strncmp.o)
    0x08000890   0x0000008a   Code   RO         3933    .text               c_w.l(rt_memcpy_v6.o)
    0x0800091a   0x00000010   Code   RO         3935    .text               c_w.l(aeabi_memset.o)
    0x0800092a   0x00000044   Code   RO         3937    .text               c_w.l(rt_memclr.o)
    0x0800096e   0x0000004e   Code   RO         3939    .text               c_w.l(rt_memclr_w.o)
    0x080009bc   0x00000056   Code   RO         3941    .text               c_w.l(strncpy.o)
    0x08000a12   0x00000002   PAD
    0x08000a14   0x00000080   Code   RO         3943    .text               c_w.l(strcmpv7m.o)
    0x08000a94   0x00000006   Code   RO         3945    .text               c_w.l(heapauxi.o)
    0x08000a9a   0x00000002   PAD
    0x08000a9c   0x00000008   Code   RO         3993    .text               c_w.l(rt_heap_descriptor_intlibspace.o)
    0x08000aa4   0x00000008   Code   RO         3998    .text               c_w.l(rt_errno_addr_intlibspace.o)
    0x08000aac   0x00000004   Code   RO         4000    .text               c_w.l(hguard.o)
    0x08000ab0   0x0000008a   Code   RO         4002    .text               c_w.l(init_alloc.o)
    0x08000b3a   0x0000000e   Code   RO         4008    .text               c_w.l(h1_init.o)
    0x08000b48   0x0000004e   Code   RO         4010    .text               c_w.l(h1_free.o)
    0x08000b96   0x00000024   Code   RO         4026    .text               c_w.l(_printf_truncate.o)
    0x08000bba   0x000000b2   Code   RO         4028    .text               c_w.l(_printf_intcommon.o)
    0x08000c6c   0x00000028   Code   RO         4030    .text               c_w.l(_printf_charcount.o)
    0x08000c94   0x0000041a   Code   RO         4032    .text               c_w.l(_printf_fp_dec.o)
    0x080010ae   0x00000002   PAD
    0x080010b0   0x00000030   Code   RO         4034    .text               c_w.l(_printf_char_common.o)
    0x080010e0   0x0000000a   Code   RO         4036    .text               c_w.l(_sputc.o)
    0x080010ea   0x00000010   Code   RO         4038    .text               c_w.l(_snputc.o)
    0x080010fa   0x0000002c   Code   RO         4040    .text               c_w.l(_printf_char.o)
    0x08001126   0x00000002   PAD
    0x08001128   0x000000bc   Code   RO         4042    .text               c_w.l(_printf_wctomb.o)
    0x080011e4   0x0000007c   Code   RO         4045    .text               c_w.l(_printf_longlong_dec.o)
    0x08001260   0x00000070   Code   RO         4051    .text               c_w.l(_printf_oct_int_ll.o)
    0x080012d0   0x00000070   Code   RO         4072    .text               c_w.l(strtol.o)
    0x08001340   0x00000044   Code   RO         4074    .text               c_w.l(strtok_int.o)
    0x08001384   0x00000064   Code   RO         4076    .text               c_w.l(rt_memcpy_w.o)
    0x080013e8   0x00000008   Code   RO         4136    .text               c_w.l(libspace.o)
    0x080013f0   0x00000010   Code   RO         4154    .text               c_w.l(rt_ctype_table.o)
    0x08001400   0x00000008   Code   RO         4159    .text               c_w.l(rt_locale_intlibspace.o)
    0x08001408   0x00000034   Code   RO         4165    .text               c_w.l(h1_extend.o)
    0x0800143c   0x0000008a   Code   RO         4169    .text               c_w.l(lludiv10.o)
    0x080014c6   0x00000002   PAD
    0x080014c8   0x00000080   Code   RO         4171    .text               c_w.l(_printf_fp_infnan.o)
    0x08001548   0x0000002c   Code   RO         4175    .text               c_w.l(_printf_wchar.o)
    0x08001574   0x0000009e   Code   RO         4177    .text               c_w.l(_strtoul.o)
    0x08001612   0x00000002   PAD
    0x08001614   0x000000dc   Code   RO         4179    .text               c_w.l(bigflt0.o)
    0x080016f0   0x00000040   Code   RO         4204    .text               c_w.l(_wcrtomb.o)
    0x08001730   0x0000000e   Code   RO         4209    .text               c_w.l(defsig_rtmem_outer.o)
    0x0800173e   0x00000020   Code   RO         4213    .text               c_w.l(strcspn.o)
    0x0800175e   0x0000001c   Code   RO         4215    .text               c_w.l(strspn.o)
    0x0800177a   0x00000002   Code   RO         4228    .text               c_w.l(use_no_semi.o)
    0x0800177c   0x00000000   Code   RO         4230    .text               c_w.l(indicate_semi.o)
    0x0800177c   0x0000004a   Code   RO         4231    .text               c_w.l(sys_stackheap_outer.o)
    0x080017c6   0x0000001c   Code   RO         4237    .text               c_w.l(_chval.o)
    0x080017e2   0x0000000c   Code   RO         4242    .text               c_w.l(exit.o)
    0x080017ee   0x0000000a   Code   RO         4244    .text               c_w.l(defsig_exit.o)
    0x080017f8   0x00000050   Code   RO         4246    .text               c_w.l(defsig_rtmem_inner.o)
    0x08001848   0x0000000c   Code   RO         4258    .text               c_w.l(sys_exit.o)
    0x08001854   0x00000032   Code   RO         4268    .text               c_w.l(defsig_general.o)
    0x08001886   0x0000000e   Code   RO         4285    .text               c_w.l(sys_wrch.o)
    0x08001894   0x0000003e   Code   RO         4182    CL$$btod_d2e        c_w.l(btod.o)
    0x080018d2   0x00000046   Code   RO         4184    CL$$btod_d2e_denorm_low  c_w.l(btod.o)
    0x08001918   0x00000060   Code   RO         4183    CL$$btod_d2e_norm_op1  c_w.l(btod.o)
    0x08001978   0x00000338   Code   RO         4192    CL$$btod_div_common  c_w.l(btod.o)
    0x08001cb0   0x000000c6   Code   RO         4189    CL$$btod_e2e        c_w.l(btod.o)
    0x08001d76   0x00000028   Code   RO         4186    CL$$btod_ediv       c_w.l(btod.o)
    0x08001d9e   0x00000028   Code   RO         4185    CL$$btod_emul       c_w.l(btod.o)
    0x08001dc6   0x00000244   Code   RO         4191    CL$$btod_mult_common  c_w.l(btod.o)
    0x0800200a   0x00000034   Code   RO         1304    i.ASCIIToHex        comm.o
    0x0800203e   0x00000002   PAD
    0x08002040   0x00000064   Code   RO         1918    i.ATCmdCnntSvr      gc65.o
    0x080020a4   0x00000c4c   Code   RO         1919    i.ATCmdParse        gc65.o
    0x08002cf0   0x00000040   Code   RO         1920    i.ATCmdSend         gc65.o
    0x08002d30   0x00000044   Code   RO         1921    i.ATCmdSetAPN       gc65.o
    0x08002d74   0x0000003e   Code   RO         1923    i.ATstrToInt32U     gc65.o
    0x08002db2   0x0000005a   Code   RO         3499    i.AckPacket         app_protocol.o
    0x08002e0c   0x00000280   Code   RO          276    i.AlarmEventDeal    app_alarmevent.o
    0x0800308c   0x00000174   Code   RO          277    i.AlarmEventInit    app_alarmevent.o
    0x08003200   0x00000082   Code   RO          278    i.AlarmFilterTimeOver  app_alarmevent.o
    0x08003282   0x00000002   PAD
    0x08003284   0x00000028   Code   RO          279    i.AlarmFilterTimer  app_alarmevent.o
    0x080032ac   0x00000050   Code   RO          280    i.Alarm_Filter_Deal  app_alarmevent.o
    0x080032fc   0x00000038   Code   RO          400    i.AppDebugInit      app_debug.o
    0x08003334   0x00000036   Code   RO         1608    i.BigEndConvert     app_dtucfg.o
    0x0800336a   0x0000001c   Code   RO         1305    i.BufExchange       comm.o
    0x08003386   0x00000004   Code   RO         1496    i.BusFault_Handler  stm32f10x_it.o
    0x0800338a   0x00000002   PAD
    0x0800338c   0x00000038   Code   RO         3291    i.CAN_DeInit        stm32f10x_can.o
    0x080033c4   0x00000108   Code   RO         3293    i.CAN_FilterInit    stm32f10x_can.o
    0x080034cc   0x00000012   Code   RO         3299    i.CAN_ITConfig      stm32f10x_can.o
    0x080034de   0x00000114   Code   RO         3300    i.CAN_Init          stm32f10x_can.o
    0x080035f2   0x0000001e   Code   RO         3301    i.CAN_MessagePending  stm32f10x_can.o
    0x08003610   0x000000f0   Code   RO         3303    i.CAN_Receive       stm32f10x_can.o
    0x08003700   0x00000020   Code   RO         3306    i.CAN_StructInit    stm32f10x_can.o
    0x08003720   0x00000126   Code   RO         3308    i.CAN_Transmit      stm32f10x_can.o
    0x08003846   0x00000002   PAD
    0x08003848   0x00000038   Code   RO         1306    i.CRC16_1           comm.o
    0x08003880   0x00000034   Code   RO         3767    i.CRC32Calc         crc32.lib(crc32.o)
    0x080038b4   0x00000010   Code   RO         3768    i.CRC32CalcReset    crc32.lib(crc32.o)
    0x080038c4   0x00000028   Code   RO          999    i.CanBus_ISR_Rx     app_vfd.o
    0x080038ec   0x0000009c   Code   RO          182    i.Can_Config        bsp.o
    0x08003988   0x00000010   Code   RO         1307    i.CharConvert       comm.o
    0x08003998   0x00000004   Code   RO         1000    i.ChgVfdAddr        app_vfd.o
    0x0800399c   0x00000010   Code   RO         3500    i.ClearHeartTimer   app_protocol.o
    0x080039ac   0x00000080   Code   RO         1651    i.ConverseTimeNum   app_rtc.o
    0x08003a2c   0x00000044   Code   RO         2126    i.DMA1_Channel6_IRQHandler  gc65_bsp.o
    0x08003a70   0x00000034   Code   RO         1498    i.DMA1_Channel7_IRQHandler  stm32f10x_it.o
    0x08003aa4   0x0000001c   Code   RO         2340    i.DMA_ClearFlag     stm32f10x_dma.o
    0x08003ac0   0x00000018   Code   RO         2342    i.DMA_Cmd           stm32f10x_dma.o
    0x08003ad8   0x0000014c   Code   RO         2343    i.DMA_DeInit        stm32f10x_dma.o
    0x08003c24   0x0000002c   Code   RO         2345    i.DMA_GetFlagStatus  stm32f10x_dma.o
    0x08003c50   0x00000012   Code   RO         2347    i.DMA_ITConfig      stm32f10x_dma.o
    0x08003c62   0x0000003c   Code   RO         2348    i.DMA_Init          stm32f10x_dma.o
    0x08003c9e   0x0000001c   Code   RO         1308    i.DWordToBuf        comm.o
    0x08003cba   0x00000002   PAD
    0x08003cbc   0x0000004c   Code   RO          401    i.Debug             app_debug.o
    0x08003d08   0x00000012   Code   RO          919    i.DebugFtpTest      app_usrcmd.o
    0x08003d1a   0x00000002   Code   RO         1499    i.DebugMon_Handler  stm32f10x_it.o
    0x08003d1c   0x00000100   Code   RO          403    i.DebugMsg          app_debug.o
    0x08003e1c   0x0000002c   Code   RO          404    i.DebugStrMsg       app_debug.o
    0x08003e48   0x00000044   Code   RO          405    i.DebugWithLen      app_debug.o
    0x08003e8c   0x00000030   Code   RO         1924    i.DelayReConnect    gc65.o
    0x08003ebc   0x0000001c   Code   RO         1310    i.DevFourByteToDWord  comm.o
    0x08003ed8   0x00000050   Code   RO         1311    i.DevFourByteToU16  comm.o
    0x08003f28   0x00000274   Code   RO          677    i.DevParaDefault    app_para.o
    0x0800419c   0x00000164   Code   RO          678    i.DevParaRead       app_para.o
    0x08004300   0x00000138   Code   RO          679    i.DevParaWrite      app_para.o
    0x08004438   0x00000130   Code   RO         3501    i.DevStatToSystem   app_protocol.o
    0x08004568   0x0000000e   Code   RO         1312    i.DevTwoByteToWord  comm.o
    0x08004576   0x00000002   PAD
    0x08004578   0x00000050   Code   RO         1001    i.DriveCan_sendData  app_vfd.o
    0x080045c8   0x0000000c   Code   RO         2418    i.FLASH_ClearFlag   stm32f10x_flash.o
    0x080045d4   0x0000004c   Code   RO         2423    i.FLASH_ErasePage   stm32f10x_flash.o
    0x08004620   0x00000034   Code   RO         2424    i.FLASH_GetBank1Status  stm32f10x_flash.o
    0x08004654   0x00000014   Code   RO         2433    i.FLASH_Lock        stm32f10x_flash.o
    0x08004668   0x0000006c   Code   RO         2438    i.FLASH_ProgramWord  stm32f10x_flash.o
    0x080046d4   0x00000018   Code   RO         2441    i.FLASH_Unlock      stm32f10x_flash.o
    0x080046ec   0x00000026   Code   RO         2445    i.FLASH_WaitForLastOperation  stm32f10x_flash.o
    0x08004712   0x00000002   PAD
    0x08004714   0x00000018   Code   RO         1784    i.FTPConnectRequestSet  app_upgrade.o
    0x0800472c   0x00000002   Code   RO          183    i.FeedDog           bsp.o
    0x0800472e   0x0000001a   Code   RO          680    i.FieldValOffset    app_para.o
    0x08004748   0x00000046   Code   RO         3774    i.FlashBufferRead   SPIFlash.lib(spiflashdev.o)
    0x0800478e   0x00000002   PAD
    0x08004790   0x00000108   Code   RO         3775    i.FlashBufferWrite  SPIFlash.lib(spiflashdev.o)
    0x08004898   0x000000d0   Code   RO         3445    i.FlashHalInit      spiflashhal.o
    0x08004968   0x00000002   Code   RO         3475    i.FlashLockCreate   spiflashusr.o
    0x0800496a   0x00000002   Code   RO         3476    i.FlashLockPend     spiflashusr.o
    0x0800496c   0x00000002   Code   RO         3477    i.FlashLockPost     spiflashusr.o
    0x0800496e   0x00000002   PAD
    0x08004970   0x00000058   Code   RO         3751    i.FlashModelRead    SPIFlash.lib(spiflash.o)
    0x080049c8   0x0000003c   Code   RO         3776    i.FlashReadID       SPIFlash.lib(spiflashdev.o)
    0x08004a04   0x00000020   Code   RO         3777    i.FlashReadStatusRegister  SPIFlash.lib(spiflashdev.o)
    0x08004a24   0x00000038   Code   RO         3446    i.FlashSPISend      spiflashhal.o
    0x08004a5c   0x00000040   Code   RO         3778    i.FlashSectorErase_4KByte  SPIFlash.lib(spiflashdev.o)
    0x08004a9c   0x00000020   Code   RO         3447    i.FlashSelect       spiflashhal.o
    0x08004abc   0x00000020   Code   RO         3779    i.FlashWaitForWriteEnd  SPIFlash.lib(spiflashdev.o)
    0x08004adc   0x00000012   Code   RO         3780    i.FlashWait_Busy_AAI  SPIFlash.lib(spiflashdev.o)
    0x08004aee   0x00000018   Code   RO         3781    i.FlashWriteDisable  SPIFlash.lib(spiflashdev.o)
    0x08004b06   0x00000018   Code   RO         3782    i.FlashWriteEnable  SPIFlash.lib(spiflashdev.o)
    0x08004b1e   0x00000002   PAD
    0x08004b20   0x00000028   Code   RO         1785    i.FtpDataGetFlag    app_upgrade.o
    0x08004b48   0x000000b4   Code   RO         1786    i.FtpInfoInit       app_upgrade.o
    0x08004bfc   0x00000018   Code   RO         1787    i.FtpTimeDelay      app_upgrade.o
    0x08004c14   0x000000b4   Code   RO         3502    i.GB_GeneralAck     app_protocol.o
    0x08004cc8   0x0000005c   Code   RO         3503    i.GB_GetAckMsgHead  app_protocol.o
    0x08004d24   0x00000070   Code   RO         3504    i.GB_GetMsgHead     app_protocol.o
    0x08004d94   0x0000005c   Code   RO         1926    i.GC65Timer         gc65.o
    0x08004df0   0x00000150   Code   RO          184    i.GPIO_Configuration  bsp.o
    0x08004f40   0x00000116   Code   RO         2601    i.GPIO_Init         stm32f10x_gpio.o
    0x08005056   0x00000002   PAD
    0x08005058   0x00000090   Code   RO         2603    i.GPIO_PinRemapConfig  stm32f10x_gpio.o
    0x080050e8   0x00000004   Code   RO         2608    i.GPIO_ResetBits    stm32f10x_gpio.o
    0x080050ec   0x00000004   Code   RO         2609    i.GPIO_SetBits      stm32f10x_gpio.o
    0x080050f0   0x00000264   Code   RO         3505    i.GPRSDataDeal      app_protocol.o
    0x08005354   0x00000088   Code   RO         2127    i.GPRSUartDMAInit   gc65_bsp.o
    0x080053dc   0x0000000c   Code   RO         3506    i.GetAckVaule       app_protocol.o
    0x080053e8   0x00000038   Code   RO         1002    i.GetComIndex       app_vfd.o
    0x08005420   0x000011ec   Code   RO         3507    i.GetEventInfo      app_protocol.o
    0x0800660c   0x0000000c   Code   RO         2128    i.GetGprsUartDMABuf  gc65_bsp.o
    0x08006618   0x00000118   Code   RO         3508    i.GetHeartData      app_protocol.o
    0x08006730   0x00000024   Code   RO          778    i.GetMeter2ReadAddr  app_plt.o
    0x08006754   0x00000024   Code   RO          779    i.GetMeterReadAddr  app_plt.o
    0x08006778   0x00000088   Code   RO         1927    i.GetMultLoc        gc65.o
    0x08006800   0x0000014c   Code   RO          780    i.GetPlt1SpecPara   app_plt.o
    0x0800694c   0x00000110   Code   RO          781    i.GetPlt2SpecPara   app_plt.o
    0x08006a5c   0x000000a8   Code   RO          782    i.GetPlt3SpecPara   app_plt.o
    0x08006b04   0x000002c4   Code   RO          783    i.GetPltAllPara     app_plt.o
    0x08006dc8   0x000000b8   Code   RO          784    i.GetPltReadAddr    app_plt.o
    0x08006e80   0x00000064   Code   RO         3509    i.GetRegister       app_protocol.o
    0x08006ee4   0x0000002e   Code   RO         3510    i.GetRsp            app_protocol.o
    0x08006f12   0x00000002   PAD
    0x08006f14   0x00000134   Code   RO         1652    i.GetRtctime        app_rtc.o
    0x08007048   0x000001d4   Code   RO         3511    i.GetStatusUpData   app_protocol.o
    0x0800721c   0x0000004c   Code   RO         3512    i.GetUpdateData     app_protocol.o
    0x08007268   0x00000098   Code   RO         3513    i.GetVfdOptInfo     app_protocol.o
    0x08007300   0x00000050   Code   RO         1928    i.GprsAppInit       gc65.o
    0x08007350   0x00000038   Code   RO         2129    i.GprsDMAReceiveDisable  gc65_bsp.o
    0x08007388   0x00000048   Code   RO         1929    i.GprsParaInit      gc65.o
    0x080073d0   0x00000038   Code   RO         1931    i.GprsReAPN         gc65.o
    0x08007408   0x0000002c   Code   RO         1932    i.GprsReConnect     gc65.o
    0x08007434   0x000000dc   Code   RO         1653    i.GprsReadNetTime   app_rtc.o
    0x08007510   0x000001c4   Code   RO         1933    i.GprsReadQeng      gc65.o
    0x080076d4   0x00000020   Code   RO         1934    i.GprsSndDataAccept  gc65.o
    0x080076f4   0x00000010   Code   RO         1935    i.GprsSndDataFlush  gc65.o
    0x08007704   0x0000001c   Code   RO         1936    i.GprsSndDataPost   gc65.o
    0x08007720   0x0000004c   Code   RO         2130    i.GprsUART_SetDMAReceive  gc65_bsp.o
    0x0800776c   0x00000012   Code   RO         2131    i.GprsUartCmd       gc65_bsp.o
    0x0800777e   0x00000002   PAD
    0x08007780   0x00000020   Code   RO         2132    i.GprsUartDMAReceive  gc65_bsp.o
    0x080077a0   0x00000394   Code   RO         1937    i.GprsUartIsr       gc65.o
    0x08007b34   0x00000004   Code   RO         1500    i.HardFault_Handler  stm32f10x_it.o
    0x08007b38   0x000000d4   Code   RO          185    i.HardWareInit      bsp.o
    0x08007c0c   0x000000c8   Code   RO         1938    i.HaveDataSend      gc65.o
    0x08007cd4   0x00000006   Code   RO         1313    i.Hex2Float         comm.o
    0x08007cda   0x00000002   PAD
    0x08007cdc   0x00000098   Code   RO          186    i.Init485Uart       bsp.o
    0x08007d74   0x00000078   Code   RO          187    i.InitCan           bsp.o
    0x08007dec   0x00000002   Code   RO          188    i.InitIWDG          bsp.o
    0x08007dee   0x00000002   PAD
    0x08007df0   0x00000240   Code   RO          189    i.InitUart          bsp.o
    0x08008030   0x00000038   Code   RO         1939    i.InsertTo          gc65.o
    0x08008068   0x000000a8   Code   RO          190    i.InterruptConfig   bsp.o
    0x08008110   0x0000006c   Code   RO         1316    i.IsIp              comm.o
    0x0800817c   0x0000000a   Code   RO         1003    i.IsModbusMaster    app_vfd.o
    0x08008186   0x00000028   Code   RO         1317    i.IsNumber          comm.o
    0x080081ae   0x00000002   PAD
    0x080081b0   0x00000010   Code   RO         3514    i.IsReg             app_protocol.o
    0x080081c0   0x00000240   Code   RO          511    i.JSON_AddrAndDataToObject  app_json.o
    0x08008400   0x00000058   Code   RO          512    i.JSON_AddrListExtract  app_json.o
    0x08008458   0x00000090   Code   RO          513    i.JSON_AddrNumberDataToObject  app_json.o
    0x080084e8   0x00000030   Code   RO          514    i.JSON_AddrStringDataToObject  app_json.o
    0x08008518   0x0000010a   Code   RO          515    i.JSON_ArrayExtract  app_json.o
    0x08008622   0x00000002   PAD
    0x08008624   0x00000028   Code   RO          516    i.JSON_EventNoInfToObject  app_json.o
    0x0800864c   0x00000098   Code   RO          517    i.JSON_EventWithInfToObject  app_json.o
    0x080086e4   0x000000a4   Code   RO          518    i.JSON_Extract      app_json.o
    0x08008788   0x000001ac   Code   RO          520    i.JSON_ExtractObjNode  app_json.o
    0x08008934   0x000001f8   Code   RO          521    i.JSON_FlowDataToObject  app_json.o
    0x08008b2c   0x00000026   Code   RO          522    i.JSON_IsObjectBegin  app_json.o
    0x08008b52   0x00000002   PAD
    0x08008b54   0x0000023c   Code   RO          523    i.JSON_MeterDataToObject  app_json.o
    0x08008d90   0x00000030   Code   RO          524    i.JSON_NumberValToObject  app_json.o
    0x08008dc0   0x0000000c   Code   RO          525    i.JSON_ObjectBegin  app_json.o
    0x08008dcc   0x00000028   Code   RO          526    i.JSON_ObjectEnd    app_json.o
    0x08008df4   0x0000012c   Code   RO         3515    i.JSON_RtcTimeGet   app_protocol.o
    0x08008f20   0x00000030   Code   RO          527    i.JSON_StringValToObject  app_json.o
    0x08008f50   0x0000003a   Code   RO         1654    i.LeapYear          app_rtc.o
    0x08008f8a   0x00000002   PAD
    0x08008f8c   0x0000005c   Code   RO          631    i.LedOnSet          app_led.o
    0x08008fe8   0x000000b4   Code   RO          632    i.Led_Indicate      app_led.o
    0x0800909c   0x00000040   Code   RO          633    i.Led_Indicate_Init  app_led.o
    0x080090dc   0x00000004   Code   RO         1501    i.MemManage_Handler  stm32f10x_it.o
    0x080090e0   0x00000028   Code   RO         1004    i.Meter2ClrTimeOut  app_vfd.o
    0x08009108   0x00000028   Code   RO         1005    i.MeterClrTimeOut   app_vfd.o
    0x08009130   0x00000064   Code   RO         1006    i.MeterReadIndexChg  app_vfd.o
    0x08009194   0x0000000c   Code   RO         1007    i.MeterWaitResp     app_vfd.o
    0x080091a0   0x00000024   Code   RO         1008    i.ModbusAddrInit    app_vfd.o
    0x080091c4   0x0000000e   Code   RO         1009    i.ModbusDelay       app_vfd.o
    0x080091d2   0x00000016   Code   RO         1010    i.ModbusFunInit     app_vfd.o
    0x080091e8   0x0000000a   Code   RO         1011    i.ModbusOvTmInit    app_vfd.o
    0x080091f2   0x0000003c   Code   RO         1012    i.ModbusRcvCrcChk   app_vfd.o
    0x0800922e   0x00000038   Code   RO         1013    i.ModbusRcvFinish   app_vfd.o
    0x08009266   0x00000030   Code   RO         1014    i.ModbusRcvTimeOut  app_vfd.o
    0x08009296   0x00000052   Code   RO         1015    i.ModbusSendNextChar  app_vfd.o
    0x080092e8   0x00000042   Code   RO         1016    i.ModbusStartSend   app_vfd.o
    0x0800932a   0x00000050   Code   RO         1017    i.ModbusUartIsr     app_vfd.o
    0x0800937a   0x00000002   PAD
    0x0800937c   0x00000010   Code   RO         1789    i.ModelIsFtping     app_upgrade.o
    0x0800938c   0x000000d0   Code   RO         1730    i.MultFunInit       app_multfun.o
    0x0800945c   0x00000002   Code   RO         1502    i.NMI_Handler       stm32f10x_it.o
    0x0800945e   0x00000002   PAD
    0x08009460   0x00000070   Code   RO         2271    i.NVIC_Init         misc.o
    0x080094d0   0x00000014   Code   RO         2272    i.NVIC_PriorityGroupConfig  misc.o
    0x080094e4   0x00000028   Code   RO          191    i.NVIC_SetPriority  bsp.o
    0x0800950c   0x0000001c   Code   RO         1318    i.NetFourByteToDWord  comm.o
    0x08009528   0x0000000e   Code   RO         1319    i.NetTwoByteToWord  comm.o
    0x08009536   0x00000002   PAD
    0x08009538   0x000000dc   Code   RO         3516    i.ObjRespondToServer  app_protocol.o
    0x08009614   0x00000030   Code   RO         3517    i.OnlykeyVarRead    app_protocol.o
    0x08009644   0x0000005a   Code   RO         3518    i.Packet            app_protocol.o
    0x0800969e   0x00000010   Code   RO         2235    i.PipeDataValid     pipe.o
    0x080096ae   0x00000002   PAD
    0x080096b0   0x00000644   Code   RO          786    i.Plt3SysVarRead    app_plt.o
    0x08009cf4   0x00000cec   Code   RO          787    i.PltDevDataPrase   app_plt.o
    0x0800a9e0   0x0000058c   Code   RO          788    i.PltDevMan860DataPrase  app_plt.o
    0x0800af6c   0x0000056c   Code   RO          789    i.PltMam6080OtherDataPrase  app_plt.o
    0x0800b4d8   0x00000698   Code   RO          790    i.PltMam6080OtherVarRead  app_plt.o
    0x0800bb70   0x000002e8   Code   RO         1018    i.PltParaWrite      app_vfd.o
    0x0800be58   0x00000210   Code   RO          791    i.PltSysVarWriter   app_plt.o
    0x0800c068   0x0000010c   Code   RO          792    i.Plt_Fault_Deal    app_plt.o
    0x0800c174   0x0000001a   Code   RO          793    i.Plt_PreAlarm_Deal  app_plt.o
    0x0800c18e   0x00000002   PAD
    0x0800c190   0x000000a0   Code   RO          794    i.Plt_RunStata_Deal  app_plt.o
    0x0800c230   0x000001bc   Code   RO         3519    i.ProDataSend       app_protocol.o
    0x0800c3ec   0x00000030   Code   RO         3520    i.ProSendInit       app_protocol.o
    0x0800c41c   0x00000020   Code   RO         2755    i.RCC_AHBPeriphClockCmd  stm32f10x_rcc.o
    0x0800c43c   0x00000020   Code   RO         2756    i.RCC_APB1PeriphClockCmd  stm32f10x_rcc.o
    0x0800c45c   0x00000020   Code   RO         2757    i.RCC_APB1PeriphResetCmd  stm32f10x_rcc.o
    0x0800c47c   0x00000020   Code   RO         2758    i.RCC_APB2PeriphClockCmd  stm32f10x_rcc.o
    0x0800c49c   0x00000014   Code   RO         2762    i.RCC_ClearFlag     stm32f10x_rcc.o
    0x0800c4b0   0x000000d4   Code   RO         2766    i.RCC_GetClocksFreq  stm32f10x_rcc.o
    0x0800c584   0x0000002c   Code   RO         1019    i.RS4850_ChgToRcv   app_vfd.o
    0x0800c5b0   0x00000048   Code   RO         1020    i.RS4850_ChgToSnd   app_vfd.o
    0x0800c5f8   0x0000002c   Code   RO         1021    i.RS4851_ChgToRcv   app_vfd.o
    0x0800c624   0x00000044   Code   RO         1022    i.RS4851_ChgToSnd   app_vfd.o
    0x0800c668   0x0000002c   Code   RO         1023    i.RS4852_ChgToRcv   app_vfd.o
    0x0800c694   0x00000048   Code   RO         1024    i.RS4852_ChgToSnd   app_vfd.o
    0x0800c6dc   0x00000028   Code   RO          407    i.RS485CfgResp      app_debug.o
    0x0800c704   0x0000003c   Code   RO         1025    i.RS485ComInit      app_vfd.o
    0x0800c740   0x00000012   Code   RO          408    i.RS485SndDly       app_debug.o
    0x0800c752   0x00000002   PAD
    0x0800c754   0x000000c0   Code   RO         1655    i.RTC_GmtToBjTime   app_rtc.o
    0x0800c814   0x00000098   Code   RO         1026    i.ReadIndexChg      app_vfd.o
    0x0800c8ac   0x00000020   Code   RO         3521    i.RebootDelay       app_protocol.o
    0x0800c8cc   0x0000000c   Code   RO         1790    i.RebootRequest     app_upgrade.o
    0x0800c8d8   0x00000078   Code   RO         1731    i.RegTimerErrCode   app_multfun.o
    0x0800c950   0x0000001c   Code   RO         1732    i.RegTimerInit      app_multfun.o
    0x0800c96c   0x0000007c   Code   RO         1733    i.RegTimerRun       app_multfun.o
    0x0800c9e8   0x00000014   Code   RO         1734    i.RegTimerStop      app_multfun.o
    0x0800c9fc   0x0000001a   Code   RO         1942    i.RemoveBlackatoi   gc65.o
    0x0800ca16   0x00000002   PAD
    0x0800ca18   0x00000024   Code   RO         1943    i.ReturnToInserStage  gc65.o
    0x0800ca3c   0x00000040   Code   RO          634    i.Rs485ComLed       app_led.o
    0x0800ca7c   0x00000104   Code   RO         1027    i.Rs485ComOptResultAlarm  app_vfd.o
    0x0800cb80   0x00000016   Code   RO         3753    i.SPIFlashErase4K   SPIFlash.lib(spiflash.o)
    0x0800cb96   0x00000020   Code   RO         3755    i.SPIFlashInit      SPIFlash.lib(spiflash.o)
    0x0800cbb6   0x0000001e   Code   RO         3757    i.SPIFlashRead      SPIFlash.lib(spiflash.o)
    0x0800cbd4   0x0000001e   Code   RO         3758    i.SPIFlashWrite     SPIFlash.lib(spiflash.o)
    0x0800cbf2   0x00000018   Code   RO         3145    i.SPI_Cmd           stm32f10x_spi.o
    0x0800cc0a   0x00000012   Code   RO         3153    i.SPI_I2S_GetFlagStatus  stm32f10x_spi.o
    0x0800cc1c   0x00000006   Code   RO         3156    i.SPI_I2S_ReceiveData  stm32f10x_spi.o
    0x0800cc22   0x00000004   Code   RO         3157    i.SPI_I2S_SendData  stm32f10x_spi.o
    0x0800cc26   0x0000003c   Code   RO         3158    i.SPI_Init          stm32f10x_spi.o
    0x0800cc62   0x00000018   Code   RO         3784    i.SST25V_DBSY       SPIFlash.lib(spiflashdev.o)
    0x0800cc7a   0x00000018   Code   RO         3785    i.SST25V_EnableWriteStatusRegister  SPIFlash.lib(spiflashdev.o)
    0x0800cc92   0x00000024   Code   RO         3786    i.SST25V_WriteStatusRegister  SPIFlash.lib(spiflashdev.o)
    0x0800ccb6   0x00000002   Code   RO         1503    i.SVC_Handler       stm32f10x_it.o
    0x0800ccb8   0x000000f8   Code   RO         1944    i.SendATCondition   gc65.o
    0x0800cdb0   0x00000030   Code   RO         1946    i.SendIPDATA        gc65.o
    0x0800cde0   0x000005b8   Code   RO         3522    i.ServerCmdDeal     app_protocol.o
    0x0800d398   0x000000a8   Code   RO         3523    i.ServerCmd_Head_Deal  app_protocol.o
    0x0800d440   0x000001e8   Code   RO         3524    i.ServerDataGetRespond  app_protocol.o
    0x0800d628   0x0000026c   Code   RO         3525    i.ServerParaSet     app_protocol.o
    0x0800d894   0x0000011c   Code   RO         1656    i.ServerTimeSet     app_rtc.o
    0x0800d9b0   0x0000006c   Code   RO          795    i.Server_Writer_Data_Buf  app_plt.o
    0x0800da1c   0x0000005c   Code   RO          796    i.Server_Writer_Data_SendBuf  app_plt.o
    0x0800da78   0x00000058   Code   RO         3526    i.SetBindStatus     app_protocol.o
    0x0800dad0   0x0000007c   Code   RO         1028    i.SetMeterReadIndex  app_vfd.o
    0x0800db4c   0x00000064   Code   RO         3527    i.SetParaSaveFlag   app_protocol.o
    0x0800dbb0   0x0000002c   Code   RO         1029    i.SetRemoteOptResult  app_vfd.o
    0x0800dbdc   0x00000008   Code   RO         3717    i.SetSysClock       system_stm32f10x.o
    0x0800dbe4   0x000000e0   Code   RO         3718    i.SetSysClockTo72   system_stm32f10x.o
    0x0800dcc4   0x00000072   Code   RO         1481    i.Simulation        simulation.o
    0x0800dd36   0x00000002   PAD
    0x0800dd38   0x00000130   Code   RO            1    i.SoftWareInit      main.o
    0x0800de68   0x00000150   Code   RO          683    i.SpecAddrRead      app_para.o
    0x0800dfb8   0x0000002c   Code   RO          281    i.Start_Stop_Filter  app_alarmevent.o
    0x0800dfe4   0x000000aa   Code   RO         1320    i.StringToHex       comm.o
    0x0800e08e   0x00000002   PAD
    0x0800e090   0x00000040   Code   RO         1791    i.SysAppInfUpdate   app_upgrade.o
    0x0800e0d0   0x000000e8   Code   RO          635    i.SysComLed         app_led.o
    0x0800e1b8   0x000000fc   Code   RO          684    i.SysParaRead       app_para.o
    0x0800e2b4   0x00000148   Code   RO          685    i.SysParaStorage    app_para.o
    0x0800e3fc   0x00000120   Code   RO         1504    i.SysTick_Handler   stm32f10x_it.o
    0x0800e51c   0x00000016   Code   RO         1657    i.SysTime_Delay     app_rtc.o
    0x0800e532   0x00000012   Code   RO         1658    i.SysTime_Fresh     app_rtc.o
    0x0800e544   0x0000000c   Code   RO         1659    i.SysTime_Get       app_rtc.o
    0x0800e550   0x0000003c   Code   RO         1660    i.SysTime_Updata    app_rtc.o
    0x0800e58c   0x00000048   Code   RO          686    i.SysVarInit        app_para.o
    0x0800e5d4   0x000001e8   Code   RO          687    i.SysVarRead        app_para.o
    0x0800e7bc   0x00000060   Code   RO         3720    i.SystemInit        system_stm32f10x.o
    0x0800e81c   0x00001f2c   Code   RO         1948    i.TaskGC65          gc65.o
    0x08010748   0x00000224   Code   RO         1030    i.Task_Meter2Comm   app_vfd.o
    0x0801096c   0x000001c4   Code   RO         1031    i.Task_Meter2Deal   app_vfd.o
    0x08010b30   0x00000048   Code   RO         1032    i.Task_Meter2Init   app_vfd.o
    0x08010b78   0x00000288   Code   RO         1033    i.Task_MeterComm    app_vfd.o
    0x08010e00   0x000001a8   Code   RO         1034    i.Task_MeterDeal    app_vfd.o
    0x08010fa8   0x0000004c   Code   RO         1035    i.Task_MeterInit    app_vfd.o
    0x08010ff4   0x000001c0   Code   RO         1735    i.Task_MultFun_1s   app_multfun.o
    0x080111b4   0x00000050   Code   RO         3528    i.Task_ProDeal      app_protocol.o
    0x08011204   0x000005cc   Code   RO         3529    i.Task_ProSend      app_protocol.o
    0x080117d0   0x000003a4   Code   RO         1036    i.Task_VfdComm      app_vfd.o
    0x08011b74   0x0000031c   Code   RO         1037    i.Task_VfdDeal      app_vfd.o
    0x08011e90   0x0000005c   Code   RO         1038    i.Task_VfdInit      app_vfd.o
    0x08011eec   0x00000084   Code   RO         1505    i.UART4_IRQHandler  stm32f10x_it.o
    0x08011f70   0x00000134   Code   RO         1506    i.USART1_IRQHandler  stm32f10x_it.o
    0x080120a4   0x00000084   Code   RO         1507    i.USART2_IRQHandler  stm32f10x_it.o
    0x08012128   0x00000084   Code   RO         1508    i.USART3_IRQHandler  stm32f10x_it.o
    0x080121ac   0x00000012   Code   RO         2957    i.USART_ClearFlag   stm32f10x_usart.o
    0x080121be   0x0000001e   Code   RO         2958    i.USART_ClearITPendingBit  stm32f10x_usart.o
    0x080121dc   0x00000018   Code   RO         2961    i.USART_Cmd         stm32f10x_usart.o
    0x080121f4   0x00000012   Code   RO         2962    i.USART_DMACmd      stm32f10x_usart.o
    0x08012206   0x0000001a   Code   RO         2964    i.USART_GetFlagStatus  stm32f10x_usart.o
    0x08012220   0x00000054   Code   RO         2965    i.USART_GetITStatus  stm32f10x_usart.o
    0x08012274   0x0000004a   Code   RO         2967    i.USART_ITConfig    stm32f10x_usart.o
    0x080122be   0x00000002   PAD
    0x080122c0   0x000000d8   Code   RO         2968    i.USART_Init        stm32f10x_usart.o
    0x08012398   0x0000000a   Code   RO         2975    i.USART_ReceiveData  stm32f10x_usart.o
    0x080123a2   0x00000008   Code   RO         2978    i.USART_SendData    stm32f10x_usart.o
    0x080123aa   0x00000002   PAD
    0x080123ac   0x00000038   Code   RO         1510    i.USB_LP_CAN1_RX0_IRQHandler  stm32f10x_it.o
    0x080123e4   0x00000022   Code   RO         2198    i.UartFirstChar     uart.o
    0x08012406   0x00000002   PAD
    0x08012408   0x0000005c   Code   RO         2199    i.UartIntSendData   uart.o
    0x08012464   0x00000038   Code   RO         1511    i.UartRcvTimeOut    stm32f10x_it.o
    0x0801249c   0x0000010c   Code   RO         2200    i.UartSendData      uart.o
    0x080125a8   0x0000003a   Code   RO         2201    i.UartTimerOver     uart.o
    0x080125e2   0x00000002   PAD
    0x080125e4   0x000000e0   Code   RO         1792    i.UpdateFileCrcCheck  app_upgrade.o
    0x080126c4   0x00000068   Code   RO         1793    i.UpdateFileGet     app_upgrade.o
    0x0801272c   0x000000c0   Code   RO         1794    i.UpdateFileWrite   app_upgrade.o
    0x080127ec   0x00000028   Code   RO         1795    i.UpgradeFlagSet    app_upgrade.o
    0x08012814   0x0000004c   Code   RO         1796    i.UpgradeSectorErase  app_upgrade.o
    0x08012860   0x0000003c   Code   RO         1797    i.UpgradeServerInit  app_upgrade.o
    0x0801289c   0x00000018   Code   RO         1798    i.UpgradeSizeInit   app_upgrade.o
    0x080128b4   0x00000138   Code   RO         1799    i.UpgradeTask       app_upgrade.o
    0x080129ec   0x0000003c   Code   RO         1800    i.UpgradeUsrInit    app_upgrade.o
    0x08012a28   0x000000fc   Code   RO         1801    i.UpgradeVersionInit  app_upgrade.o
    0x08012b24   0x00000004   Code   RO         1512    i.UsageFault_Handler  stm32f10x_it.o
    0x08012b28   0x00000040   Code   RO          920    i.UsrCmdCtrl        app_usrcmd.o
    0x08012b68   0x00000094   Code   RO          921    i.UsrCmdDebug       app_usrcmd.o
    0x08012bfc   0x00000228   Code   RO          922    i.UsrCmdParse       app_usrcmd.o
    0x08012e24   0x00000208   Code   RO          923    i.UsrCmdQuery       app_usrcmd.o
    0x0801302c   0x00000080   Code   RO          924    i.UsrCmdSet         app_usrcmd.o
    0x080130ac   0x00000034   Code   RO          925    i.UsrCmdTest        app_usrcmd.o
    0x080130e0   0x00000028   Code   RO         1039    i.VfdClrTimeOut     app_vfd.o
    0x08013108   0x00000024   Code   RO         1040    i.VfdCtrlInit       app_vfd.o
    0x0801312c   0x00000050   Code   RO         1041    i.VfdReadRegPacket  app_vfd.o
    0x0801317c   0x00000060   Code   RO         1042    i.VfdSetWhoUse      app_vfd.o
    0x080131dc   0x0000000c   Code   RO         1043    i.VfdWaitResp       app_vfd.o
    0x080131e8   0x00000074   Code   RO         1045    i.VfdWriteMoreRegPacket  app_vfd.o
    0x0801325c   0x00000050   Code   RO         1046    i.VfdWriteRegPacket  app_vfd.o
    0x080132ac   0x00000028   Code   RO         1047    i.Vfd_Meter_Write_Data  app_vfd.o
    0x080132d4   0x00000048   Code   RO         3530    i.WaitRsp           app_protocol.o
    0x0801331c   0x0000000e   Code   RO         1324    i.WordToBuf         comm.o
    0x0801332a   0x00000002   PAD
    0x0801332c   0x000001d0   Code   RO          797    i.XYDevDataDeal     app_plt.o
    0x080134fc   0x000001ec   Code   RO          798    i.XYMeterVarRead    app_plt.o
    0x080136e8   0x00000058   Code   RO         1661    i.YearDay           app_rtc.o
    0x08013740   0x00000028   Code   RO         4226    i.__ARM_fpclassify  m_ws.l(fpclassify.o)
    0x08013768   0x00000024   Code   RO          688    i._flashErase       app_para.o
    0x0801378c   0x0000003c   Code   RO          689    i._flashRead        app_para.o
    0x080137c8   0x00000084   Code   RO          690    i._flashWrite       app_para.o
    0x0801384c   0x0000000e   Code   RO         3905    i._is_digit         c_w.l(__printf_wp.o)
    0x0801385a   0x00000034   Code   RO         1609    i.dtuCfgDataCheck   app_dtucfg.o
    0x0801388e   0x0000001c   Code   RO         1610    i.dtuCfgDataCrc     app_dtucfg.o
    0x080138aa   0x00000074   Code   RO         1611    i.dtuConfigResp     app_dtucfg.o
    0x0801391e   0x00000002   PAD
    0x08013920   0x00000578   Code   RO         1612    i.dtuFactoryConfig  app_dtucfg.o
    0x08013e98   0x00000010   Code   RO         1949    i.gprsIsConnect     gc65.o
    0x08013ea8   0x00000010   Code   RO         3531    i.isGprsCon         app_protocol.o
    0x08013eb8   0x00000248   Code   RO            2    i.main              main.o
    0x08014100   0x000000bc   Code   RO         1327    i.my_atof           comm.o
    0x080141bc   0x0000004a   Code   RO         1328    i.my_atoi           comm.o
    0x08014206   0x00000002   PAD
    0x08014208   0x00000044   Code   RO         1329    i.my_itoa           comm.o
    0x0801424c   0x00000092   Code   RO         2236    i.pipeCreate        pipe.o
    0x080142de   0x00000072   Code   RO         2237    i.pipeDataRead      pipe.o
    0x08014350   0x00000084   Code   RO         2238    i.pipeDataWrite     pipe.o
    0x080143d4   0x00000020   Code   RO         2239    i.pipeFlush         pipe.o
    0x080143f4   0x0000007c   Code   RO         1736    i.rst_data_process  app_multfun.o
    0x08014470   0x0000003c   Code   RO         1330    i.stricmp           comm.o
    0x080144ac   0x00000044   Code   RO          192    i.systick_init      bsp.o
    0x080144f0   0x0000002c   Code   RO         4207    locale$$code        c_w.l(lc_numeric_c.o)
    0x0801451c   0x0000002c   Code   RO         4240    locale$$code        c_w.l(lc_ctype_c.o)
    0x08014548   0x00000150   Code   RO         3949    x$fpl$dadd          fz_ws.l(daddsub_clz.o)
    0x08014698   0x000002b0   Code   RO         3956    x$fpl$ddiv          fz_ws.l(ddiv.o)
    0x08014948   0x0000005a   Code   RO         3959    x$fpl$dfixu         fz_ws.l(dfixu.o)
    0x080149a2   0x0000002e   Code   RO         3964    x$fpl$dflt          fz_ws.l(dflt_clz.o)
    0x080149d0   0x00000026   Code   RO         3963    x$fpl$dfltu         fz_ws.l(dflt_clz.o)
    0x080149f6   0x00000002   PAD
    0x080149f8   0x00000154   Code   RO         3969    x$fpl$dmul          fz_ws.l(dmul.o)
    0x08014b4c   0x0000009c   Code   RO         4125    x$fpl$dnaninf       fz_ws.l(dnaninf.o)
    0x08014be8   0x0000000c   Code   RO         4127    x$fpl$dretinf       fz_ws.l(dretinf.o)
    0x08014bf4   0x000001d4   Code   RO         3951    x$fpl$dsub          fz_ws.l(daddsub_clz.o)
    0x08014dc8   0x00000056   Code   RO         3971    x$fpl$f2d           fz_ws.l(f2d.o)
    0x08014e1e   0x00000002   PAD
    0x08014e20   0x00000184   Code   RO         3974    x$fpl$fdiv          fz_ws.l(fdiv.o)
    0x08014fa4   0x00000030   Code   RO         3978    x$fpl$fflt          fz_ws.l(fflt_clz.o)
    0x08014fd4   0x00000026   Code   RO         3977    x$fpl$ffltu         fz_ws.l(fflt_clz.o)
    0x08014ffa   0x00000002   PAD
    0x08014ffc   0x00000102   Code   RO         3983    x$fpl$fmul          fz_ws.l(fmul.o)
    0x080150fe   0x0000008c   Code   RO         4129    x$fpl$fnaninf       fz_ws.l(fnaninf.o)
    0x0801518a   0x0000000a   Code   RO         4131    x$fpl$fretinf       fz_ws.l(fretinf.o)
    0x08015194   0x00000004   Code   RO         3985    x$fpl$printf1       fz_ws.l(printf1.o)
    0x08015198   0x00000000   Code   RO         4133    x$fpl$usenofp       fz_ws.l(usenofp.o)
    0x08015198   0x00000748   Data   RO          800    .constdata          app_plt.o
    0x080158e0   0x00000200   Data   RO         1331    .constdata          comm.o
    0x08015ae0   0x0000000d   Data   RO         1662    .constdata          app_rtc.o
    0x08015aed   0x00000051   Data   RO         3533    .constdata          app_protocol.o
    0x08015b3e   0x00000002   PAD
    0x08015b40   0x00000400   Data   RO         3769    .constdata          crc32.lib(crc32.o)
    0x08015f40   0x00000028   Data   RO         3893    .constdata          c_w.l(_printf_hex_int_ll_ptr.o)
    0x08015f68   0x00000011   Data   RO         3913    .constdata          c_w.l(__printf_flags_ss_wp.o)
    0x08015f79   0x00000003   PAD
    0x08015f7c   0x00000008   Data   RO         4043    .constdata          c_w.l(_printf_wctomb.o)
    0x08015f84   0x00000094   Data   RO         4180    .constdata          c_w.l(bigflt0.o)
    0x08016018   0x00000243   Data   RO         3534    .conststring        app_protocol.o
    0x0801625b   0x00000001   PAD
    0x0801625c   0x00000020   Data   RO         4315    Region$$Table       anon$$obj.o
    0x0801627c   0x0000001c   Data   RO         4206    locale$$data        c_w.l(lc_numeric_c.o)
    0x08016298   0x00000110   Data   RO         4239    locale$$data        c_w.l(lc_ctype_c.o)


    Execution Region RW_IRAM1 (Base: 0x20000000, Size: 0x00003e08, Max: 0x0000c000, ABSOLUTE, COMPRESSED[0x00000044])

    Base Addr    Size         Type   Attr      Idx    E Section Name        Object

    0x20000000   0x00000018   Data   RW          283    .data               app_alarmevent.o
    0x20000018   0x00000008   Data   RW          410    .data               app_debug.o
    0x20000020   0x00000019   Data   RW          636    .data               app_led.o
    0x20000039   0x00000003   PAD
    0x2000003c   0x00000016   Data   RW          693    .data               app_para.o
    0x20000052   0x00000010   Data   RW          801    .data               app_plt.o
    0x20000062   0x00000002   PAD
    0x20000064   0x00000063   Data   RW         1049    .data               app_vfd.o
    0x200000c7   0x00000001   PAD
    0x200000c8   0x00000002   Data   RW         1513    .data               stm32f10x_it.o
    0x200000ca   0x00000002   Data   RW         1614    .data               app_dtucfg.o
    0x200000cc   0x00000012   Data   RW         1663    .data               app_rtc.o
    0x200000de   0x00000002   PAD
    0x200000e0   0x00000030   Data   RW         1737    .data               app_multfun.o
    0x20000110   0x00000009   Data   RW         1803    .data               app_upgrade.o
    0x20000119   0x00000003   PAD
    0x2000011c   0x00000036   Data   RW         1951    .data               gc65.o
    0x20000152   0x00000001   Data   RW         2203    .data               uart.o
    0x20000153   0x00000014   Data   RW         2786    .data               stm32f10x_rcc.o
    0x20000167   0x00000001   PAD
    0x20000168   0x00000039   Data   RW         3535    .data               app_protocol.o
    0x200001a1   0x00000003   PAD
    0x200001a4   0x00000004   Data   RW         3770    .data               crc32.lib(crc32.o)
    0x200001a8   0x00000001   Data   RW         3787    .data               SPIFlash.lib(spiflashdev.o)
    0x200001a9   0x00000003   PAD
    0x200001ac   0x00000004   Data   RW         3923    .data               c_w.l(strtok.o)
    0x200001b0   0x00000030   Zero   RW          282    .bss                app_alarmevent.o
    0x200001e0   0x000001a0   Zero   RW          409    .bss                app_debug.o
    0x20000380   0x00000214   Zero   RW          528    .bss                app_json.o
    0x20000594   0x00000400   Zero   RW          692    .bss                app_para.o
    0x20000994   0x00000073   Zero   RW          799    .bss                app_plt.o
    0x20000a07   0x00000001   PAD
    0x20000a08   0x00000310   Zero   RW         1048    .bss                app_vfd.o
    0x20000d18   0x00000400   Zero   RW         1613    .bss                app_dtucfg.o
    0x20001118   0x00000200   Zero   RW         1802    .bss                app_upgrade.o
    0x20001318   0x00001578   Zero   RW         1950    .bss                gc65.o
    0x20002890   0x0000020a   Zero   RW         2133    .bss                gc65_bsp.o
    0x20002a9a   0x0000048a   Zero   RW         2202    .bss                uart.o
    0x20002f24   0x00000880   Zero   RW         3532    .bss                app_protocol.o
    0x200037a4   0x00000060   Zero   RW         4137    .bss                c_w.l(libspace.o)
    0x20003804   0x00000004   PAD
    0x20003808   0x00000200   Zero   RW         3710    HEAP                startup_stm32f10x_hd.o
    0x20003a08   0x00000400   Zero   RW         3709    STACK               startup_stm32f10x_hd.o


==============================================================================

Image component sizes


      Code (inc. data)   RO Data    RW Data    ZI Data      Debug   Object Name

      1306        110          0         24         48     235606   app_alarmevent.o
       558        106          0          8        416       6327   app_debug.o
      1650         48          0          2       1024       5992   app_dtucfg.o
      3168        458          0          0        532      14350   app_json.o
       632         58          0         25          0       4520   app_led.o
      1072        180          0         48          0       4898   app_multfun.o
      3026        530          0         22       1024      14919   app_para.o
     13282        806       1864         16        115      23974   app_plt.o
     12906       1976        660         57       2176      30458   app_protocol.o
      1390         96         13         18          0       8744   app_rtc.o
      1704        378          0          9        512      11511   app_upgrade.o
      1482        458          0          0          0       5319   app_usrcmd.o
      7124        540          0         99        784      33983   app_vfd.o
      1832         96          0          0          0      25502   bsp.o
      1072         26        512          0          0      13421   comm.o
     14024       1978          0         54       5496      28299   gc65.o
       398         60          0          0        522       4947   gc65_bsp.o
       888        282          0          0          0     279738   main.o
       132         22          0          0          0      12203   misc.o
       440          0          0          0          0       4088   pipe.o
       114          0          0          0          0        593   simulation.o
       296         26          0          0          0       1784   spiflashhal.o
         6          0          0          0          0       1386   spiflashusr.o
        64         26        304          0       1536        872   startup_stm32f10x_hd.o
      1210         12          0          0          0      14715   stm32f10x_can.o
       506         26          0          0          0      15321   stm32f10x_dma.o
       330         38          0          0          0      12076   stm32f10x_flash.o
       430          6          0          0          0      12498   stm32f10x_gpio.o
      1178        110          0          2          0       8337   stm32f10x_it.o
       360         50          0         20          0      15171   stm32f10x_rcc.o
       112          0          0          0          0      11050   stm32f10x_spi.o
       508          6          0          0          0      14452   stm32f10x_usart.o
       328         28          0          0          0       2069   system_stm32f10x.o
       452         46          0          1       1162       3941   uart.o

    ----------------------------------------------------------------------
     74046       8582       3388        420      15348     883064   Object Totals
         0          0         32          0          0          0   (incl. Generated)
        66          0          3         15          1          0   (incl. Padding)

    ----------------------------------------------------------------------

      Code (inc. data)   RO Data    RW Data    ZI Data      Debug   Library Member Name

       202          6          0          0          0        412   spiflash.o
       672          6          0          1          0        988   spiflashdev.o
        44          6          0          0          0         84   __2sprintf.o
        90          0          0          0          0          0   __dczerorl2.o
         8          0          0          0          0         68   __main.o
       392          4         17          0          0         92   __printf_flags_ss_wp.o
        14          0          0          0          0         68   __printf_wp.o
         0          0          0          0          0          0   __rtentry.o
        12          0          0          0          0          0   __rtentry2.o
         6          0          0          0          0          0   __rtentry4.o
        52          8          0          0          0          0   __scatter.o
        28          0          0          0          0          0   __scatter_zi.o
        28          0          0          0          0         68   _chval.o
         6          0          0          0          0          0   _printf_a.o
         6          0          0          0          0          0   _printf_c.o
        44          0          0          0          0        108   _printf_char.o
        48          6          0          0          0         96   _printf_char_common.o
        40          0          0          0          0         68   _printf_charcount.o
         6          0          0          0          0          0   _printf_d.o
       120         16          0          0          0         92   _printf_dec.o
         6          0          0          0          0          0   _printf_e.o
         6          0          0          0          0          0   _printf_f.o
      1050          0          0          0          0        216   _printf_fp_dec.o
       128         16          0          0          0         84   _printf_fp_infnan.o
         6          0          0          0          0          0   _printf_g.o
       148          4         40          0          0        160   _printf_hex_int_ll_ptr.o
         6          0          0          0          0          0   _printf_i.o
       178          0          0          0          0         88   _printf_intcommon.o
        10          0          0          0          0          0   _printf_l.o
         6          0          0          0          0          0   _printf_lc.o
        10          0          0          0          0          0   _printf_ll.o
         6          0          0          0          0          0   _printf_lld.o
         6          0          0          0          0          0   _printf_lli.o
         6          0          0          0          0          0   _printf_llo.o
         6          0          0          0          0          0   _printf_llu.o
         6          0          0          0          0          0   _printf_llx.o
       124         16          0          0          0         92   _printf_longlong_dec.o
         6          0          0          0          0          0   _printf_ls.o
         6          0          0          0          0          0   _printf_n.o
         6          0          0          0          0          0   _printf_o.o
       112          8          0          0          0        124   _printf_oct_int_ll.o
         6          0          0          0          0          0   _printf_p.o
        78          0          0          0          0        108   _printf_pad.o
         0          0          0          0          0          0   _printf_percent.o
         4          0          0          0          0          0   _printf_percent_end.o
         6          0          0          0          0          0   _printf_s.o
        82          0          0          0          0         80   _printf_str.o
        36          0          0          0          0         84   _printf_truncate.o
         6          0          0          0          0          0   _printf_u.o
        44          0          0          0          0        108   _printf_wchar.o
       188          6          8          0          0         92   _printf_wctomb.o
         6          0          0          0          0          0   _printf_x.o
        16          0          0          0          0         68   _snputc.o
        10          0          0          0          0         68   _sputc.o
       158          0          0          0          0         92   _strtoul.o
        64          0          0          0          0         92   _wcrtomb.o
        16          0          0          0          0         68   aeabi_memset.o
        26          0          0          0          0         80   atoi.o
       220          4        148          0          0         96   bigflt0.o
      1910        128          0          0          0        672   btod.o
        52          4          0          0          0         80   c89vsnprintf.o
        10          0          0          0          0         68   defsig_exit.o
        50          0          0          0          0         88   defsig_general.o
        80         58          0          0          0         76   defsig_rtmem_inner.o
        14          0          0          0          0         80   defsig_rtmem_outer.o
        12          0          0          0          0         72   exit.o
        94          0          0          0          0         80   h1_alloc.o
        52          0          0          0          0         68   h1_extend.o
        78          0          0          0          0         80   h1_free.o
        14          0          0          0          0         84   h1_init.o
         6          0          0          0          0        152   heapauxi.o
         4          0          0          0          0        136   hguard.o
         0          0          0          0          0          0   indicate_semi.o
       138          0          0          0          0        168   init_alloc.o
        44         10        272          0          0         76   lc_ctype_c.o
        44         10         28          0          0         76   lc_numeric_c.o
         2          0          0          0          0          0   libinit.o
        38          0          0          0          0          0   libinit2.o
         2          0          0          0          0          0   libshutdown.o
         2          0          0          0          0          0   libshutdown2.o
         8          4          0          0         96         68   libspace.o
       138          0          0          0          0         80   lludiv10.o
         0          0          0          0          0          0   maybetermalloc1.o
        88          0          0          0          0         76   memcmp.o
        16          4          0          0          0         76   rt_ctype_table.o
         8          4          0          0          0         68   rt_errno_addr_intlibspace.o
         8          4          0          0          0         68   rt_heap_descriptor_intlibspace.o
         8          4          0          0          0         68   rt_locale_intlibspace.o
        68          0          0          0          0         68   rt_memclr.o
        78          0          0          0          0         80   rt_memclr_w.o
       138          0          0          0          0         68   rt_memcpy_v6.o
       100          0          0          0          0         80   rt_memcpy_w.o
         2          0          0          0          0          0   rtexit.o
        10          0          0          0          0          0   rtexit2.o
       128          0          0          0          0         68   strcmpv7m.o
        72          0          0          0          0         80   strcpy.o
        32          0          0          0          0         80   strcspn.o
        62          0          0          0          0         76   strlen.o
       150          0          0          0          0         80   strncmp.o
        86          0          0          0          0         76   strncpy.o
        28          0          0          0          0         80   strspn.o
        12          6          0          4          0         68   strtok.o
        68          4          0          0          0         84   strtok_int.o
       112          0          0          0          0         88   strtol.o
        12          4          0          0          0         68   sys_exit.o
        74          0          0          0          0         80   sys_stackheap_outer.o
        14          0          0          0          0         76   sys_wrch.o
         2          0          0          0          0         68   use_no_semi.o
        68         16       1024          4          0        148   crc32.o
       804         16          0          0          0        272   daddsub_clz.o
       688        140          0          0          0        208   ddiv.o
        90          4          0          0          0         92   dfixu.o
        84          0          0          0          0        136   dflt_clz.o
       340         12          0          0          0        104   dmul.o
       156          4          0          0          0         92   dnaninf.o
        12          0          0          0          0         68   dretinf.o
        86          4          0          0          0         84   f2d.o
       388         76          0          0          0         96   fdiv.o
        86          0          0          0          0        136   fflt_clz.o
       258          4          0          0          0         84   fmul.o
       140          4          0          0          0         84   fnaninf.o
        10          0          0          0          0         68   fretinf.o
         4          0          0          0          0         68   printf1.o
         0          0          0          0          0          0   usenofp.o
        40          0          0          0          0         68   fpclassify.o

    ----------------------------------------------------------------------
     12074        630       1540         12        100       9680   Library Totals
        30          0          3          3          4          0   (incl. Padding)

    ----------------------------------------------------------------------

      Code (inc. data)   RO Data    RW Data    ZI Data      Debug   Library Name

       874         12          0          1          0       1400   SPIFlash.lib
      7916        338        513          4         96       6472   c_w.l
        68         16       1024          4          0        148   crc32.lib
      3146        264          0          0          0       1592   fz_ws.l
        40          0          0          0          0         68   m_ws.l

    ----------------------------------------------------------------------
     12074        630       1540         12        100       9680   Library Totals

    ----------------------------------------------------------------------

==============================================================================


      Code (inc. data)   RO Data    RW Data    ZI Data      Debug   

     86120       9212       4928        432      15448     869704   Grand Totals
     86120       9212       4928         68      15448     869704   ELF Image Totals (compressed)
     86120       9212       4928         68          0          0   ROM Totals

==============================================================================

    Total RO  Size (Code + RO Data)                91048 (  88.91kB)
    Total RW  Size (RW Data + ZI Data)             15880 (  15.51kB)
    Total ROM Size (Code + RO Data + RW Data)      91116 (  88.98kB)

==============================================================================

