Component: ARM Compiler 5.05 (build 41) Tool: armlink [4d0eb9]

==============================================================================

Section Cross References

    main.o(.text) refers to app_debug.o(.text) for AppDebugInit
    main.o(.text) refers to bsp.o(.text) for FeedDog
    main.o(.text) refers to app_para.o(.text) for SysVarInit
    main.o(.text) refers to app_alarmevent.o(.text) for AlarmEventInit
    main.o(.text) refers to gc65.o(.text) for GprsAppInit
    main.o(.text) refers to app_protocol.o(.text) for ProSendInit
    main.o(.text) refers to app_multfun.o(.text) for MultFunInit
    main.o(.text) refers to app_vfd.o(.text) for RS485ComInit
    main.o(.text) refers to app_dtucfg.o(.text) for dtuFactoryConfig
    main.o(.text) refers to app_usrcmd.o(.text) for UsrCmdParse
    main.o(.text) refers to app_led.o(.text) for SysComLed
    main.o(.text) refers to app_upgrade.o(.text) for UpgradeTask
    main.o(.text) refers to app_multfun.o(.data) for CfgDelay
    main.o(.text) refers to app_dtucfg.o(.data) for GbCfgCmd
    main.o(.text) refers to uart.o(.bss) for UartTest
    main.o(.text) refers to app_rtc.o(.data) for TimeFlag
    main.o(.text) refers to app_dtucfg.o(.data) for GbDtuEnterCfg
    main.o(.text) refers to app_debug.o(.data) for AppDebug
    main.o(.text) refers to app_vfd.o(.data) for pVfd
    main.o(.text) refers to app_para.o(.data) for GpSysPara
    main.o(.text) refers to app_protocol.o(.data) for RebootTime
    bsp.o(.text) refers to stm32f10x_gpio.o(.text) for GPIO_Init
    bsp.o(.text) refers to stm32f10x_rcc.o(.text) for RCC_GetFlagStatus
    bsp.o(.text) refers to stm32f10x_iwdg.o(.text) for IWDG_WriteAccessCmd
    bsp.o(.text) refers to stm32f10x_usart.o(.text) for USART_ITConfig
    bsp.o(.text) refers to stm32f10x_dma.o(.text) for DMA_DeInit
    bsp.o(.text) refers to misc.o(.text) for NVIC_Init
    bsp.o(.text) refers to stm32f10x_can.o(.text) for CAN_DeInit
    bsp.o(.text) refers to spiflash.o(i.SPIFlashInit) for SPIFlashInit
    bsp.o(.text) refers to bsp.o(.data) for .data
    bsp.o(.text) refers to app_debug.o(.bss) for DebugCheck
    app_alarmevent.o(.text) refers to aeabi_memset.o(.text) for __aeabi_memset
    app_alarmevent.o(.text) refers to rt_memclr.o(.text) for __aeabi_memclr
    app_alarmevent.o(.text) refers to app_alarmevent.o(.data) for .data
    app_alarmevent.o(.text) refers to app_protocol.o(.bss) for AlmMask
    app_alarmevent.o(.text) refers to app_protocol.o(.bss) for AlmStat
    app_alarmevent.o(.text) refers to app_para.o(.data) for GpSysPara
    app_alarmevent.o(.text) refers to app_para.o(.bss) for ParaFat
    app_alarmevent.o(.text) refers to app_alarmevent.o(.bss) for .bss
    app_debug.o(.text) refers to _printf_pad.o(.text) for _printf_pre_padding
    app_debug.o(.text) refers to _printf_percent.o(.ARM.Collect$$_printf_percent$$00000000) for _printf_percent
    app_debug.o(.text) refers to _printf_x.o(.ARM.Collect$$_printf_percent$$0000000C) for _printf_x
    app_debug.o(.text) refers to _printf_hex_int_ll_ptr.o(.text) for _printf_longlong_hex
    app_debug.o(.text) refers to bsp.o(.text) for FeedDog
    app_debug.o(.text) refers to stm32f10x_gpio.o(.text) for GPIO_ResetBits
    app_debug.o(.text) refers to strlen.o(.text) for strlen
    app_debug.o(.text) refers to uart.o(.text) for UartSendData
    app_debug.o(.text) refers to __2sprintf.o(.text) for __2sprintf
    app_debug.o(.text) refers to c89vsnprintf.o(.text) for __c89vsnprintf
    app_debug.o(.text) refers to rt_memcpy_v6.o(.text) for __aeabi_memcpy
    app_debug.o(.text) refers to app_vfd.o(.text) for ModbusStartSend
    app_debug.o(.text) refers to app_debug.o(.data) for .data
    app_debug.o(.text) refers to uart.o(.data) for DebugUartRcvStat
    app_debug.o(.text) refers to app_debug.o(.bss) for .bss
    app_debug.o(.text) refers to app_vfd.o(.data) for pVfd
    app_json.o(.text) refers to _printf_percent.o(.ARM.Collect$$_printf_percent$$00000000) for _printf_percent
    app_json.o(.text) refers to _printf_d.o(.ARM.Collect$$_printf_percent$$00000009) for _printf_d
    app_json.o(.text) refers to _printf_s.o(.ARM.Collect$$_printf_percent$$00000014) for _printf_s
    app_json.o(.text) refers to _printf_dec.o(.text) for _printf_int_dec
    app_json.o(.text) refers to _printf_str.o(.text) for _printf_str
    app_json.o(.text) refers to _printf_pad.o(.text) for _printf_pre_padding
    app_json.o(.text) refers to _printf_x.o(.ARM.Collect$$_printf_percent$$0000000C) for _printf_x
    app_json.o(.text) refers to _printf_hex_int_ll_ptr.o(.text) for _printf_longlong_hex
    app_json.o(.text) refers to _printf_f.o(.ARM.Collect$$_printf_percent$$00000003) for _printf_f
    app_json.o(.text) refers to printf1.o(x$fpl$printf1) for _printf_fp_dec
    app_json.o(.text) refers to strlen.o(.text) for strlen
    app_json.o(.text) refers to __2sprintf.o(.text) for __2sprintf
    app_json.o(.text) refers to fflt_clz.o(x$fpl$ffltu) for __aeabi_ui2f
    app_json.o(.text) refers to f2d.o(x$fpl$f2d) for __aeabi_f2d
    app_json.o(.text) refers to ddiv.o(x$fpl$ddiv) for __aeabi_ddiv
    app_json.o(.text) refers to comm.o(.text) for Hex2Float
    app_json.o(.text) refers to dflt_clz.o(x$fpl$dfltu) for __aeabi_ui2d
    app_json.o(.text) refers to dmul.o(x$fpl$dmul) for __aeabi_dmul
    app_json.o(.text) refers to app_plt.o(.constdata) for Plt_Mam6080_DataList
    app_json.o(.text) refers to app_para.o(.data) for GpSysStat
    app_json.o(.text) refers to strncmp.o(.text) for strncmp
    app_json.o(.text) refers to strcpy.o(.text) for strcpy
    app_json.o(.text) refers to app_json.o(.bss) for .bss
    app_led.o(.text) refers to stm32f10x_gpio.o(.text) for GPIO_SetBits
    app_led.o(.text) refers to app_protocol.o(.text) for isGprsCon
    app_led.o(.text) refers to app_led.o(.data) for .data
    app_led.o(.text) refers to app_para.o(.data) for GpSysStat
    app_led.o(.text) refers to app_led.o(.bss) for .bss
    app_para.o(.text) refers to stm32f10x_flash.o(.text) for FLASH_Unlock
    app_para.o(.text) refers to app_debug.o(.text) for DebugMsg
    app_para.o(.text) refers to rt_memclr.o(.text) for __aeabi_memclr
    app_para.o(.text) refers to rt_memcpy_v6.o(.text) for __aeabi_memcpy
    app_para.o(.text) refers to strcpy.o(.text) for strcpy
    app_para.o(.text) refers to comm.o(.text) for CRC16_1
    app_para.o(.text) refers to app_para.o(.data) for .data
    app_para.o(.text) refers to app_para.o(.bss) for .bss
    app_para.o(.text) refers to memcmp.o(.text) for memcmp
    app_para.o(.text) refers to app_protocol.o(.text) for IsReg
    app_para.o(.text) refers to gc65.o(.text) for GetMultLoc
    app_para.o(.text) refers to app_plt.o(.text) for XYMeterVarRead
    app_para.o(.text) refers to app_protocol.o(.bss) for AlmStat
    app_para.o(.text) refers to gc65.o(.bss) for GprsCtrlInfo
    app_plt.o(.text) refers to app_json.o(.text) for JSON_AddrAndDataToObject
    app_plt.o(.text) refers to app_protocol.o(.text) for JSON_RtcTimeGet
    app_plt.o(.text) refers to rt_memclr.o(.text) for __aeabi_memclr
    app_plt.o(.text) refers to app_para.o(.text) for SysVarRead
    app_plt.o(.text) refers to comm.o(.text) for DevTwoByteToWord
    app_plt.o(.text) refers to app_para.o(.data) for GpSysPara
    app_plt.o(.text) refers to app_vfd.o(.bss) for VfdCtrl
    app_plt.o(.text) refers to app_plt.o(.constdata) for .constdata
    app_plt.o(.text) refers to app_protocol.o(.data) for GbUpLoadAllPara
    app_plt.o(.text) refers to app_plt.o(.bss) for .bss
    app_plt.o(.text) refers to gc65.o(.bss) for GprsCtrlInfo
    app_plt.o(.text) refers to strlen.o(.text) for strlen
    app_plt.o(.text) refers to app_protocol.o(.bss) for AlmStat
    app_plt.o(.text) refers to app_plt.o(.data) for .data
    app_plt.o(.text) refers to app_alarmevent.o(.data) for StartFilterTimer
    app_plt.o(.text) refers to app_multfun.o(.data) for RmtBootTimer
    app_plt.o(.text) refers to daddsub_clz.o(x$fpl$dadd) for __aeabi_dadd
    app_plt.o(.text) refers to dmul.o(x$fpl$dmul) for __aeabi_dmul
    app_plt.o(.text) refers to dfixu.o(x$fpl$dfixu) for __aeabi_d2uiz
    app_plt.o(.text) refers to rt_memcpy_v6.o(.text) for __aeabi_memcpy
    app_usrcmd.o(.text) refers to _printf_percent.o(.ARM.Collect$$_printf_percent$$00000000) for _printf_percent
    app_usrcmd.o(.text) refers to _printf_s.o(.ARM.Collect$$_printf_percent$$00000014) for _printf_s
    app_usrcmd.o(.text) refers to _printf_str.o(.text) for _printf_str
    app_usrcmd.o(.text) refers to comm.o(.text) for my_atoi
    app_usrcmd.o(.text) refers to strlen.o(.text) for strlen
    app_usrcmd.o(.text) refers to strcpy.o(.text) for strcpy
    app_usrcmd.o(.text) refers to app_protocol.o(.text) for isGprsCon
    app_usrcmd.o(.text) refers to app_debug.o(.text) for DebugMsg
    app_usrcmd.o(.text) refers to app_upgrade.o(.text) for FtpInfoInit
    app_usrcmd.o(.text) refers to app_vfd.o(.text) for Task_VfdInit
    app_usrcmd.o(.text) refers to __2sprintf.o(.text) for __2sprintf
    app_usrcmd.o(.text) refers to strtok.o(.text) for strtok
    app_usrcmd.o(.text) refers to app_para.o(.data) for GpSysPara
    app_usrcmd.o(.text) refers to app_para.o(.bss) for ParaFat
    app_usrcmd.o(.text) refers to app_debug.o(.bss) for DebugCheck
    app_usrcmd.o(.text) refers to app_debug.o(.data) for AppDebug
    app_usrcmd.o(.text) refers to app_multfun.o(.data) for CfgDelay
    app_vfd.o(.text) refers to stm32f10x_gpio.o(.text) for GPIO_ResetBits
    app_vfd.o(.text) refers to stm32f10x_usart.o(.text) for USART_ClearFlag
    app_vfd.o(.text) refers to rt_memclr_w.o(.text) for __aeabi_memclr4
    app_vfd.o(.text) refers to uart.o(.text) for UartSendData
    app_vfd.o(.text) refers to comm.o(.text) for CRC16_1
    app_vfd.o(.text) refers to app_vfd.o(.data) for .data
    app_vfd.o(.text) refers to app_vfd.o(.bss) for .bss
    app_vfd.o(.text) refers to app_para.o(.data) for GpSysPara
    app_vfd.o(.text) refers to app_plt.o(.text) for GetPltReadAddr
    app_vfd.o(.text) refers to app_protocol.o(.data) for ParaUpdate
    app_vfd.o(.text) refers to app_plt.o(.data) for EnterPltParaWrite
    app_vfd.o(.text) refers to app_plt.o(.data) for PltAlowWrite
    app_vfd.o(.text) refers to app_multfun.o(.data) for RmtBootTimer
    app_vfd.o(.text) refers to rt_memcpy_v6.o(.text) for __aeabi_memcpy
    app_vfd.o(.text) refers to stm32f10x_can.o(.text) for CAN_Transmit
    app_vfd.o(.text) refers to bsp.o(.text) for Init485Uart
    app_vfd.o(.data) refers to app_vfd.o(.bss) for RS4850Modbus
    app_vfd.o(.data) refers to app_vfd.o(.bss) for RS4851Modbus
    app_vfd.o(.data) refers to app_vfd.o(.bss) for RS4852Modbus
    app_vfd.o(.data) refers to app_vfd.o(.text) for RS4850_ChgToSnd
    comm.o(.text) refers to strlen.o(.text) for strlen
    comm.o(.text) refers to memcmp.o(.text) for memcmp
    comm.o(.text) refers to fflt_clz.o(x$fpl$fflt) for __aeabi_i2f
    comm.o(.text) refers to fdiv.o(x$fpl$fdiv) for __aeabi_fdiv
    comm.o(.text) refers to f2d.o(x$fpl$f2d) for __aeabi_f2d
    comm.o(.text) refers to daddsub_clz.o(x$fpl$dadd) for __aeabi_dadd
    comm.o(.text) refers to fmul.o(x$fpl$fmul) for __aeabi_fmul
    comm.o(.text) refers to dflt_clz.o(x$fpl$dfltu) for __aeabi_ui2d
    comm.o(.text) refers to dmul.o(x$fpl$dmul) for __aeabi_dmul
    comm.o(.text) refers to daddsub_clz.o(x$fpl$dsub) for __aeabi_dsub
    comm.o(.text) refers to comm.o(.constdata) for .constdata
    stm32f10x_it.o(.text) refers to uart.o(.text) for UartTimerOver
    stm32f10x_it.o(.text) refers to app_rtc.o(.text) for SysTime_Updata
    stm32f10x_it.o(.text) refers to stm32f10x_usart.o(.text) for USART_GetITStatus
    stm32f10x_it.o(.text) refers to app_vfd.o(.text) for ModbusUartIsr
    stm32f10x_it.o(.text) refers to gc65.o(.text) for GprsUartIsr
    stm32f10x_it.o(.text) refers to stm32f10x_dma.o(.text) for DMA_GetFlagStatus
    stm32f10x_it.o(.text) refers to stm32f10x_can.o(.text) for CAN_MessagePending
    stm32f10x_it.o(.text) refers to uart.o(.bss) for UartTest
    stm32f10x_it.o(.text) refers to uart.o(.data) for DebugUartRcvStat
    stm32f10x_it.o(.text) refers to stm32f10x_it.o(.data) for .data
    stm32f10x_it.o(.text) refers to app_rtc.o(.data) for TimeFlag
    stm32f10x_it.o(.text) refers to app_multfun.o(.data) for CfgDelay
    stm32f10x_it.o(.text) refers to app_dtucfg.o(.data) for GbDtuEnterCfg
    stm32f10x_it.o(.text) refers to app_debug.o(.data) for AppDebug
    stm32f10x_it.o(.text) refers to app_vfd.o(.data) for GbEventFlag
    stm32f10x_it.o(.text) refers to app_vfd.o(.bss) for RS4850Modbus
    stm32f10x_it.o(.text) refers to app_dtucfg.o(.data) for GbCfgCmd
    stm32f10x_it.o(.text) refers to app_vfd.o(.bss) for RS4851Modbus
    stm32f10x_it.o(.text) refers to app_vfd.o(.bss) for RS4852Modbus
    app_dtucfg.o(.text) refers to rt_memcpy_v6.o(.text) for __aeabi_memcpy
    app_dtucfg.o(.text) refers to app_debug.o(.text) for RS485CfgResp
    app_dtucfg.o(.text) refers to strlen.o(.text) for strlen
    app_dtucfg.o(.text) refers to rt_memclr.o(.text) for __aeabi_memclr
    app_dtucfg.o(.text) refers to app_dtucfg.o(.bss) for .bss
    app_dtucfg.o(.text) refers to app_dtucfg.o(.data) for .data
    app_dtucfg.o(.text) refers to app_para.o(.data) for GpSysPara
    app_dtucfg.o(.text) refers to app_para.o(.bss) for ParaFat
    app_rtc.o(.text) refers to strlen.o(.text) for strlen
    app_rtc.o(.text) refers to app_rtc.o(.data) for .data
    app_rtc.o(.text) refers to app_rtc.o(.constdata) for .constdata
    app_multfun.o(.text) refers to stm32f10x_rcc.o(.text) for RCC_ClearFlag
    app_multfun.o(.text) refers to app_debug.o(.text) for DebugMsg
    app_multfun.o(.text) refers to app_led.o(.text) for Led_Indicate_Init
    app_multfun.o(.text) refers to rt_memclr.o(.text) for __aeabi_memclr
    app_multfun.o(.text) refers to app_vfd.o(.text) for Task_VfdInit
    app_multfun.o(.text) refers to app_alarmevent.o(.text) for Alarm_Filter_Deal
    app_multfun.o(.text) refers to app_multfun.o(.data) for .data
    app_multfun.o(.text) refers to gc65.o(.bss) for GprsCtrlInfo
    app_multfun.o(.text) refers to app_protocol.o(.bss) for AlmStat
    app_multfun.o(.text) refers to app_protocol.o(.data) for ParaUpload
    app_multfun.o(.text) refers to app_protocol.o(.data) for GbeInitParaSend
    app_multfun.o(.text) refers to app_para.o(.data) for GpSysStat
    app_multfun.o(.text) refers to app_alarmevent.o(.data) for StartFilterTimer
    app_multfun.o(.text) refers to app_alarmevent.o(.bss) for AlmFilterTimer
    app_multfun.o(.text) refers to app_para.o(.bss) for ParaFat
    app_multfun.o(.text) refers to app_debug.o(.data) for AppDebug
    app_multfun.o(.text) refers to app_dtucfg.o(.data) for GbDtuEnterCfg
    app_upgrade.o(.text) refers to crc32.o(i.CRC32CalcReset) for CRC32CalcReset
    app_upgrade.o(.text) refers to spiflash.o(i.SPIFlashRead) for SPIFlashRead
    app_upgrade.o(.text) refers to crc32.o(i.CRC32Calc) for CRC32Calc
    app_upgrade.o(.text) refers to bsp.o(.text) for FeedDog
    app_upgrade.o(.text) refers to app_debug.o(.text) for DebugMsg
    app_upgrade.o(.text) refers to spiflash.o(i.SPIFlashWrite) for SPIFlashWrite
    app_upgrade.o(.text) refers to spiflash.o(i.SPIFlashErase4K) for SPIFlashErase4K
    app_upgrade.o(.text) refers to gc65_bsp.o(.text) for GprsUartDMAReceive
    app_upgrade.o(.text) refers to stm32f10x_gpio.o(.text) for GPIO_SetBits
    app_upgrade.o(.text) refers to rt_memclr_w.o(.text) for __aeabi_memclr4
    app_upgrade.o(.text) refers to strcpy.o(.text) for strcpy
    app_upgrade.o(.text) refers to strtok.o(.text) for strtok
    app_upgrade.o(.text) refers to comm.o(.text) for StringToHex
    app_upgrade.o(.text) refers to strcmpv7m.o(.text) for strcmp
    app_upgrade.o(.text) refers to atoi.o(.text) for atoi
    app_upgrade.o(.text) refers to strlen.o(.text) for strlen
    app_upgrade.o(.text) refers to app_upgrade.o(.bss) for .bss
    app_upgrade.o(.text) refers to gc65.o(.bss) for FtpInf
    app_upgrade.o(.text) refers to app_upgrade.o(.data) for .data
    gc65.o(.text) refers to _printf_percent.o(.ARM.Collect$$_printf_percent$$00000000) for _printf_percent
    gc65.o(.text) refers to _printf_s.o(.ARM.Collect$$_printf_percent$$00000014) for _printf_s
    gc65.o(.text) refers to _printf_str.o(.text) for _printf_str
    gc65.o(.text) refers to _printf_d.o(.ARM.Collect$$_printf_percent$$00000009) for _printf_d
    gc65.o(.text) refers to _printf_dec.o(.text) for _printf_int_dec
    gc65.o(.text) refers to app_debug.o(.text) for DebugMsg
    gc65.o(.text) refers to strlen.o(.text) for strlen
    gc65.o(.text) refers to gc65_bsp.o(.text) for GprsUartCmd
    gc65.o(.text) refers to pipe.o(.text) for pipeDataWrite
    gc65.o(.text) refers to comm.o(.text) for my_atoi
    gc65.o(.text) refers to strtok.o(.text) for strtok
    gc65.o(.text) refers to gc65.o(.bss) for .bss
    gc65.o(.text) refers to gc65.o(.data) for .data
    gc65.o(.text) refers to app_para.o(.data) for GpSysPara
    gc65.o(.text) refers to strcpy.o(.text) for strcpy
    gc65.o(.text) refers to strncmp.o(.text) for strncmp
    gc65.o(.text) refers to app_debug.o(.bss) for DebugCheck
    gc65.o(.text) refers to app_multfun.o(.text) for RegTimerErrCode
    gc65.o(.text) refers to strcmpv7m.o(.text) for strcmp
    gc65.o(.text) refers to app_rtc.o(.text) for GprsReadNetTime
    gc65.o(.text) refers to app_upgrade.o(.text) for UpgradeFlagSet
    gc65.o(.text) refers to app_rtc.o(.data) for SysTime
    gc65.o(.text) refers to __2sprintf.o(.text) for __2sprintf
    gc65.o(.text) refers to app_led.o(.text) for LedOnSet
    gc65.o(.text) refers to app_protocol.o(.text) for ClearHeartTimer
    gc65.o(.text) refers to stm32f10x_gpio.o(.text) for GPIO_SetBits
    gc65.o(.text) refers to app_protocol.o(.data) for RegDelay
    gc65.o(.text) refers to rt_memclr.o(.text) for __aeabi_memclr
    gc65.o(.data) refers to gc65.o(.bss) for _gprsDealBuf
    gc65_bsp.o(.text) refers to uart.o(.text) for UartSendData
    gc65_bsp.o(.text) refers to stm32f10x_usart.o(.text) for USART_ITConfig
    gc65_bsp.o(.text) refers to stm32f10x_dma.o(.text) for DMA_Cmd
    gc65_bsp.o(.text) refers to stm32f10x_rcc.o(.text) for RCC_AHBPeriphClockCmd
    gc65_bsp.o(.text) refers to misc.o(.text) for NVIC_Init
    gc65_bsp.o(.text) refers to stm32f10x_gpio.o(.text) for GPIO_ResetBits
    gc65_bsp.o(.text) refers to gc65_bsp.o(.bss) for .bss
    gc65_bsp.o(.text) refers to gc65.o(.bss) for GprsCtrlInfo
    uart.o(.text) refers to stm32f10x_usart.o(.text) for USART_GetFlagStatus
    uart.o(.text) refers to bsp.o(.text) for FeedDog
    uart.o(.text) refers to rt_memcpy_v6.o(.text) for __aeabi_memcpy
    uart.o(.text) refers to uart.o(.bss) for .bss
    pipe.o(.text) refers to h1_alloc.o(.text) for malloc
    pipe.o(.text) refers to rt_memcpy_v6.o(.text) for __aeabi_memcpy
    stm32f10x_gpio.o(.text) refers to stm32f10x_rcc.o(.text) for RCC_APB2PeriphResetCmd
    stm32f10x_rcc.o(.text) refers to stm32f10x_rcc.o(.data) for .data
    stm32f10x_usart.o(.text) refers to stm32f10x_rcc.o(.text) for RCC_APB2PeriphResetCmd
    stm32f10x_spi.o(.text) refers to stm32f10x_rcc.o(.text) for RCC_APB2PeriphResetCmd
    stm32f10x_can.o(.text) refers to stm32f10x_rcc.o(.text) for RCC_APB1PeriphResetCmd
    spiflashhal.o(.text) refers to stm32f10x_gpio.o(.text) for GPIO_ResetBits
    spiflashhal.o(.text) refers to stm32f10x_rcc.o(.text) for RCC_APB2PeriphClockCmd
    spiflashhal.o(.text) refers to stm32f10x_spi.o(.text) for SPI_Init
    app_protocol.o(.text) refers to _printf_percent.o(.ARM.Collect$$_printf_percent$$00000000) for _printf_percent
    app_protocol.o(.text) refers to _printf_d.o(.ARM.Collect$$_printf_percent$$00000009) for _printf_d
    app_protocol.o(.text) refers to _printf_s.o(.ARM.Collect$$_printf_percent$$00000014) for _printf_s
    app_protocol.o(.text) refers to _printf_dec.o(.text) for _printf_int_dec
    app_protocol.o(.text) refers to _printf_str.o(.text) for _printf_str
    app_protocol.o(.text) refers to _printf_f.o(.ARM.Collect$$_printf_percent$$00000003) for _printf_f
    app_protocol.o(.text) refers to printf1.o(x$fpl$printf1) for _printf_fp_dec
    app_protocol.o(.text) refers to _printf_pad.o(.text) for _printf_pre_padding
    app_protocol.o(.text) refers to _printf_x.o(.ARM.Collect$$_printf_percent$$0000000C) for _printf_x
    app_protocol.o(.text) refers to _printf_hex_int_ll_ptr.o(.text) for _printf_longlong_hex
    app_protocol.o(.text) refers to comm.o(.text) for DWordToBuf
    app_protocol.o(.text) refers to rt_memclr.o(.text) for __aeabi_memclr
    app_protocol.o(.text) refers to rt_memclr_w.o(.text) for __aeabi_memclr4
    app_protocol.o(.text) refers to app_rtc.o(.text) for GetRtctime
    app_protocol.o(.text) refers to app_json.o(.text) for JSON_StringValToObject
    app_protocol.o(.text) refers to strlen.o(.text) for strlen
    app_protocol.o(.text) refers to gc65.o(.text) for GprsSndDataPost
    app_protocol.o(.text) refers to app_debug.o(.text) for DebugStrMsg
    app_protocol.o(.text) refers to __2sprintf.o(.text) for __2sprintf
    app_protocol.o(.text) refers to app_para.o(.text) for SysVarRead
    app_protocol.o(.text) refers to dfltll_clz.o(x$fpl$dfltull) for __aeabi_ul2d
    app_protocol.o(.text) refers to ddiv.o(x$fpl$ddiv) for __aeabi_ddiv
    app_protocol.o(.text) refers to app_para.o(.data) for GpSysPara
    app_protocol.o(.text) refers to app_protocol.o(.bss) for .bss
    app_protocol.o(.text) refers to app_debug.o(.data) for AppDebug
    app_protocol.o(.text) refers to rt_memcpy_v6.o(.text) for __aeabi_memcpy
    app_protocol.o(.text) refers to app_plt.o(.text) for PltSysVarWriter
    app_protocol.o(.text) refers to app_vfd.o(.text) for Vfd_Meter_Write_Data
    app_protocol.o(.text) refers to strncmp.o(.text) for strncmp
    app_protocol.o(.text) refers to gc65.o(.bss) for GprsCtrlInfo
    app_protocol.o(.text) refers to app_para.o(.bss) for ParaFat
    app_protocol.o(.text) refers to app_protocol.o(.data) for .data
    app_protocol.o(.text) refers to app_json.o(.bss) for JsonNode
    app_protocol.o(.text) refers to app_rtc.o(.data) for SysTime
    app_protocol.o(.text) refers to app_json.o(.bss) for JsonArrayBuf
    app_protocol.o(.text) refers to app_json.o(.bss) for HeartAddrList
    app_protocol.o(.text) refers to atoi.o(.text) for atoi
    app_protocol.o(.text) refers to app_upgrade.o(.text) for UpgradeVersionInit
    app_protocol.o(.text) refers to app_vfd.o(.data) for SvrVfdOpt
    app_protocol.o(.text) refers to app_json.o(.bss) for JsonObjNode
    app_protocol.o(.text) refers to memcmp.o(.text) for memcmp
    app_protocol.o(.text) refers to bsp.o(.text) for FeedDog
    app_protocol.o(.text) refers to dflt_clz.o(x$fpl$dflt) for __aeabi_i2d
    app_protocol.o(.text) refers to dflt_clz.o(x$fpl$dfltu) for __aeabi_ui2d
    app_protocol.o(.text) refers to app_multfun.o(.data) for BeforeReg
    app_protocol.o(.text) refers to app_alarmevent.o(.bss) for AlmFilterTimer
    app_protocol.o(.text) refers to app_protocol.o(.conststring) for .conststring
    app_protocol.o(.text) refers to app_alarmevent.o(.data) for PreAlmFilterTimer
    app_protocol.o(.text) refers to app_protocol.o(.constdata) for .constdata
    app_protocol.o(.text) refers to app_multfun.o(.text) for RegTimerStop
    app_protocol.o(.text) refers to pipe.o(.text) for pipeDataRead
    app_protocol.o(.text) refers to app_led.o(.text) for LedOnSet
    app_protocol.o(.text) refers to app_debug.o(.bss) for DebugCheck
    app_protocol.o(.text) refers to app_dtucfg.o(.bss) for dtuTmpBuf
    app_protocol.o(.text) refers to gc65.o(.data) for pATResp
    startup_stm32f10x_hd.o(STACK) refers (Special) to heapauxi.o(.text) for __use_two_region_memory
    startup_stm32f10x_hd.o(HEAP) refers (Special) to heapauxi.o(.text) for __use_two_region_memory
    startup_stm32f10x_hd.o(RESET) refers (Special) to heapauxi.o(.text) for __use_two_region_memory
    startup_stm32f10x_hd.o(RESET) refers to startup_stm32f10x_hd.o(STACK) for __initial_sp
    startup_stm32f10x_hd.o(RESET) refers to startup_stm32f10x_hd.o(.text) for Reset_Handler
    startup_stm32f10x_hd.o(RESET) refers to stm32f10x_it.o(.text) for NMI_Handler
    startup_stm32f10x_hd.o(RESET) refers to gc65_bsp.o(.text) for DMA1_Channel6_IRQHandler
    startup_stm32f10x_hd.o(.text) refers (Special) to heapauxi.o(.text) for __use_two_region_memory
    startup_stm32f10x_hd.o(.text) refers to system_stm32f10x.o(.text) for SystemInit
    startup_stm32f10x_hd.o(.text) refers to __main.o(!!!main) for __main
    startup_stm32f10x_hd.o(.text) refers to startup_stm32f10x_hd.o(HEAP) for Heap_Mem
    startup_stm32f10x_hd.o(.text) refers to startup_stm32f10x_hd.o(STACK) for Stack_Mem
    system_stm32f10x.o(.text) refers to system_stm32f10x.o(.data) for .data
    spiflash.o(i.FlashModelRead) refers to spiflashusr.o(.text) for FlashLockPend
    spiflash.o(i.FlashModelRead) refers to spiflashdev.o(i.FlashReadID) for FlashReadID
    spiflash.o(i.FlashModelRead) refers to spiflashdev.o(.data) for FlashModle
    spiflash.o(i.SPIFlashChipErase) refers to spiflashusr.o(.text) for FlashLockPend
    spiflash.o(i.SPIFlashChipErase) refers to spiflashdev.o(i.SST25V_ChipErase) for SST25V_ChipErase
    spiflash.o(i.SPIFlashErase4K) refers to spiflashusr.o(.text) for FlashLockPend
    spiflash.o(i.SPIFlashErase4K) refers to spiflashdev.o(i.FlashSectorErase_4KByte) for FlashSectorErase_4KByte
    spiflash.o(i.SPIFlashErase64K) refers to spiflashusr.o(.text) for FlashLockPend
    spiflash.o(i.SPIFlashErase64K) refers to spiflashdev.o(i.FlashBlockErase_64KByte) for FlashBlockErase_64KByte
    spiflash.o(i.SPIFlashInit) refers to spiflashusr.o(.text) for FlashLockCreate
    spiflash.o(i.SPIFlashInit) refers to spiflashhal.o(.text) for FlashHalInit
    spiflash.o(i.SPIFlashInit) refers to spiflashdev.o(i.SST25V_EnableWriteStatusRegister) for SST25V_EnableWriteStatusRegister
    spiflash.o(i.SPIFlashInit) refers to spiflashdev.o(i.SST25V_WriteStatusRegister) for SST25V_WriteStatusRegister
    spiflash.o(i.SPIFlashInit) refers to spiflashdev.o(i.SST25V_DBSY) for SST25V_DBSY
    spiflash.o(i.SPIFlashInit) refers to spiflash.o(i.FlashModelRead) for FlashModelRead
    spiflash.o(i.SPIFlashRead) refers to spiflashusr.o(.text) for FlashLockPend
    spiflash.o(i.SPIFlashRead) refers to spiflashdev.o(i.FlashBufferRead) for FlashBufferRead
    spiflash.o(i.SPIFlashWrite) refers to spiflashusr.o(.text) for FlashLockPend
    spiflash.o(i.SPIFlashWrite) refers to spiflashdev.o(i.FlashBufferWrite) for FlashBufferWrite
    crc32.o(i.CRC32Calc) refers to crc32.o(.data) for .data
    crc32.o(i.CRC32Calc) refers to crc32.o(.constdata) for .constdata
    crc32.o(i.CRC32CalcReset) refers to crc32.o(.data) for .data
    spiflashdev.o(i.FlashBlockErase_64KByte) refers to spiflashdev.o(i.FlashWriteEnable) for FlashWriteEnable
    spiflashdev.o(i.FlashBlockErase_64KByte) refers to spiflashhal.o(.text) for FlashSelect
    spiflashdev.o(i.FlashBlockErase_64KByte) refers to spiflashdev.o(i.FlashWaitForWriteEnd) for FlashWaitForWriteEnd
    spiflashdev.o(i.FlashBlockErase_64KByte) refers to spiflashdev.o(i.FlashWriteDisable) for FlashWriteDisable
    spiflashdev.o(i.FlashBufferRead) refers to spiflashhal.o(.text) for FlashSelect
    spiflashdev.o(i.FlashBufferWrite) refers to spiflashdev.o(i.FlashWriteEnable) for FlashWriteEnable
    spiflashdev.o(i.FlashBufferWrite) refers to spiflashhal.o(.text) for FlashSelect
    spiflashdev.o(i.FlashBufferWrite) refers to spiflashdev.o(i.FlashWait_Busy_AAI) for FlashWait_Busy_AAI
    spiflashdev.o(i.FlashBufferWrite) refers to spiflashdev.o(i.FlashWaitForWriteEnd) for FlashWaitForWriteEnd
    spiflashdev.o(i.FlashBufferWrite) refers to spiflashdev.o(i.FlashWriteDisable) for FlashWriteDisable
    spiflashdev.o(i.FlashBufferWrite) refers to spiflashdev.o(.data) for .data
    spiflashdev.o(i.FlashReadID) refers to spiflashhal.o(.text) for FlashSelect
    spiflashdev.o(i.FlashReadStatusRegister) refers to spiflashhal.o(.text) for FlashSelect
    spiflashdev.o(i.FlashSectorErase_4KByte) refers to spiflashdev.o(i.FlashWriteEnable) for FlashWriteEnable
    spiflashdev.o(i.FlashSectorErase_4KByte) refers to spiflashhal.o(.text) for FlashSelect
    spiflashdev.o(i.FlashSectorErase_4KByte) refers to spiflashdev.o(i.FlashWaitForWriteEnd) for FlashWaitForWriteEnd
    spiflashdev.o(i.FlashSectorErase_4KByte) refers to spiflashdev.o(i.FlashWriteDisable) for FlashWriteDisable
    spiflashdev.o(i.FlashWaitForWriteEnd) refers to spiflashhal.o(.text) for FlashSelect
    spiflashdev.o(i.FlashWait_Busy_AAI) refers to spiflashdev.o(i.FlashReadStatusRegister) for FlashReadStatusRegister
    spiflashdev.o(i.FlashWriteDisable) refers to spiflashhal.o(.text) for FlashSelect
    spiflashdev.o(i.FlashWriteEnable) refers to spiflashhal.o(.text) for FlashSelect
    spiflashdev.o(i.SST25V_ChipErase) refers to spiflashdev.o(i.FlashWriteEnable) for FlashWriteEnable
    spiflashdev.o(i.SST25V_ChipErase) refers to spiflashhal.o(.text) for FlashSelect
    spiflashdev.o(i.SST25V_ChipErase) refers to spiflashdev.o(i.FlashWaitForWriteEnd) for FlashWaitForWriteEnd
    spiflashdev.o(i.SST25V_ChipErase) refers to spiflashdev.o(i.FlashWriteDisable) for FlashWriteDisable
    spiflashdev.o(i.SST25V_DBSY) refers to spiflashhal.o(.text) for FlashSelect
    spiflashdev.o(i.SST25V_EnableWriteStatusRegister) refers to spiflashhal.o(.text) for FlashSelect
    spiflashdev.o(i.SST25V_WriteStatusRegister) refers to spiflashdev.o(i.SST25V_EnableWriteStatusRegister) for SST25V_EnableWriteStatusRegister
    spiflashdev.o(i.SST25V_WriteStatusRegister) refers to spiflashhal.o(.text) for FlashSelect
    malloc.o(.text) refers (Special) to hguard.o(.text) for __heap$guard
    malloc.o(.text) refers (Special) to init_alloc.o(.text) for _init_alloc
    malloc.o(.text) refers to rt_heap_descriptor_intlibspace.o(.text) for __rt_heap_descriptor
    malloc.o(.text) refers to heapstubs.o(.text) for __Heap_Alloc
    h1_alloc.o(.text) refers (Special) to h1_init.o(.text) for __Heap_Initialize
    h1_alloc.o(.text) refers to rt_heap_descriptor_intlibspace.o(.text) for __rt_heap_descriptor
    h1_alloc.o(.text) refers to init_alloc.o(.text) for __Heap_Full
    h1_alloc_mt.o(.text) refers (Special) to h1_init.o(.text) for __Heap_Initialize
    h1_alloc_mt.o(.text) refers to init_alloc.o(.text) for __Heap_Full
    h1_alloc_mt.o(.text) refers to rt_heap_descriptor_intlibspace.o(.text) for __rt_heap_descriptor
    heap2.o(i._FDIterate) refers to heap2.o(.conststring) for .conststring
    heap2.o(i.___Heap_ProvideMemory$realtime) refers to fdtree.o(i._FDTree_Delete) for _FDTree_Delete
    heap2.o(i.___Heap_ProvideMemory$realtime) refers to fdtree.o(i._FDTree_Insert) for _FDTree_Insert
    heap2.o(i.___Heap_Stats$realtime) refers to heap2.o(i._Heap2_StatsIterate) for _Heap2_StatsIterate
    heap2.o(i.___Heap_Valid$realtime) refers to heap2.o(i._FDIterate) for _FDIterate
    heap2.o(i.___Heap_Valid$realtime) refers to heap2.o(.conststring) for .conststring
    heap2.o(i._free$realtime) refers to rt_heap_descriptor_intlibspace.o(.text) for __rt_heap_descriptor
    heap2.o(i._free$realtime) refers to fdtree.o(i._FDTree_Delete) for _FDTree_Delete
    heap2.o(i._free$realtime) refers to fdtree.o(i._FDTree_Insert) for _FDTree_Insert
    heap2.o(i._malloc$realtime) refers to rt_heap_descriptor_intlibspace.o(.text) for __rt_heap_descriptor
    heap2.o(i._malloc$realtime) refers to fdtree.o(i._FDTree_FindFirst) for _FDTree_FindFirst
    heap2.o(i._malloc$realtime) refers to init_alloc.o(.text) for __Heap_Full
    heap2.o(i._malloc$realtime) refers to fdtree.o(i._FDTree_RemoveNode) for _FDTree_RemoveNode
    heap2.o(i._malloc$realtime) refers to fdtree.o(i._FDTree_Insert) for _FDTree_Insert
    heap2.o(i._posix_memalign$realtime) refers to rt_heap_descriptor_intlibspace.o(.text) for __rt_heap_descriptor
    heap2.o(i._posix_memalign$realtime) refers to fdtree.o(i._FDTree_FindFirst) for _FDTree_FindFirst
    heap2.o(i._posix_memalign$realtime) refers to init_alloc.o(.text) for __Heap_Full
    heap2.o(i._posix_memalign$realtime) refers to fdtree.o(i._FDTree_RemoveNode) for _FDTree_RemoveNode
    heap2.o(i._posix_memalign$realtime) refers to fdtree.o(i._FDTree_Insert) for _FDTree_Insert
    heap2.o(i._realloc$realtime) refers to rt_heap_descriptor_intlibspace.o(.text) for __rt_heap_descriptor
    heap2.o(i._realloc$realtime) refers to fdtree.o(i._FDTree_Insert) for _FDTree_Insert
    heap2.o(i._realloc$realtime) refers to h1_free.o(.text) for free
    heap2.o(i._realloc$realtime) refers to h1_alloc.o(.text) for malloc
    heap2.o(i._realloc$realtime) refers to fdtree.o(i._FDTree_Delete) for _FDTree_Delete
    heap2.o(i._realloc$realtime) refers to rt_memcpy_w.o(.text) for __aeabi_memcpy4
    heap2mt.o(i._FDIterate) refers to heap2mt.o(.conststring) for .conststring
    heap2mt.o(i.___Heap_Initialize$realtime$concurrent) refers to mutex_dummy.o(.text) for _mutex_initialize
    heap2mt.o(i.___Heap_ProvideMemory$realtime$concurrent) refers to fdtree.o(i._FDTree_Delete) for _FDTree_Delete
    heap2mt.o(i.___Heap_ProvideMemory$realtime$concurrent) refers to fdtree.o(i._FDTree_Insert) for _FDTree_Insert
    heap2mt.o(i.___Heap_Stats$realtime$concurrent) refers to heap2mt.o(i._Heap2_StatsIterate) for _Heap2_StatsIterate
    heap2mt.o(i.___Heap_Valid$realtime$concurrent) refers to heap2mt.o(i._FDIterate) for _FDIterate
    heap2mt.o(i.___Heap_Valid$realtime$concurrent) refers to heap2mt.o(.conststring) for .conststring
    heap2mt.o(i._free$realtime$concurrent) refers to rt_heap_descriptor_intlibspace.o(.text) for __rt_heap_descriptor
    heap2mt.o(i._free$realtime$concurrent) refers to fdtree.o(i._FDTree_Delete) for _FDTree_Delete
    heap2mt.o(i._free$realtime$concurrent) refers to fdtree.o(i._FDTree_Insert) for _FDTree_Insert
    heap2mt.o(i._malloc$realtime$concurrent) refers to rt_heap_descriptor_intlibspace.o(.text) for __rt_heap_descriptor
    heap2mt.o(i._malloc$realtime$concurrent) refers to fdtree.o(i._FDTree_FindFirst) for _FDTree_FindFirst
    heap2mt.o(i._malloc$realtime$concurrent) refers to init_alloc.o(.text) for __Heap_Full
    heap2mt.o(i._malloc$realtime$concurrent) refers to fdtree.o(i._FDTree_RemoveNode) for _FDTree_RemoveNode
    heap2mt.o(i._malloc$realtime$concurrent) refers to fdtree.o(i._FDTree_Insert) for _FDTree_Insert
    heap2mt.o(i._posix_memalign$realtime$concurrent) refers to rt_heap_descriptor_intlibspace.o(.text) for __rt_heap_descriptor
    heap2mt.o(i._posix_memalign$realtime$concurrent) refers to fdtree.o(i._FDTree_FindFirst) for _FDTree_FindFirst
    heap2mt.o(i._posix_memalign$realtime$concurrent) refers to init_alloc.o(.text) for __Heap_Full
    heap2mt.o(i._posix_memalign$realtime$concurrent) refers to fdtree.o(i._FDTree_RemoveNode) for _FDTree_RemoveNode
    heap2mt.o(i._posix_memalign$realtime$concurrent) refers to fdtree.o(i._FDTree_Insert) for _FDTree_Insert
    heap2mt.o(i._realloc$realtime$concurrent) refers to rt_heap_descriptor_intlibspace.o(.text) for __rt_heap_descriptor
    heap2mt.o(i._realloc$realtime$concurrent) refers to fdtree.o(i._FDTree_Insert) for _FDTree_Insert
    heap2mt.o(i._realloc$realtime$concurrent) refers to h1_free.o(.text) for free
    heap2mt.o(i._realloc$realtime$concurrent) refers to h1_alloc.o(.text) for malloc
    heap2mt.o(i._realloc$realtime$concurrent) refers to fdtree.o(i._FDTree_Delete) for _FDTree_Delete
    heap2mt.o(i._realloc$realtime$concurrent) refers to rt_memcpy_w.o(.text) for __aeabi_memcpy4
    c89vsnprintf.o(.text) refers (Special) to _printf_a.o(.ARM.Collect$$_printf_percent$$00000006) for _printf_a
    c89vsnprintf.o(.text) refers (Special) to _printf_c.o(.ARM.Collect$$_printf_percent$$00000013) for _printf_c
    c89vsnprintf.o(.text) refers (Special) to _printf_charcount.o(.text) for _printf_charcount
    c89vsnprintf.o(.text) refers (Special) to _printf_d.o(.ARM.Collect$$_printf_percent$$00000009) for _printf_d
    c89vsnprintf.o(.text) refers (Special) to _printf_e.o(.ARM.Collect$$_printf_percent$$00000004) for _printf_e
    c89vsnprintf.o(.text) refers (Special) to _printf_f.o(.ARM.Collect$$_printf_percent$$00000003) for _printf_f
    c89vsnprintf.o(.text) refers (Special) to printf1.o(x$fpl$printf1) for _printf_fp_dec
    c89vsnprintf.o(.text) refers (Special) to _printf_g.o(.ARM.Collect$$_printf_percent$$00000005) for _printf_g
    c89vsnprintf.o(.text) refers (Special) to _printf_i.o(.ARM.Collect$$_printf_percent$$00000008) for _printf_i
    c89vsnprintf.o(.text) refers (Special) to _printf_dec.o(.text) for _printf_int_dec
    c89vsnprintf.o(.text) refers (Special) to _printf_l.o(.ARM.Collect$$_printf_percent$$00000012) for _printf_l
    c89vsnprintf.o(.text) refers (Special) to _printf_lc.o(.ARM.Collect$$_printf_percent$$00000015) for _printf_lc
    c89vsnprintf.o(.text) refers (Special) to _printf_ll.o(.ARM.Collect$$_printf_percent$$00000007) for _printf_ll
    c89vsnprintf.o(.text) refers (Special) to _printf_lld.o(.ARM.Collect$$_printf_percent$$0000000E) for _printf_lld
    c89vsnprintf.o(.text) refers (Special) to _printf_lli.o(.ARM.Collect$$_printf_percent$$0000000D) for _printf_lli
    c89vsnprintf.o(.text) refers (Special) to _printf_llo.o(.ARM.Collect$$_printf_percent$$00000010) for _printf_llo
    c89vsnprintf.o(.text) refers (Special) to _printf_llu.o(.ARM.Collect$$_printf_percent$$0000000F) for _printf_llu
    c89vsnprintf.o(.text) refers (Special) to _printf_llx.o(.ARM.Collect$$_printf_percent$$00000011) for _printf_llx
    c89vsnprintf.o(.text) refers (Special) to _printf_longlong_dec.o(.text) for _printf_longlong_dec
    c89vsnprintf.o(.text) refers (Special) to _printf_hex_int_ll_ptr.o(.text) for _printf_longlong_hex
    c89vsnprintf.o(.text) refers (Special) to _printf_oct_int_ll.o(.text) for _printf_longlong_oct
    c89vsnprintf.o(.text) refers (Special) to _printf_ls.o(.ARM.Collect$$_printf_percent$$00000016) for _printf_ls
    c89vsnprintf.o(.text) refers (Special) to _printf_n.o(.ARM.Collect$$_printf_percent$$00000001) for _printf_n
    c89vsnprintf.o(.text) refers (Special) to _printf_o.o(.ARM.Collect$$_printf_percent$$0000000B) for _printf_o
    c89vsnprintf.o(.text) refers (Special) to _printf_p.o(.ARM.Collect$$_printf_percent$$00000002) for _printf_p
    c89vsnprintf.o(.text) refers (Special) to _printf_percent.o(.ARM.Collect$$_printf_percent$$00000000) for _printf_percent
    c89vsnprintf.o(.text) refers (Special) to _printf_pad.o(.text) for _printf_post_padding
    c89vsnprintf.o(.text) refers (Special) to _printf_s.o(.ARM.Collect$$_printf_percent$$00000014) for _printf_s
    c89vsnprintf.o(.text) refers (Special) to _printf_str.o(.text) for _printf_str
    c89vsnprintf.o(.text) refers (Special) to _printf_truncate.o(.text) for _printf_truncate_signed
    c89vsnprintf.o(.text) refers (Special) to _printf_u.o(.ARM.Collect$$_printf_percent$$0000000A) for _printf_u
    c89vsnprintf.o(.text) refers (Special) to _printf_wctomb.o(.text) for _printf_wctomb
    c89vsnprintf.o(.text) refers (Special) to _printf_x.o(.ARM.Collect$$_printf_percent$$0000000C) for _printf_x
    c89vsnprintf.o(.text) refers to _printf_char_common.o(.text) for _printf_char_common
    c89vsnprintf.o(.text) refers to _sputc.o(.text) for _sputc
    c89vsnprintf.o(.text) refers to _snputc.o(.text) for _snputc
    __2sprintf.o(.text) refers to _printf_char_common.o(.text) for _printf_char_common
    __2sprintf.o(.text) refers to _sputc.o(.text) for _sputc
    noretval__2sprintf.o(.text) refers to _printf_char_common.o(.text) for _printf_char_common
    noretval__2sprintf.o(.text) refers to _sputc.o(.text) for _sputc
    __printf.o(.text) refers to _printf_percent.o(.ARM.Collect$$_printf_percent$$00000000) for _printf_percent
    _printf_str.o(.text) refers (Special) to _printf_char.o(.text) for _printf_cs_common
    _printf_str.o(.text) refers (Weak) to _printf_pad.o(.text) for _printf_pre_padding
    _printf_str.o(.text) refers (Weak) to _printf_pad.o(.text) for _printf_post_padding
    _printf_dec.o(.text) refers (Weak) to _printf_truncate.o(.text) for _printf_truncate_signed
    _printf_dec.o(.text) refers (Weak) to _printf_truncate.o(.text) for _printf_truncate_unsigned
    _printf_dec.o(.text) refers to _printf_intcommon.o(.text) for _printf_int_common
    _printf_hex_ll.o(.text) refers to _printf_intcommon.o(.text) for _printf_int_common
    _printf_hex_ll.o(.text) refers to _printf_hex_ll.o(.constdata) for .constdata
    _printf_hex_int.o(.text) refers (Weak) to _printf_truncate.o(.text) for _printf_truncate_unsigned
    _printf_hex_int.o(.text) refers to _printf_intcommon.o(.text) for _printf_int_common
    _printf_hex_int.o(.text) refers to _printf_hex_int.o(.constdata) for .constdata
    _printf_hex_int_ll.o(.text) refers to _printf_intcommon.o(.text) for _printf_int_common
    _printf_hex_int_ll.o(.text) refers (Weak) to _printf_truncate.o(.text) for _printf_truncate_unsigned
    _printf_hex_int_ll.o(.text) refers to _printf_hex_int_ll.o(.constdata) for .constdata
    _printf_hex_ptr.o(.text) refers to _printf_intcommon.o(.text) for _printf_int_common
    _printf_hex_ptr.o(.text) refers to _printf_hex_ptr.o(.constdata) for .constdata
    _printf_hex_int_ptr.o(.text) refers to _printf_intcommon.o(.text) for _printf_int_common
    _printf_hex_int_ptr.o(.text) refers (Weak) to _printf_truncate.o(.text) for _printf_truncate_unsigned
    _printf_hex_int_ptr.o(.text) refers to _printf_hex_int_ptr.o(.constdata) for .constdata
    _printf_hex_ll_ptr.o(.text) refers to _printf_intcommon.o(.text) for _printf_int_common
    _printf_hex_ll_ptr.o(.text) refers to _printf_hex_ll_ptr.o(.constdata) for .constdata
    _printf_hex_int_ll_ptr.o(.text) refers to _printf_intcommon.o(.text) for _printf_int_common
    _printf_hex_int_ll_ptr.o(.text) refers (Weak) to _printf_truncate.o(.text) for _printf_truncate_unsigned
    _printf_hex_int_ll_ptr.o(.text) refers to _printf_hex_int_ll_ptr.o(.constdata) for .constdata
    __printf_flags.o(.text) refers to _printf_percent.o(.ARM.Collect$$_printf_percent$$00000000) for _printf_percent
    __printf_flags.o(.text) refers to __printf_flags.o(.constdata) for .constdata
    __printf_ss.o(.text) refers to _printf_percent.o(.ARM.Collect$$_printf_percent$$00000000) for _printf_percent
    __printf_flags_ss.o(.text) refers to _printf_percent.o(.ARM.Collect$$_printf_percent$$00000000) for _printf_percent
    __printf_flags_ss.o(.text) refers to __printf_flags_ss.o(.constdata) for .constdata
    __printf_wp.o(.text) refers to __printf_wp.o(i._is_digit) for _is_digit
    __printf_wp.o(.text) refers to _printf_percent.o(.ARM.Collect$$_printf_percent$$00000000) for _printf_percent
    __printf_flags_wp.o(.text) refers to __printf_wp.o(i._is_digit) for _is_digit
    __printf_flags_wp.o(.text) refers to _printf_percent.o(.ARM.Collect$$_printf_percent$$00000000) for _printf_percent
    __printf_flags_wp.o(.text) refers to __printf_flags_wp.o(.constdata) for .constdata
    __printf_ss_wp.o(.text) refers to __printf_wp.o(i._is_digit) for _is_digit
    __printf_ss_wp.o(.text) refers to _printf_percent.o(.ARM.Collect$$_printf_percent$$00000000) for _printf_percent
    __printf_flags_ss_wp.o(.text) refers to __printf_wp.o(i._is_digit) for _is_digit
    __printf_flags_ss_wp.o(.text) refers to _printf_percent.o(.ARM.Collect$$_printf_percent$$00000000) for _printf_percent
    __printf_flags_ss_wp.o(.text) refers to __printf_flags_ss_wp.o(.constdata) for .constdata
    _printf_s.o(.ARM.Collect$$_printf_percent$$00000014) refers (Weak) to _printf_char.o(.text) for _printf_string
    _printf_x.o(.ARM.Collect$$_printf_percent$$0000000C) refers (Weak) to _printf_hex_int_ll_ptr.o(.text) for _printf_int_hex
    _printf_d.o(.ARM.Collect$$_printf_percent$$00000009) refers (Weak) to _printf_dec.o(.text) for _printf_int_dec
    _printf_f.o(.ARM.Collect$$_printf_percent$$00000003) refers (Weak) to printf1.o(x$fpl$printf1) for _printf_fp_dec
    _printf_percent.o(.ARM.Collect$$_printf_percent$$00000000) refers (Special) to _printf_percent_end.o(.ARM.Collect$$_printf_percent$$00000017) for _printf_percent_end
    atoi.o(.text) refers to rt_errno_addr_intlibspace.o(.text) for __aeabi_errno_addr
    atoi.o(.text) refers to strtol.o(.text) for strtol
    strtok.o(.text) refers to strtok_int.o(.text) for __strtok_internal
    strtok.o(.text) refers to strtok.o(.data) for .data
    rt_memcpy_v6.o(.text) refers to rt_memcpy_w.o(.text) for __aeabi_memcpy4
    aeabi_memset.o(.text) refers to rt_memclr.o(.text) for _memset
    rt_memclr.o(.text) refers to rt_memclr_w.o(.text) for _memset_w
    __main.o(!!!main) refers to __rtentry.o(.ARM.Collect$$rtentry$$00000000) for __rt_entry
    daddsub_clz.o(x$fpl$dadd) refers (Special) to usenofp.o(x$fpl$usenofp) for __I$use$fp
    daddsub_clz.o(x$fpl$dadd) refers to daddsub_clz.o(x$fpl$dsub) for _dsub1
    daddsub_clz.o(x$fpl$dadd) refers to dretinf.o(x$fpl$dretinf) for __fpl_dretinf
    daddsub_clz.o(x$fpl$dadd) refers to dnaninf.o(x$fpl$dnaninf) for __fpl_dnaninf
    daddsub_clz.o(x$fpl$drsb) refers (Special) to usenofp.o(x$fpl$usenofp) for __I$use$fp
    daddsub_clz.o(x$fpl$drsb) refers to daddsub_clz.o(x$fpl$dadd) for _dadd1
    daddsub_clz.o(x$fpl$drsb) refers to daddsub_clz.o(x$fpl$dsub) for _dsub1
    daddsub_clz.o(x$fpl$dsub) refers (Special) to usenofp.o(x$fpl$usenofp) for __I$use$fp
    daddsub_clz.o(x$fpl$dsub) refers to daddsub_clz.o(x$fpl$dadd) for _dadd1
    daddsub_clz.o(x$fpl$dsub) refers to dnaninf.o(x$fpl$dnaninf) for __fpl_dnaninf
    ddiv.o(x$fpl$drdiv) refers (Special) to usenofp.o(x$fpl$usenofp) for __I$use$fp
    ddiv.o(x$fpl$drdiv) refers to ddiv.o(x$fpl$ddiv) for ddiv_entry
    ddiv.o(x$fpl$ddiv) refers (Special) to usenofp.o(x$fpl$usenofp) for __I$use$fp
    ddiv.o(x$fpl$ddiv) refers to dretinf.o(x$fpl$dretinf) for __fpl_dretinf
    ddiv.o(x$fpl$ddiv) refers to dnaninf.o(x$fpl$dnaninf) for __fpl_dnaninf
    dfixu.o(x$fpl$dfixu) refers (Special) to usenofp.o(x$fpl$usenofp) for __I$use$fp
    dfixu.o(x$fpl$dfixu) refers to dnaninf.o(x$fpl$dnaninf) for __fpl_dnaninf
    dfixu.o(x$fpl$dfixur) refers (Special) to usenofp.o(x$fpl$usenofp) for __I$use$fp
    dfixu.o(x$fpl$dfixur) refers to dnaninf.o(x$fpl$dnaninf) for __fpl_dnaninf
    dflt_clz.o(x$fpl$dfltu) refers (Special) to usenofp.o(x$fpl$usenofp) for __I$use$fp
    dflt_clz.o(x$fpl$dflt) refers (Special) to usenofp.o(x$fpl$usenofp) for __I$use$fp
    dflt_clz.o(x$fpl$dfltn) refers (Special) to usenofp.o(x$fpl$usenofp) for __I$use$fp
    dfltll_clz.o(x$fpl$dfltll) refers (Special) to usenofp.o(x$fpl$usenofp) for __I$use$fp
    dfltll_clz.o(x$fpl$dfltull) refers (Special) to usenofp.o(x$fpl$usenofp) for __I$use$fp
    dmul.o(x$fpl$dmul) refers (Special) to usenofp.o(x$fpl$usenofp) for __I$use$fp
    dmul.o(x$fpl$dmul) refers to dretinf.o(x$fpl$dretinf) for __fpl_dretinf
    dmul.o(x$fpl$dmul) refers to dnaninf.o(x$fpl$dnaninf) for __fpl_dnaninf
    f2d.o(x$fpl$f2d) refers (Special) to usenofp.o(x$fpl$usenofp) for __I$use$fp
    f2d.o(x$fpl$f2d) refers to fnaninf.o(x$fpl$fnaninf) for __fpl_fnaninf
    f2d.o(x$fpl$f2d) refers to dretinf.o(x$fpl$dretinf) for __fpl_dretinf
    fdiv.o(x$fpl$frdiv) refers (Special) to usenofp.o(x$fpl$usenofp) for __I$use$fp
    fdiv.o(x$fpl$frdiv) refers to fdiv.o(x$fpl$fdiv) for _fdiv1
    fdiv.o(x$fpl$fdiv) refers (Special) to usenofp.o(x$fpl$usenofp) for __I$use$fp
    fdiv.o(x$fpl$fdiv) refers to fretinf.o(x$fpl$fretinf) for __fpl_fretinf
    fdiv.o(x$fpl$fdiv) refers to fnaninf.o(x$fpl$fnaninf) for __fpl_fnaninf
    fflt_clz.o(x$fpl$ffltu) refers (Special) to usenofp.o(x$fpl$usenofp) for __I$use$fp
    fflt_clz.o(x$fpl$fflt) refers (Special) to usenofp.o(x$fpl$usenofp) for __I$use$fp
    fflt_clz.o(x$fpl$ffltn) refers (Special) to usenofp.o(x$fpl$usenofp) for __I$use$fp
    fmul.o(x$fpl$fmul) refers (Special) to usenofp.o(x$fpl$usenofp) for __I$use$fp
    fmul.o(x$fpl$fmul) refers to fretinf.o(x$fpl$fretinf) for __fpl_fretinf
    fmul.o(x$fpl$fmul) refers to fnaninf.o(x$fpl$fnaninf) for __fpl_fnaninf
    printf1.o(x$fpl$printf1) refers to _printf_fp_dec.o(.text) for _printf_fp_dec_real
    __rtentry.o(.ARM.Collect$$rtentry$$00000000) refers (Special) to __rtentry2.o(.ARM.Collect$$rtentry$$0000000A) for __rt_entry_li
    __rtentry.o(.ARM.Collect$$rtentry$$00000000) refers (Special) to __rtentry2.o(.ARM.Collect$$rtentry$$0000000D) for __rt_entry_main
    __rtentry.o(.ARM.Collect$$rtentry$$00000000) refers (Special) to __rtentry2.o(.ARM.Collect$$rtentry$$0000000C) for __rt_entry_postli_1
    __rtentry.o(.ARM.Collect$$rtentry$$00000000) refers (Special) to __rtentry2.o(.ARM.Collect$$rtentry$$00000009) for __rt_entry_postsh_1
    __rtentry.o(.ARM.Collect$$rtentry$$00000000) refers (Special) to __rtentry2.o(.ARM.Collect$$rtentry$$00000002) for __rt_entry_presh_1
    __rtentry.o(.ARM.Collect$$rtentry$$00000000) refers (Special) to __rtentry4.o(.ARM.Collect$$rtentry$$00000004) for __rt_entry_sh
    rt_heap_descriptor.o(.text) refers to rt_heap_descriptor.o(.bss) for __rt_heap_descriptor_data
    rt_heap_descriptor_intlibspace.o(.text) refers to libspace.o(.bss) for __libspace_start
    rt_errno_addr.o(.text) refers to rt_errno_addr.o(.bss) for __aeabi_errno_addr_data
    rt_errno_addr_intlibspace.o(.text) refers to libspace.o(.bss) for __libspace_start
    init_alloc.o(.text) refers (Special) to hguard.o(.text) for __heap$guard
    init_alloc.o(.text) refers (Special) to libinit2.o(.ARM.Collect$$libinit$$00000005) for __rt_lib_init_heap_2
    init_alloc.o(.text) refers (Special) to maybetermalloc1.o(.emb_text) for _maybe_terminate_alloc
    init_alloc.o(.text) refers to h1_extend.o(.text) for __Heap_ProvideMemory
    init_alloc.o(.text) refers to defsig_rtmem_outer.o(.text) for __rt_SIGRTMEM
    init_alloc.o(.text) refers to rt_heap_descriptor_intlibspace.o(.text) for __rt_heap_descriptor
    init_alloc.o(.text) refers to h1_init.o(.text) for __Heap_Initialize
    free.o(.text) refers (Special) to hguard.o(.text) for __heap$guard
    free.o(.text) refers to rt_heap_descriptor_intlibspace.o(.text) for __rt_heap_descriptor
    free.o(.text) refers to heapstubs.o(.text) for __Heap_Free
    h1_free.o(.text) refers to rt_heap_descriptor_intlibspace.o(.text) for __rt_heap_descriptor
    h1_init_mt.o(.text) refers to mutex_dummy.o(.text) for _mutex_initialize
    h1_free_mt.o(.text) refers to rt_heap_descriptor_intlibspace.o(.text) for __rt_heap_descriptor
    _printf_intcommon.o(.text) refers (Weak) to _printf_pad.o(.text) for _printf_pre_padding
    _printf_intcommon.o(.text) refers (Weak) to _printf_pad.o(.text) for _printf_pre_padding
    _printf_intcommon.o(.text) refers (Weak) to _printf_pad.o(.text) for _printf_post_padding
    _printf_fp_dec.o(.text) refers (Special) to usenofp.o(x$fpl$usenofp) for __I$use$fp
    _printf_fp_dec.o(.text) refers (Special) to lc_numeric_c.o(locale$$code) for _get_lc_numeric
    _printf_fp_dec.o(.text) refers to bigflt0.o(.text) for _btod_etento
    _printf_fp_dec.o(.text) refers to btod.o(CL$$btod_d2e) for _btod_d2e
    _printf_fp_dec.o(.text) refers to btod.o(CL$$btod_ediv) for _btod_ediv
    _printf_fp_dec.o(.text) refers to btod.o(CL$$btod_emul) for _btod_emul
    _printf_fp_dec.o(.text) refers to lludiv10.o(.text) for _ll_udiv10
    _printf_fp_dec.o(.text) refers to fpclassify.o(i.__ARM_fpclassify) for __ARM_fpclassify
    _printf_fp_dec.o(.text) refers to _printf_fp_infnan.o(.text) for _printf_fp_infnan
    _printf_fp_dec.o(.text) refers (Weak) to _printf_pad.o(.text) for _printf_pre_padding
    _printf_fp_dec.o(.text) refers (Weak) to _printf_pad.o(.text) for _printf_pre_padding
    _printf_fp_dec.o(.text) refers to rt_locale_intlibspace.o(.text) for __rt_locale
    _printf_fp_dec.o(.text) refers (Weak) to _printf_pad.o(.text) for _printf_post_padding
    _printf_char_common.o(.text) refers to __printf_flags_ss_wp.o(.text) for __printf
    _printf_char.o(.text) refers (Weak) to _printf_str.o(.text) for _printf_str
    _printf_wctomb.o(.text) refers (Special) to _printf_wchar.o(.text) for _printf_lcs_common
    _printf_wctomb.o(.text) refers to _wcrtomb.o(.text) for _wcrtomb
    _printf_wctomb.o(.text) refers (Weak) to _printf_pad.o(.text) for _printf_pre_padding
    _printf_wctomb.o(.text) refers (Weak) to _printf_pad.o(.text) for _printf_post_padding
    _printf_wctomb.o(.text) refers to _printf_wctomb.o(.constdata) for .constdata
    _printf_wctomb.o(.constdata) refers (Special) to _printf_wchar.o(.text) for _printf_lcs_common
    _printf_longlong_dec.o(.text) refers to lludiv10.o(.text) for _ll_udiv10
    _printf_longlong_dec.o(.text) refers to _printf_intcommon.o(.text) for _printf_int_common
    _printf_oct_ll.o(.text) refers to _printf_intcommon.o(.text) for _printf_int_common
    _printf_oct_int.o(.text) refers (Weak) to _printf_truncate.o(.text) for _printf_truncate_unsigned
    _printf_oct_int.o(.text) refers to _printf_intcommon.o(.text) for _printf_int_common
    _printf_oct_int_ll.o(.text) refers to _printf_intcommon.o(.text) for _printf_int_common
    _printf_oct_int_ll.o(.text) refers (Weak) to _printf_truncate.o(.text) for _printf_truncate_unsigned
    _printf_c.o(.ARM.Collect$$_printf_percent$$00000013) refers (Weak) to _printf_char.o(.text) for _printf_char
    _printf_n.o(.ARM.Collect$$_printf_percent$$00000001) refers (Weak) to _printf_charcount.o(.text) for _printf_charcount
    _printf_p.o(.ARM.Collect$$_printf_percent$$00000002) refers (Weak) to _printf_hex_int_ll_ptr.o(.text) for _printf_hex_ptr
    _printf_o.o(.ARM.Collect$$_printf_percent$$0000000B) refers (Weak) to _printf_oct_int_ll.o(.text) for _printf_int_oct
    _printf_i.o(.ARM.Collect$$_printf_percent$$00000008) refers (Weak) to _printf_dec.o(.text) for _printf_int_dec
    _printf_u.o(.ARM.Collect$$_printf_percent$$0000000A) refers (Weak) to _printf_dec.o(.text) for _printf_int_dec
    _printf_e.o(.ARM.Collect$$_printf_percent$$00000004) refers (Weak) to printf1.o(x$fpl$printf1) for _printf_fp_dec
    _printf_g.o(.ARM.Collect$$_printf_percent$$00000005) refers (Weak) to printf1.o(x$fpl$printf1) for _printf_fp_dec
    _printf_lli.o(.ARM.Collect$$_printf_percent$$0000000D) refers (Special) to _printf_ll.o(.ARM.Collect$$_printf_percent$$00000007) for _printf_ll
    _printf_lli.o(.ARM.Collect$$_printf_percent$$0000000D) refers (Weak) to _printf_longlong_dec.o(.text) for _printf_longlong_dec
    _printf_lld.o(.ARM.Collect$$_printf_percent$$0000000E) refers (Special) to _printf_ll.o(.ARM.Collect$$_printf_percent$$00000007) for _printf_ll
    _printf_lld.o(.ARM.Collect$$_printf_percent$$0000000E) refers (Weak) to _printf_longlong_dec.o(.text) for _printf_longlong_dec
    _printf_llu.o(.ARM.Collect$$_printf_percent$$0000000F) refers (Special) to _printf_ll.o(.ARM.Collect$$_printf_percent$$00000007) for _printf_ll
    _printf_llu.o(.ARM.Collect$$_printf_percent$$0000000F) refers (Weak) to _printf_longlong_dec.o(.text) for _printf_longlong_dec
    _printf_lc.o(.ARM.Collect$$_printf_percent$$00000015) refers (Special) to _printf_l.o(.ARM.Collect$$_printf_percent$$00000012) for _printf_l
    _printf_lc.o(.ARM.Collect$$_printf_percent$$00000015) refers (Weak) to _printf_wchar.o(.text) for _printf_wchar
    _printf_ls.o(.ARM.Collect$$_printf_percent$$00000016) refers (Special) to _printf_l.o(.ARM.Collect$$_printf_percent$$00000012) for _printf_l
    _printf_ls.o(.ARM.Collect$$_printf_percent$$00000016) refers (Weak) to _printf_wchar.o(.text) for _printf_wstring
    _printf_llo.o(.ARM.Collect$$_printf_percent$$00000010) refers (Special) to _printf_ll.o(.ARM.Collect$$_printf_percent$$00000007) for _printf_ll
    _printf_llo.o(.ARM.Collect$$_printf_percent$$00000010) refers (Weak) to _printf_oct_int_ll.o(.text) for _printf_ll_oct
    _printf_llx.o(.ARM.Collect$$_printf_percent$$00000011) refers (Special) to _printf_ll.o(.ARM.Collect$$_printf_percent$$00000007) for _printf_ll
    _printf_llx.o(.ARM.Collect$$_printf_percent$$00000011) refers (Weak) to _printf_hex_int_ll_ptr.o(.text) for _printf_ll_hex
    strtol.o(.text) refers to rt_ctype_table.o(.text) for __rt_ctype_table
    strtol.o(.text) refers to _strtoul.o(.text) for _strtoul
    strtol.o(.text) refers to rt_errno_addr_intlibspace.o(.text) for __aeabi_errno_addr
    strtok_int.o(.text) refers to strspn.o(.text) for strspn
    strtok_int.o(.text) refers to strcspn.o(.text) for strcspn
    _get_argv.o(.text) refers (Special) to hrguard.o(.text) for __heap_region$guard
    _get_argv.o(.text) refers to h1_alloc.o(.text) for malloc
    _get_argv.o(.text) refers to defsig_rtmem_outer.o(.text) for __rt_SIGRTMEM
    _get_argv.o(.text) refers to sys_command.o(.text) for _sys_command_string
    libinit2.o(.ARM.Collect$$libinit$$00000005) refers (Weak) to init_alloc.o(.text) for _init_alloc
    libinit2.o(.ARM.Collect$$libinit$$0000000F) refers (Weak) to rt_locale_intlibspace.o(.text) for __rt_locale
    libinit2.o(.ARM.Collect$$libinit$$00000010) refers to libinit2.o(.ARM.Collect$$libinit$$0000000F) for .ARM.Collect$$libinit$$0000000F
    libinit2.o(.ARM.Collect$$libinit$$00000012) refers to libinit2.o(.ARM.Collect$$libinit$$0000000F) for .ARM.Collect$$libinit$$0000000F
    libinit2.o(.ARM.Collect$$libinit$$00000012) refers (Weak) to lc_ctype_c.o(locale$$code) for _get_lc_ctype
    libinit2.o(.ARM.Collect$$libinit$$00000014) refers to libinit2.o(.ARM.Collect$$libinit$$0000000F) for .ARM.Collect$$libinit$$0000000F
    libinit2.o(.ARM.Collect$$libinit$$00000016) refers to libinit2.o(.ARM.Collect$$libinit$$0000000F) for .ARM.Collect$$libinit$$0000000F
    libinit2.o(.ARM.Collect$$libinit$$00000016) refers (Weak) to lc_numeric_c.o(locale$$code) for _get_lc_numeric
    libinit2.o(.ARM.Collect$$libinit$$00000018) refers to libinit2.o(.ARM.Collect$$libinit$$0000000F) for .ARM.Collect$$libinit$$0000000F
    libinit2.o(.ARM.Collect$$libinit$$00000026) refers to argv_veneer.o(.emb_text) for __ARM_argv_veneer
    libinit2.o(.ARM.Collect$$libinit$$00000027) refers to argv_veneer.o(.emb_text) for __ARM_argv_veneer
    dnaninf.o(x$fpl$dnaninf) refers (Special) to usenofp.o(x$fpl$usenofp) for __I$use$fp
    dretinf.o(x$fpl$dretinf) refers (Special) to usenofp.o(x$fpl$usenofp) for __I$use$fp
    fnaninf.o(x$fpl$fnaninf) refers (Special) to usenofp.o(x$fpl$usenofp) for __I$use$fp
    fretinf.o(x$fpl$fretinf) refers (Special) to usenofp.o(x$fpl$usenofp) for __I$use$fp
    sys_command.o(.text) refers (Special) to use_no_semi.o(.text) for __I$use$semihosting
    sys_command.o(.text) refers (Special) to indicate_semi.o(.text) for __semihosting_library_function
    libspace.o(.text) refers to libspace.o(.bss) for __libspace_start
    __rtentry2.o(.ARM.Collect$$rtentry$$00000008) refers to boardinit2.o(.text) for _platform_post_stackheap_init
    __rtentry2.o(.ARM.Collect$$rtentry$$0000000A) refers to libinit.o(.ARM.Collect$$libinit$$00000000) for __rt_lib_init
    __rtentry2.o(.ARM.Collect$$rtentry$$0000000B) refers to boardinit3.o(.text) for _platform_post_lib_init
    __rtentry2.o(.ARM.Collect$$rtentry$$0000000D) refers to main.o(.text) for main
    __rtentry2.o(.ARM.Collect$$rtentry$$0000000D) refers to exit.o(.text) for exit
    __rtentry2.o(.ARM.exidx) refers to __rtentry2.o(.ARM.Collect$$rtentry$$00000001) for .ARM.Collect$$rtentry$$00000001
    __rtentry2.o(.ARM.exidx) refers to __rtentry2.o(.ARM.Collect$$rtentry$$00000008) for .ARM.Collect$$rtentry$$00000008
    __rtentry2.o(.ARM.exidx) refers to __rtentry2.o(.ARM.Collect$$rtentry$$0000000A) for .ARM.Collect$$rtentry$$0000000A
    __rtentry2.o(.ARM.exidx) refers to __rtentry2.o(.ARM.Collect$$rtentry$$0000000B) for .ARM.Collect$$rtentry$$0000000B
    __rtentry2.o(.ARM.exidx) refers to __rtentry2.o(.ARM.Collect$$rtentry$$0000000D) for .ARM.Collect$$rtentry$$0000000D
    __rtentry4.o(.ARM.Collect$$rtentry$$00000004) refers to sys_stackheap_outer.o(.text) for __user_setup_stackheap
    __rtentry4.o(.ARM.exidx) refers to __rtentry4.o(.ARM.Collect$$rtentry$$00000004) for .ARM.Collect$$rtentry$$00000004
    rt_ctype_table.o(.text) refers to rt_locale_intlibspace.o(.text) for __rt_locale
    rt_ctype_table.o(.text) refers to lc_ctype_c.o(locale$$code) for _get_lc_ctype
    rt_locale.o(.text) refers to rt_locale.o(.bss) for __rt_locale_data
    rt_locale_intlibspace.o(.text) refers to libspace.o(.bss) for __libspace_start
    maybetermalloc2.o(.emb_text) refers (Special) to term_alloc.o(.text) for _terminate_alloc
    h1_extend.o(.text) refers to h1_free.o(.text) for free
    h1_extend_mt.o(.text) refers to h1_free_mt.o(.text) for _free_internal
    _printf_fp_infnan.o(.text) refers (Weak) to _printf_pad.o(.text) for _printf_pre_padding
    _printf_fp_infnan.o(.text) refers (Weak) to _printf_pad.o(.text) for _printf_post_padding
    _printf_wchar.o(.text) refers (Weak) to _printf_wctomb.o(.text) for _printf_wctomb
    _strtoul.o(.text) refers to _chval.o(.text) for _chval
    _strtoul.o(.text) refers to rt_errno_addr_intlibspace.o(.text) for __aeabi_errno_addr
    bigflt0.o(.text) refers (Special) to usenofp.o(x$fpl$usenofp) for __I$use$fp
    bigflt0.o(.text) refers to btod.o(CL$$btod_emul) for _btod_emul
    bigflt0.o(.text) refers to btod.o(CL$$btod_ediv) for _btod_ediv
    bigflt0.o(.text) refers to bigflt0.o(.constdata) for .constdata
    bigflt0.o(.constdata) refers (Special) to usenofp.o(x$fpl$usenofp) for __I$use$fp
    btod.o(CL$$btod_d2e) refers (Special) to usenofp.o(x$fpl$usenofp) for __I$use$fp
    btod.o(CL$$btod_d2e) refers to btod.o(CL$$btod_d2e_norm_op1) for _d2e_norm_op1
    btod.o(CL$$btod_d2e_norm_op1) refers (Special) to usenofp.o(x$fpl$usenofp) for __I$use$fp
    btod.o(CL$$btod_d2e_norm_op1) refers to btod.o(CL$$btod_d2e_denorm_low) for _d2e_denorm_low
    btod.o(CL$$btod_d2e_denorm_low) refers (Special) to usenofp.o(x$fpl$usenofp) for __I$use$fp
    btod.o(CL$$btod_emul) refers (Special) to usenofp.o(x$fpl$usenofp) for __I$use$fp
    btod.o(CL$$btod_emul) refers to btod.o(CL$$btod_mult_common) for __btod_mult_common
    btod.o(CL$$btod_emul) refers to btod.o(CL$$btod_e2e) for _e2e
    btod.o(CL$$btod_ediv) refers (Special) to usenofp.o(x$fpl$usenofp) for __I$use$fp
    btod.o(CL$$btod_ediv) refers to btod.o(CL$$btod_div_common) for __btod_div_common
    btod.o(CL$$btod_ediv) refers to btod.o(CL$$btod_e2e) for _e2e
    btod.o(CL$$btod_emuld) refers (Special) to usenofp.o(x$fpl$usenofp) for __I$use$fp
    btod.o(CL$$btod_emuld) refers to btod.o(CL$$btod_mult_common) for __btod_mult_common
    btod.o(CL$$btod_emuld) refers to btod.o(CL$$btod_e2d) for _e2d
    btod.o(CL$$btod_edivd) refers (Special) to usenofp.o(x$fpl$usenofp) for __I$use$fp
    btod.o(CL$$btod_edivd) refers to btod.o(CL$$btod_div_common) for __btod_div_common
    btod.o(CL$$btod_edivd) refers to btod.o(CL$$btod_e2d) for _e2d
    btod.o(CL$$btod_e2e) refers (Special) to usenofp.o(x$fpl$usenofp) for __I$use$fp
    btod.o(CL$$btod_e2d) refers (Special) to usenofp.o(x$fpl$usenofp) for __I$use$fp
    btod.o(CL$$btod_e2d) refers to btod.o(CL$$btod_e2e) for _e2e
    btod.o(CL$$btod_mult_common) refers (Special) to usenofp.o(x$fpl$usenofp) for __I$use$fp
    btod.o(CL$$btod_div_common) refers (Special) to usenofp.o(x$fpl$usenofp) for __I$use$fp
    _wcrtomb.o(.text) refers to rt_ctype_table.o(.text) for __rt_ctype_table
    lc_numeric_c.o(locale$$data) refers (Special) to libinit2.o(.ARM.Collect$$libinit$$00000016) for __rt_lib_init_lc_numeric_2
    lc_numeric_c.o(locale$$code) refers (Special) to libinit2.o(.ARM.Collect$$libinit$$00000016) for __rt_lib_init_lc_numeric_2
    lc_numeric_c.o(locale$$code) refers to strcmpv7m.o(.text) for strcmp
    lc_numeric_c.o(locale$$code) refers to lc_numeric_c.o(locale$$data) for __lcnum_c_name
    defsig_rtmem_outer.o(.text) refers to defsig_rtmem_inner.o(.text) for __rt_SIGRTMEM_inner
    defsig_rtmem_outer.o(.text) refers to defsig_exit.o(.text) for __sig_exit
    defsig_rtmem_formal.o(.text) refers to rt_raise.o(.text) for __rt_raise
    heapauxa.o(.text) refers to heapauxa.o(.data) for .data
    argv_veneer.o(.emb_text) refers to no_argv.o(.text) for __ARM_get_argv
    istatus.o(x$fpl$ieeestatus) refers (Special) to usenofp.o(x$fpl$usenofp) for __I$use$fp
    fpclassify.o(i.__ARM_fpclassify) refers (Special) to usenofp.o(x$fpl$usenofp) for __I$use$fp
    sys_stackheap_outer.o(.text) refers to libspace.o(.text) for __user_perproc_libspace
    sys_stackheap_outer.o(.text) refers to startup_stm32f10x_hd.o(.text) for __user_initial_stackheap
    rt_raise.o(.text) refers to __raise.o(.text) for __raise
    rt_raise.o(.text) refers to sys_exit.o(.text) for _sys_exit
    term_alloc.o(.text) refers (Special) to libshutdown2.o(.ARM.Collect$$libshutdown$$0000000D) for __rt_lib_shutdown_heap_2
    term_alloc.o(.text) refers to rt_heap_descriptor_intlibspace.o(.text) for __rt_heap_descriptor
    term_alloc.o(.text) refers to h1_final.o(.text) for __Heap_Finalize
    lc_ctype_c.o(locale$$data) refers (Special) to libinit2.o(.ARM.Collect$$libinit$$00000012) for __rt_lib_init_lc_ctype_2
    lc_ctype_c.o(locale$$code) refers (Special) to libinit2.o(.ARM.Collect$$libinit$$00000012) for __rt_lib_init_lc_ctype_2
    lc_ctype_c.o(locale$$code) refers to strcmpv7m.o(.text) for strcmp
    lc_ctype_c.o(locale$$code) refers to lc_ctype_c.o(locale$$data) for __lcctype_c_name
    exit.o(.text) refers to rtexit.o(.ARM.Collect$$rtexit$$00000000) for __rt_exit
    defsig_exit.o(.text) refers to sys_exit.o(.text) for _sys_exit
    defsig_rtmem_inner.o(.text) refers to defsig_general.o(.text) for __default_signal_display
    _get_argv_nomalloc.o(.text) refers (Special) to hrguard.o(.text) for __heap_region$guard
    _get_argv_nomalloc.o(.text) refers to defsig_rtmem_outer.o(.text) for __rt_SIGRTMEM
    _get_argv_nomalloc.o(.text) refers to sys_command.o(.text) for _sys_command_string
    libinit.o(.ARM.Collect$$libinit$$00000000) refers (Special) to libinit2.o(.ARM.Collect$$libinit$$0000002E) for __rt_lib_init_alloca_1
    libinit.o(.ARM.Collect$$libinit$$00000000) refers (Special) to libinit2.o(.ARM.Collect$$libinit$$0000002C) for __rt_lib_init_argv_1
    libinit.o(.ARM.Collect$$libinit$$00000000) refers (Special) to libinit2.o(.ARM.Collect$$libinit$$0000001B) for __rt_lib_init_atexit_1
    libinit.o(.ARM.Collect$$libinit$$00000000) refers (Special) to libinit2.o(.ARM.Collect$$libinit$$00000021) for __rt_lib_init_clock_1
    libinit.o(.ARM.Collect$$libinit$$00000000) refers (Special) to libinit2.o(.ARM.Collect$$libinit$$00000032) for __rt_lib_init_cpp_1
    libinit.o(.ARM.Collect$$libinit$$00000000) refers (Special) to libinit2.o(.ARM.Collect$$libinit$$00000030) for __rt_lib_init_exceptions_1
    libinit.o(.ARM.Collect$$libinit$$00000000) refers (Special) to libinit2.o(.ARM.Collect$$libinit$$00000002) for __rt_lib_init_fp_1
    libinit.o(.ARM.Collect$$libinit$$00000000) refers (Special) to libinit2.o(.ARM.Collect$$libinit$$0000001F) for __rt_lib_init_fp_trap_1
    libinit.o(.ARM.Collect$$libinit$$00000000) refers (Special) to libinit2.o(.ARM.Collect$$libinit$$00000023) for __rt_lib_init_getenv_1
    libinit.o(.ARM.Collect$$libinit$$00000000) refers (Special) to libinit2.o(.ARM.Collect$$libinit$$0000000A) for __rt_lib_init_heap_1
    libinit.o(.ARM.Collect$$libinit$$00000000) refers (Special) to libinit2.o(.ARM.Collect$$libinit$$00000011) for __rt_lib_init_lc_collate_1
    libinit.o(.ARM.Collect$$libinit$$00000000) refers (Special) to libinit2.o(.ARM.Collect$$libinit$$00000013) for __rt_lib_init_lc_ctype_1
    libinit.o(.ARM.Collect$$libinit$$00000000) refers (Special) to libinit2.o(.ARM.Collect$$libinit$$00000015) for __rt_lib_init_lc_monetary_1
    libinit.o(.ARM.Collect$$libinit$$00000000) refers (Special) to libinit2.o(.ARM.Collect$$libinit$$00000017) for __rt_lib_init_lc_numeric_1
    libinit.o(.ARM.Collect$$libinit$$00000000) refers (Special) to libinit2.o(.ARM.Collect$$libinit$$00000019) for __rt_lib_init_lc_time_1
    libinit.o(.ARM.Collect$$libinit$$00000000) refers (Special) to libinit2.o(.ARM.Collect$$libinit$$00000004) for __rt_lib_init_preinit_1
    libinit.o(.ARM.Collect$$libinit$$00000000) refers (Special) to libinit2.o(.ARM.Collect$$libinit$$0000000E) for __rt_lib_init_rand_1
    libinit.o(.ARM.Collect$$libinit$$00000000) refers (Special) to libinit2.o(.ARM.Collect$$libinit$$00000033) for __rt_lib_init_return
    libinit.o(.ARM.Collect$$libinit$$00000000) refers (Special) to libinit2.o(.ARM.Collect$$libinit$$0000001D) for __rt_lib_init_signal_1
    libinit.o(.ARM.Collect$$libinit$$00000000) refers (Special) to libinit2.o(.ARM.Collect$$libinit$$00000025) for __rt_lib_init_stdio_1
    libinit.o(.ARM.Collect$$libinit$$00000000) refers (Special) to libinit2.o(.ARM.Collect$$libinit$$0000000C) for __rt_lib_init_user_alloc_1
    sys_exit.o(.text) refers (Special) to use_no_semi.o(.text) for __I$use$semihosting
    sys_exit.o(.text) refers (Special) to indicate_semi.o(.text) for __semihosting_library_function
    rtexit.o(.ARM.Collect$$rtexit$$00000000) refers (Special) to rtexit2.o(.ARM.Collect$$rtexit$$00000004) for __rt_exit_exit
    rtexit.o(.ARM.Collect$$rtexit$$00000000) refers (Special) to rtexit2.o(.ARM.Collect$$rtexit$$00000003) for __rt_exit_ls
    rtexit.o(.ARM.Collect$$rtexit$$00000000) refers (Special) to rtexit2.o(.ARM.Collect$$rtexit$$00000002) for __rt_exit_prels_1
    rtexit.o(.ARM.exidx) refers (Special) to rtexit2.o(.ARM.Collect$$rtexit$$00000004) for __rt_exit_exit
    rtexit.o(.ARM.exidx) refers (Special) to rtexit2.o(.ARM.Collect$$rtexit$$00000003) for __rt_exit_ls
    rtexit.o(.ARM.exidx) refers (Special) to rtexit2.o(.ARM.Collect$$rtexit$$00000002) for __rt_exit_prels_1
    rtexit.o(.ARM.exidx) refers to rtexit.o(.ARM.Collect$$rtexit$$00000000) for .ARM.Collect$$rtexit$$00000000
    __raise.o(.text) refers to defsig.o(CL$$defsig) for __default_signal_handler
    defsig_general.o(.text) refers to sys_wrch.o(.text) for _ttywrch
    libshutdown2.o(.ARM.Collect$$libshutdown$$0000000C) refers (Weak) to term_alloc.o(.text) for _terminate_alloc
    sys_wrch.o(.text) refers (Special) to use_no_semi.o(.text) for __I$use$semihosting
    sys_wrch.o(.text) refers (Special) to indicate_semi.o(.text) for __semihosting_library_function
    rtexit2.o(.ARM.Collect$$rtexit$$00000003) refers to libshutdown.o(.ARM.Collect$$libshutdown$$00000000) for __rt_lib_shutdown
    rtexit2.o(.ARM.Collect$$rtexit$$00000004) refers to sys_exit.o(.text) for _sys_exit
    rtexit2.o(.ARM.exidx) refers to rtexit2.o(.ARM.Collect$$rtexit$$00000001) for .ARM.Collect$$rtexit$$00000001
    rtexit2.o(.ARM.exidx) refers to rtexit2.o(.ARM.Collect$$rtexit$$00000003) for .ARM.Collect$$rtexit$$00000003
    rtexit2.o(.ARM.exidx) refers to rtexit2.o(.ARM.Collect$$rtexit$$00000004) for .ARM.Collect$$rtexit$$00000004
    defsig.o(CL$$defsig) refers to defsig_rtmem_inner.o(.text) for __rt_SIGRTMEM_inner
    defsig_abrt_inner.o(.text) refers to defsig_general.o(.text) for __default_signal_display
    defsig_fpe_inner.o(.text) refers to defsig_general.o(.text) for __default_signal_display
    defsig_rtred_inner.o(.text) refers to defsig_general.o(.text) for __default_signal_display
    defsig_stak_inner.o(.text) refers to defsig_general.o(.text) for __default_signal_display
    defsig_pvfn_inner.o(.text) refers to defsig_general.o(.text) for __default_signal_display
    defsig_cppl_inner.o(.text) refers to defsig_general.o(.text) for __default_signal_display
    defsig_segv_inner.o(.text) refers to defsig_general.o(.text) for __default_signal_display
    defsig_other.o(.text) refers to defsig_general.o(.text) for __default_signal_display
    libshutdown.o(.ARM.Collect$$libshutdown$$00000000) refers (Special) to libshutdown2.o(.ARM.Collect$$libshutdown$$00000006) for __rt_lib_shutdown_fp_trap_1
    libshutdown.o(.ARM.Collect$$libshutdown$$00000000) refers (Special) to libshutdown2.o(.ARM.Collect$$libshutdown$$0000000E) for __rt_lib_shutdown_heap_1
    libshutdown.o(.ARM.Collect$$libshutdown$$00000000) refers (Special) to libshutdown2.o(.ARM.Collect$$libshutdown$$0000000F) for __rt_lib_shutdown_return
    libshutdown.o(.ARM.Collect$$libshutdown$$00000000) refers (Special) to libshutdown2.o(.ARM.Collect$$libshutdown$$00000009) for __rt_lib_shutdown_signal_1
    libshutdown.o(.ARM.Collect$$libshutdown$$00000000) refers (Special) to libshutdown2.o(.ARM.Collect$$libshutdown$$00000003) for __rt_lib_shutdown_stdio_1
    libshutdown.o(.ARM.Collect$$libshutdown$$00000000) refers (Special) to libshutdown2.o(.ARM.Collect$$libshutdown$$0000000B) for __rt_lib_shutdown_user_alloc_1


==============================================================================

Removing Unused input sections from the image.

    Removing app_led.o(.data), (4 bytes).
    Removing app_plt.o(.data), (2 bytes).
    Removing app_usrcmd.o(.bss), (100 bytes).
    Removing app_usrcmd.o(.data), (1 bytes).
    Removing app_usrcmd.o(.data), (2 bytes).
    Removing app_usrcmd.o(.data), (1 bytes).
    Removing app_multfun.o(.data), (8 bytes).
    Removing gc65.o(.bss), (52 bytes).
    Removing gc65.o(.data), (4 bytes).
    Removing gc65.o(.data), (4 bytes).
    Removing gc65.o(.data), (1 bytes).
    Removing gc65.o(.data), (4 bytes).
    Removing gc65.o(.data), (4 bytes).
    Removing gc65.o(.data), (4 bytes).
    Removing app_protocol.o(.data), (2 bytes).
    Removing spiflash.o(i.SPIFlashChipErase), (18 bytes).
    Removing spiflash.o(i.SPIFlashErase64K), (22 bytes).
    Removing spiflash.o(i.SPIFlashLibVersion), (24 bytes).
    Removing spiflashdev.o(i.FlashBlockErase_64KByte), (64 bytes).
    Removing spiflashdev.o(i.SST25V_ChipErase), (40 bytes).

20 unused section(s) (total 361 bytes) removed from the image.

==============================================================================

Image Symbol Table

    Local Symbols

    Symbol Name                              Value     Ov Type        Size  Object(Section)

    ../clib/angel/boardlib.s                 0x00000000   Number         0  boardinit2.o ABSOLUTE
    ../clib/angel/boardlib.s                 0x00000000   Number         0  boardinit1.o ABSOLUTE
    ../clib/angel/boardlib.s                 0x00000000   Number         0  boardshut.o ABSOLUTE
    ../clib/angel/boardlib.s                 0x00000000   Number         0  boardinit3.o ABSOLUTE
    ../clib/angel/dczerorl2.s                0x00000000   Number         0  __dczerorl2.o ABSOLUTE
    ../clib/angel/handlers.s                 0x00000000   Number         0  __scatter_zi.o ABSOLUTE
    ../clib/angel/kernel.s                   0x00000000   Number         0  rtexit.o ABSOLUTE
    ../clib/angel/kernel.s                   0x00000000   Number         0  __rtentry2.o ABSOLUTE
    ../clib/angel/kernel.s                   0x00000000   Number         0  __rtentry4.o ABSOLUTE
    ../clib/angel/kernel.s                   0x00000000   Number         0  __rtentry.o ABSOLUTE
    ../clib/angel/kernel.s                   0x00000000   Number         0  rtexit2.o ABSOLUTE
    ../clib/angel/rt.s                       0x00000000   Number         0  rt_locale_intlibspace.o ABSOLUTE
    ../clib/angel/rt.s                       0x00000000   Number         0  rt_errno_addr.o ABSOLUTE
    ../clib/angel/rt.s                       0x00000000   Number         0  rt_heap_descriptor_intlibspace.o ABSOLUTE
    ../clib/angel/rt.s                       0x00000000   Number         0  rt_heap_descriptor.o ABSOLUTE
    ../clib/angel/rt.s                       0x00000000   Number         0  rt_raise.o ABSOLUTE
    ../clib/angel/rt.s                       0x00000000   Number         0  rt_ctype_table.o ABSOLUTE
    ../clib/angel/rt.s                       0x00000000   Number         0  rt_locale.o ABSOLUTE
    ../clib/angel/rt.s                       0x00000000   Number         0  rt_errno_addr_intlibspace.o ABSOLUTE
    ../clib/angel/scatter.s                  0x00000000   Number         0  __scatter.o ABSOLUTE
    ../clib/angel/startup.s                  0x00000000   Number         0  __main.o ABSOLUTE
    ../clib/angel/sys.s                      0x00000000   Number         0  use_no_semi.o ABSOLUTE
    ../clib/angel/sys.s                      0x00000000   Number         0  sys_stackheap_outer.o ABSOLUTE
    ../clib/angel/sys.s                      0x00000000   Number         0  libspace.o ABSOLUTE
    ../clib/angel/sys.s                      0x00000000   Number         0  indicate_semi.o ABSOLUTE
    ../clib/angel/sys.s                      0x00000000   Number         0  mutex_dummy.o ABSOLUTE
    ../clib/angel/sysapp.c                   0x00000000   Number         0  sys_exit.o ABSOLUTE
    ../clib/angel/sysapp.c                   0x00000000   Number         0  sys_wrch.o ABSOLUTE
    ../clib/angel/sysapp.c                   0x00000000   Number         0  sys_command.o ABSOLUTE
    ../clib/armsys.c                         0x00000000   Number         0  _get_argv_nomalloc.o ABSOLUTE
    ../clib/armsys.c                         0x00000000   Number         0  no_argv.o ABSOLUTE
    ../clib/armsys.c                         0x00000000   Number         0  _get_argv.o ABSOLUTE
    ../clib/armsys.c                         0x00000000   Number         0  argv_veneer.o ABSOLUTE
    ../clib/armsys.c                         0x00000000   Number         0  argv_veneer.o ABSOLUTE
    ../clib/bigflt.c                         0x00000000   Number         0  bigflt0.o ABSOLUTE
    ../clib/btod.s                           0x00000000   Number         0  btod.o ABSOLUTE
    ../clib/heap1.c                          0x00000000   Number         0  h1_free_mt.o ABSOLUTE
    ../clib/heap1.c                          0x00000000   Number         0  h1_extend.o ABSOLUTE
    ../clib/heap1.c                          0x00000000   Number         0  h1_extend_mt.o ABSOLUTE
    ../clib/heap1.c                          0x00000000   Number         0  h1_init.o ABSOLUTE
    ../clib/heap1.c                          0x00000000   Number         0  h1_init_mt.o ABSOLUTE
    ../clib/heap1.c                          0x00000000   Number         0  h1_free.o ABSOLUTE
    ../clib/heap1.c                          0x00000000   Number         0  h1_final.o ABSOLUTE
    ../clib/heap1.c                          0x00000000   Number         0  h1_alloc_mt.o ABSOLUTE
    ../clib/heap1.c                          0x00000000   Number         0  h1_final_mt.o ABSOLUTE
    ../clib/heap1.c                          0x00000000   Number         0  h1_alloc.o ABSOLUTE
    ../clib/heap2.c                          0x00000000   Number         0  heap2mt.o ABSOLUTE
    ../clib/heap2.c                          0x00000000   Number         0  fdtree.o ABSOLUTE
    ../clib/heap2.c                          0x00000000   Number         0  heap2.o ABSOLUTE
    ../clib/heapalloc.c                      0x00000000   Number         0  free.o ABSOLUTE
    ../clib/heapalloc.c                      0x00000000   Number         0  hguard.o ABSOLUTE
    ../clib/heapalloc.c                      0x00000000   Number         0  term_alloc.o ABSOLUTE
    ../clib/heapalloc.c                      0x00000000   Number         0  maybetermalloc2.o ABSOLUTE
    ../clib/heapalloc.c                      0x00000000   Number         0  init_alloc.o ABSOLUTE
    ../clib/heapalloc.c                      0x00000000   Number         0  maybetermalloc1.o ABSOLUTE
    ../clib/heapalloc.c                      0x00000000   Number         0  maybetermalloc1.o ABSOLUTE
    ../clib/heapalloc.c                      0x00000000   Number         0  hrguard.o ABSOLUTE
    ../clib/heapalloc.c                      0x00000000   Number         0  heapstubs.o ABSOLUTE
    ../clib/heapalloc.c                      0x00000000   Number         0  malloc.o ABSOLUTE
    ../clib/heapalloc.c                      0x00000000   Number         0  maybetermalloc2.o ABSOLUTE
    ../clib/heapaux.c                        0x00000000   Number         0  heapauxa.o ABSOLUTE
    ../clib/heapaux.c                        0x00000000   Number         0  heapauxi.o ABSOLUTE
    ../clib/libinit.s                        0x00000000   Number         0  libshutdown2.o ABSOLUTE
    ../clib/libinit.s                        0x00000000   Number         0  libshutdown.o ABSOLUTE
    ../clib/libinit.s                        0x00000000   Number         0  libinit.o ABSOLUTE
    ../clib/libinit.s                        0x00000000   Number         0  libinit2.o ABSOLUTE
    ../clib/locale.c                         0x00000000   Number         0  _wcrtomb.o ABSOLUTE
    ../clib/locale.s                         0x00000000   Number         0  lc_ctype_c.o ABSOLUTE
    ../clib/locale.s                         0x00000000   Number         0  lc_numeric_c.o ABSOLUTE
    ../clib/longlong.s                       0x00000000   Number         0  lludiv10.o ABSOLUTE
    ../clib/memcpset.s                       0x00000000   Number         0  rt_memcpy_w.o ABSOLUTE
    ../clib/memcpset.s                       0x00000000   Number         0  aeabi_memset.o ABSOLUTE
    ../clib/memcpset.s                       0x00000000   Number         0  strcmpv7m.o ABSOLUTE
    ../clib/memcpset.s                       0x00000000   Number         0  rt_memclr.o ABSOLUTE
    ../clib/memcpset.s                       0x00000000   Number         0  rt_memcpy_v6.o ABSOLUTE
    ../clib/memcpset.s                       0x00000000   Number         0  rt_memclr_w.o ABSOLUTE
    ../clib/misc.s                           0x00000000   Number         0  printf_stubs.o ABSOLUTE
    ../clib/printf.c                         0x00000000   Number         0  _snputc.o ABSOLUTE
    ../clib/printf.c                         0x00000000   Number         0  __2sprintf.o ABSOLUTE
    ../clib/printf.c                         0x00000000   Number         0  _sputc.o ABSOLUTE
    ../clib/printf.c                         0x00000000   Number         0  noretval__2sprintf.o ABSOLUTE
    ../clib/printf.c                         0x00000000   Number         0  __printf.o ABSOLUTE
    ../clib/printf.c                         0x00000000   Number         0  __printf_flags_ss_wp.o ABSOLUTE
    ../clib/printf.c                         0x00000000   Number         0  __printf_ss_wp.o ABSOLUTE
    ../clib/printf.c                         0x00000000   Number         0  _printf_char_common.o ABSOLUTE
    ../clib/printf.c                         0x00000000   Number         0  __printf_flags_wp.o ABSOLUTE
    ../clib/printf.c                         0x00000000   Number         0  _printf_str.o ABSOLUTE
    ../clib/printf.c                         0x00000000   Number         0  _printf_fp_dec.o ABSOLUTE
    ../clib/printf.c                         0x00000000   Number         0  _printf_charcount.o ABSOLUTE
    ../clib/printf.c                         0x00000000   Number         0  _printf_hex_ll.o ABSOLUTE
    ../clib/printf.c                         0x00000000   Number         0  _printf_hex_int.o ABSOLUTE
    ../clib/printf.c                         0x00000000   Number         0  _printf_hex_int_ll.o ABSOLUTE
    ../clib/printf.c                         0x00000000   Number         0  _printf_hex_ptr.o ABSOLUTE
    ../clib/printf.c                         0x00000000   Number         0  _printf_hex_int_ptr.o ABSOLUTE
    ../clib/printf.c                         0x00000000   Number         0  _printf_hex_ll_ptr.o ABSOLUTE
    ../clib/printf.c                         0x00000000   Number         0  _printf_intcommon.o ABSOLUTE
    ../clib/printf.c                         0x00000000   Number         0  __printf_flags_ss.o ABSOLUTE
    ../clib/printf.c                         0x00000000   Number         0  __printf_ss.o ABSOLUTE
    ../clib/printf.c                         0x00000000   Number         0  __printf_flags.o ABSOLUTE
    ../clib/printf.c                         0x00000000   Number         0  _printf_truncate.o ABSOLUTE
    ../clib/printf.c                         0x00000000   Number         0  _printf_wchar.o ABSOLUTE
    ../clib/printf.c                         0x00000000   Number         0  _printf_dec.o ABSOLUTE
    ../clib/printf.c                         0x00000000   Number         0  __printf_nopercent.o ABSOLUTE
    ../clib/printf.c                         0x00000000   Number         0  _printf_pad.o ABSOLUTE
    ../clib/printf.c                         0x00000000   Number         0  _printf_hex_int_ll_ptr.o ABSOLUTE
    ../clib/printf.c                         0x00000000   Number         0  _printf_oct_int_ll.o ABSOLUTE
    ../clib/printf.c                         0x00000000   Number         0  _printf_oct_int.o ABSOLUTE
    ../clib/printf.c                         0x00000000   Number         0  _printf_oct_ll.o ABSOLUTE
    ../clib/printf.c                         0x00000000   Number         0  _printf_longlong_dec.o ABSOLUTE
    ../clib/printf.c                         0x00000000   Number         0  _printf_wctomb.o ABSOLUTE
    ../clib/printf.c                         0x00000000   Number         0  _printf_fp_infnan.o ABSOLUTE
    ../clib/printf.c                         0x00000000   Number         0  c89vsnprintf.o ABSOLUTE
    ../clib/printf.c                         0x00000000   Number         0  _printf_char.o ABSOLUTE
    ../clib/printf.c                         0x00000000   Number         0  __printf_wp.o ABSOLUTE
    ../clib/printf_percent.s                 0x00000000   Number         0  _printf_l.o ABSOLUTE
    ../clib/printf_percent.s                 0x00000000   Number         0  _printf_llu.o ABSOLUTE
    ../clib/printf_percent.s                 0x00000000   Number         0  _printf_lld.o ABSOLUTE
    ../clib/printf_percent.s                 0x00000000   Number         0  _printf_lli.o ABSOLUTE
    ../clib/printf_percent.s                 0x00000000   Number         0  _printf_percent_end.o ABSOLUTE
    ../clib/printf_percent.s                 0x00000000   Number         0  _printf_a.o ABSOLUTE
    ../clib/printf_percent.s                 0x00000000   Number         0  _printf_g.o ABSOLUTE
    ../clib/printf_percent.s                 0x00000000   Number         0  _printf_e.o ABSOLUTE
    ../clib/printf_percent.s                 0x00000000   Number         0  _printf_u.o ABSOLUTE
    ../clib/printf_percent.s                 0x00000000   Number         0  _printf_i.o ABSOLUTE
    ../clib/printf_percent.s                 0x00000000   Number         0  _printf_o.o ABSOLUTE
    ../clib/printf_percent.s                 0x00000000   Number         0  _printf_p.o ABSOLUTE
    ../clib/printf_percent.s                 0x00000000   Number         0  _printf_n.o ABSOLUTE
    ../clib/printf_percent.s                 0x00000000   Number         0  _printf_c.o ABSOLUTE
    ../clib/printf_percent.s                 0x00000000   Number         0  _printf_s.o ABSOLUTE
    ../clib/printf_percent.s                 0x00000000   Number         0  _printf_x.o ABSOLUTE
    ../clib/printf_percent.s                 0x00000000   Number         0  _printf_d.o ABSOLUTE
    ../clib/printf_percent.s                 0x00000000   Number         0  _printf_f.o ABSOLUTE
    ../clib/printf_percent.s                 0x00000000   Number         0  _printf_percent.o ABSOLUTE
    ../clib/printf_percent.s                 0x00000000   Number         0  _printf_ll.o ABSOLUTE
    ../clib/printf_percent.s                 0x00000000   Number         0  _printf_llx.o ABSOLUTE
    ../clib/printf_percent.s                 0x00000000   Number         0  _printf_llo.o ABSOLUTE
    ../clib/printf_percent.s                 0x00000000   Number         0  _printf_lc.o ABSOLUTE
    ../clib/printf_percent.s                 0x00000000   Number         0  _printf_ls.o ABSOLUTE
    ../clib/scanf.c                          0x00000000   Number         0  atoi.o ABSOLUTE
    ../clib/scanf.c                          0x00000000   Number         0  _strtoul.o ABSOLUTE
    ../clib/scanf.c                          0x00000000   Number         0  strtol.o ABSOLUTE
    ../clib/scanf.c                          0x00000000   Number         0  _chval.o ABSOLUTE
    ../clib/signal.c                         0x00000000   Number         0  defsig_abrt_inner.o ABSOLUTE
    ../clib/signal.c                         0x00000000   Number         0  defsig_pvfn_inner.o ABSOLUTE
    ../clib/signal.c                         0x00000000   Number         0  defsig_stak_inner.o ABSOLUTE
    ../clib/signal.c                         0x00000000   Number         0  defsig_rtred_inner.o ABSOLUTE
    ../clib/signal.c                         0x00000000   Number         0  defsig_fpe_inner.o ABSOLUTE
    ../clib/signal.c                         0x00000000   Number         0  defsig_rtmem_inner.o ABSOLUTE
    ../clib/signal.c                         0x00000000   Number         0  defsig_rtmem_outer.o ABSOLUTE
    ../clib/signal.c                         0x00000000   Number         0  defsig_rtmem_formal.o ABSOLUTE
    ../clib/signal.c                         0x00000000   Number         0  defsig_general.o ABSOLUTE
    ../clib/signal.c                         0x00000000   Number         0  __raise.o ABSOLUTE
    ../clib/signal.c                         0x00000000   Number         0  defsig_exit.o ABSOLUTE
    ../clib/signal.c                         0x00000000   Number         0  defsig_other.o ABSOLUTE
    ../clib/signal.c                         0x00000000   Number         0  defsig_segv_inner.o ABSOLUTE
    ../clib/signal.c                         0x00000000   Number         0  defsig_cppl_inner.o ABSOLUTE
    ../clib/signal.s                         0x00000000   Number         0  defsig.o ABSOLUTE
    ../clib/stdlib.c                         0x00000000   Number         0  exit.o ABSOLUTE
    ../clib/string.c                         0x00000000   Number         0  strtok.o ABSOLUTE
    ../clib/string.c                         0x00000000   Number         0  memcmp.o ABSOLUTE
    ../clib/string.c                         0x00000000   Number         0  strspn.o ABSOLUTE
    ../clib/string.c                         0x00000000   Number         0  strncmp.o ABSOLUTE
    ../clib/string.c                         0x00000000   Number         0  strtok_int.o ABSOLUTE
    ../clib/string.c                         0x00000000   Number         0  strcspn.o ABSOLUTE
    ../clib/string.c                         0x00000000   Number         0  strlen.o ABSOLUTE
    ../clib/string.c                         0x00000000   Number         0  strcpy.o ABSOLUTE
    ../fplib/daddsub.s                       0x00000000   Number         0  daddsub_clz.o ABSOLUTE
    ../fplib/ddiv.s                          0x00000000   Number         0  ddiv.o ABSOLUTE
    ../fplib/dfixu.s                         0x00000000   Number         0  dfixu.o ABSOLUTE
    ../fplib/dflt.s                          0x00000000   Number         0  dflt_clz.o ABSOLUTE
    ../fplib/dfltll.s                        0x00000000   Number         0  dfltll_clz.o ABSOLUTE
    ../fplib/dmul.s                          0x00000000   Number         0  dmul.o ABSOLUTE
    ../fplib/dnaninf.s                       0x00000000   Number         0  dnaninf.o ABSOLUTE
    ../fplib/dretinf.s                       0x00000000   Number         0  dretinf.o ABSOLUTE
    ../fplib/f2d.s                           0x00000000   Number         0  f2d.o ABSOLUTE
    ../fplib/fdiv.s                          0x00000000   Number         0  fdiv.o ABSOLUTE
    ../fplib/fflt.s                          0x00000000   Number         0  fflt_clz.o ABSOLUTE
    ../fplib/fmul.s                          0x00000000   Number         0  fmul.o ABSOLUTE
    ../fplib/fnaninf.s                       0x00000000   Number         0  fnaninf.o ABSOLUTE
    ../fplib/fpinit.s                        0x00000000   Number         0  fpinit.o ABSOLUTE
    ../fplib/fretinf.s                       0x00000000   Number         0  fretinf.o ABSOLUTE
    ../fplib/istatus.s                       0x00000000   Number         0  istatus.o ABSOLUTE
    ../fplib/printf1.s                       0x00000000   Number         0  printf1.o ABSOLUTE
    ../fplib/usenofp.s                       0x00000000   Number         0  usenofp.o ABSOLUTE
    ../mathlib/fpclassify.c                  0x00000000   Number         0  fpclassify.o ABSOLUTE
    ..\App\AppLayer\App_AlarmEvent.c         0x00000000   Number         0  app_alarmevent.o ABSOLUTE
    ..\App\AppLayer\App_Debug.c              0x00000000   Number         0  app_debug.o ABSOLUTE
    ..\App\AppLayer\App_DtuCfg.c             0x00000000   Number         0  app_dtucfg.o ABSOLUTE
    ..\App\AppLayer\App_MultFun.c            0x00000000   Number         0  app_multfun.o ABSOLUTE
    ..\App\AppLayer\App_Para.c               0x00000000   Number         0  app_para.o ABSOLUTE
    ..\App\AppLayer\App_Protocol.c           0x00000000   Number         0  app_protocol.o ABSOLUTE
    ..\App\AppLayer\App_Upgrade.c            0x00000000   Number         0  app_upgrade.o ABSOLUTE
    ..\App\AppLayer\App_UsrCmd.c             0x00000000   Number         0  app_usrcmd.o ABSOLUTE
    ..\App\AppLayer\App_json.c               0x00000000   Number         0  app_json.o ABSOLUTE
    ..\App\AppLayer\App_led.c                0x00000000   Number         0  app_led.o ABSOLUTE
    ..\App\AppLayer\App_plt.c                0x00000000   Number         0  app_plt.o ABSOLUTE
    ..\App\AppLayer\App_rtc.c                0x00000000   Number         0  app_rtc.o ABSOLUTE
    ..\App\AppLayer\App_vfd.c                0x00000000   Number         0  app_vfd.o ABSOLUTE
    ..\App\AppLayer\Simulation.c             0x00000000   Number         0  simulation.o ABSOLUTE
    ..\App\AppLayer\bsp.c                    0x00000000   Number         0  bsp.o ABSOLUTE
    ..\App\AppLayer\comm.c                   0x00000000   Number         0  comm.o ABSOLUTE
    ..\App\DevLayer\GC65.c                   0x00000000   Number         0  gc65.o ABSOLUTE
    ..\App\DevLayer\GC65_Bsp.c               0x00000000   Number         0  gc65_bsp.o ABSOLUTE
    ..\App\DevLayer\SST25VF_Bsp.c            0x00000000   Number         0  sst25vf_bsp.o ABSOLUTE
    ..\App\DevLayer\SST25VF_flash.c          0x00000000   Number         0  sst25vf_flash.o ABSOLUTE
    ..\App\DevLayer\pipe.c                   0x00000000   Number         0  pipe.o ABSOLUTE
    ..\App\DevLayer\uart.c                   0x00000000   Number         0  uart.o ABSOLUTE
    ..\App\Lib\SPIFlash\SPIFlashHal.c        0x00000000   Number         0  spiflashhal.o ABSOLUTE
    ..\App\Lib\SPIFlash\SPIFlashUsr.c        0x00000000   Number         0  spiflashusr.o ABSOLUTE
    ..\App\main.c                            0x00000000   Number         0  main.o ABSOLUTE
    ..\STM32F10x_StdPeriph_Driver\src\misc.c 0x00000000   Number         0  misc.o ABSOLUTE
    ..\STM32F10x_StdPeriph_Driver\src\stm32f10x_can.c 0x00000000   Number         0  stm32f10x_can.o ABSOLUTE
    ..\STM32F10x_StdPeriph_Driver\src\stm32f10x_dma.c 0x00000000   Number         0  stm32f10x_dma.o ABSOLUTE
    ..\STM32F10x_StdPeriph_Driver\src\stm32f10x_flash.c 0x00000000   Number         0  stm32f10x_flash.o ABSOLUTE
    ..\STM32F10x_StdPeriph_Driver\src\stm32f10x_gpio.c 0x00000000   Number         0  stm32f10x_gpio.o ABSOLUTE
    ..\STM32F10x_StdPeriph_Driver\src\stm32f10x_iwdg.c 0x00000000   Number         0  stm32f10x_iwdg.o ABSOLUTE
    ..\STM32F10x_StdPeriph_Driver\src\stm32f10x_rcc.c 0x00000000   Number         0  stm32f10x_rcc.o ABSOLUTE
    ..\STM32F10x_StdPeriph_Driver\src\stm32f10x_spi.c 0x00000000   Number         0  stm32f10x_spi.o ABSOLUTE
    ..\STM32F10x_StdPeriph_Driver\src\stm32f10x_usart.c 0x00000000   Number         0  stm32f10x_usart.o ABSOLUTE
    ..\STM32F10x_StdPeriph_Driver\stm32f10x_it.c 0x00000000   Number         0  stm32f10x_it.o ABSOLUTE
    RTE\Device\STM32F103RC\startup_stm32f10x_hd.s 0x00000000   Number         0  startup_stm32f10x_hd.o ABSOLUTE
    RTE\Device\STM32F103RC\system_stm32f10x.c 0x00000000   Number         0  system_stm32f10x.o ABSOLUTE
    Src\SPIFlash\SPIFlash.c                  0x00000000   Number         0  spiflash.o ABSOLUTE
    Src\SPIFlash\SPIFlashDev.c               0x00000000   Number         0  spiflashdev.o ABSOLUTE
    Src\crc32\crc32.c                        0x00000000   Number         0  crc32.o ABSOLUTE
    dc.s                                     0x00000000   Number         0  dc.o ABSOLUTE
    RESET                                    0x08001000   Section      304  startup_stm32f10x_hd.o(RESET)
    !!!main                                  0x08001130   Section        8  __main.o(!!!main)
    !!!scatter                               0x08001138   Section       52  __scatter.o(!!!scatter)
    !!dczerorl2                              0x0800116c   Section       90  __dczerorl2.o(!!dczerorl2)
    !!handler_zi                             0x080011c8   Section       28  __scatter_zi.o(!!handler_zi)
    .ARM.Collect$$_printf_percent$$00000000  0x080011e4   Section        0  _printf_percent.o(.ARM.Collect$$_printf_percent$$00000000)
    .ARM.Collect$$_printf_percent$$00000001  0x080011e4   Section        6  _printf_n.o(.ARM.Collect$$_printf_percent$$00000001)
    .ARM.Collect$$_printf_percent$$00000002  0x080011ea   Section        6  _printf_p.o(.ARM.Collect$$_printf_percent$$00000002)
    .ARM.Collect$$_printf_percent$$00000003  0x080011f0   Section        6  _printf_f.o(.ARM.Collect$$_printf_percent$$00000003)
    .ARM.Collect$$_printf_percent$$00000004  0x080011f6   Section        6  _printf_e.o(.ARM.Collect$$_printf_percent$$00000004)
    .ARM.Collect$$_printf_percent$$00000005  0x080011fc   Section        6  _printf_g.o(.ARM.Collect$$_printf_percent$$00000005)
    .ARM.Collect$$_printf_percent$$00000006  0x08001202   Section        6  _printf_a.o(.ARM.Collect$$_printf_percent$$00000006)
    .ARM.Collect$$_printf_percent$$00000007  0x08001208   Section       10  _printf_ll.o(.ARM.Collect$$_printf_percent$$00000007)
    .ARM.Collect$$_printf_percent$$00000008  0x08001212   Section        6  _printf_i.o(.ARM.Collect$$_printf_percent$$00000008)
    .ARM.Collect$$_printf_percent$$00000009  0x08001218   Section        6  _printf_d.o(.ARM.Collect$$_printf_percent$$00000009)
    .ARM.Collect$$_printf_percent$$0000000A  0x0800121e   Section        6  _printf_u.o(.ARM.Collect$$_printf_percent$$0000000A)
    .ARM.Collect$$_printf_percent$$0000000B  0x08001224   Section        6  _printf_o.o(.ARM.Collect$$_printf_percent$$0000000B)
    .ARM.Collect$$_printf_percent$$0000000C  0x0800122a   Section        6  _printf_x.o(.ARM.Collect$$_printf_percent$$0000000C)
    .ARM.Collect$$_printf_percent$$0000000D  0x08001230   Section        6  _printf_lli.o(.ARM.Collect$$_printf_percent$$0000000D)
    .ARM.Collect$$_printf_percent$$0000000E  0x08001236   Section        6  _printf_lld.o(.ARM.Collect$$_printf_percent$$0000000E)
    .ARM.Collect$$_printf_percent$$0000000F  0x0800123c   Section        6  _printf_llu.o(.ARM.Collect$$_printf_percent$$0000000F)
    .ARM.Collect$$_printf_percent$$00000010  0x08001242   Section        6  _printf_llo.o(.ARM.Collect$$_printf_percent$$00000010)
    .ARM.Collect$$_printf_percent$$00000011  0x08001248   Section        6  _printf_llx.o(.ARM.Collect$$_printf_percent$$00000011)
    .ARM.Collect$$_printf_percent$$00000012  0x0800124e   Section       10  _printf_l.o(.ARM.Collect$$_printf_percent$$00000012)
    .ARM.Collect$$_printf_percent$$00000013  0x08001258   Section        6  _printf_c.o(.ARM.Collect$$_printf_percent$$00000013)
    .ARM.Collect$$_printf_percent$$00000014  0x0800125e   Section        6  _printf_s.o(.ARM.Collect$$_printf_percent$$00000014)
    .ARM.Collect$$_printf_percent$$00000015  0x08001264   Section        6  _printf_lc.o(.ARM.Collect$$_printf_percent$$00000015)
    .ARM.Collect$$_printf_percent$$00000016  0x0800126a   Section        6  _printf_ls.o(.ARM.Collect$$_printf_percent$$00000016)
    .ARM.Collect$$_printf_percent$$00000017  0x08001270   Section        4  _printf_percent_end.o(.ARM.Collect$$_printf_percent$$00000017)
    .ARM.Collect$$libinit$$00000000          0x08001274   Section        2  libinit.o(.ARM.Collect$$libinit$$00000000)
    .ARM.Collect$$libinit$$00000002          0x08001276   Section        0  libinit2.o(.ARM.Collect$$libinit$$00000002)
    .ARM.Collect$$libinit$$00000004          0x08001276   Section        0  libinit2.o(.ARM.Collect$$libinit$$00000004)
    .ARM.Collect$$libinit$$00000005          0x08001276   Section        8  libinit2.o(.ARM.Collect$$libinit$$00000005)
    .ARM.Collect$$libinit$$0000000A          0x0800127e   Section        0  libinit2.o(.ARM.Collect$$libinit$$0000000A)
    .ARM.Collect$$libinit$$0000000C          0x0800127e   Section        0  libinit2.o(.ARM.Collect$$libinit$$0000000C)
    .ARM.Collect$$libinit$$0000000E          0x0800127e   Section        0  libinit2.o(.ARM.Collect$$libinit$$0000000E)
    .ARM.Collect$$libinit$$0000000F          0x0800127e   Section        6  libinit2.o(.ARM.Collect$$libinit$$0000000F)
    .ARM.Collect$$libinit$$00000011          0x08001284   Section        0  libinit2.o(.ARM.Collect$$libinit$$00000011)
    .ARM.Collect$$libinit$$00000012          0x08001284   Section       12  libinit2.o(.ARM.Collect$$libinit$$00000012)
    .ARM.Collect$$libinit$$00000013          0x08001290   Section        0  libinit2.o(.ARM.Collect$$libinit$$00000013)
    .ARM.Collect$$libinit$$00000015          0x08001290   Section        0  libinit2.o(.ARM.Collect$$libinit$$00000015)
    .ARM.Collect$$libinit$$00000016          0x08001290   Section       10  libinit2.o(.ARM.Collect$$libinit$$00000016)
    .ARM.Collect$$libinit$$00000017          0x0800129a   Section        0  libinit2.o(.ARM.Collect$$libinit$$00000017)
    .ARM.Collect$$libinit$$00000019          0x0800129a   Section        0  libinit2.o(.ARM.Collect$$libinit$$00000019)
    .ARM.Collect$$libinit$$0000001B          0x0800129a   Section        0  libinit2.o(.ARM.Collect$$libinit$$0000001B)
    .ARM.Collect$$libinit$$0000001D          0x0800129a   Section        0  libinit2.o(.ARM.Collect$$libinit$$0000001D)
    .ARM.Collect$$libinit$$0000001F          0x0800129a   Section        0  libinit2.o(.ARM.Collect$$libinit$$0000001F)
    .ARM.Collect$$libinit$$00000021          0x0800129a   Section        0  libinit2.o(.ARM.Collect$$libinit$$00000021)
    .ARM.Collect$$libinit$$00000023          0x0800129a   Section        0  libinit2.o(.ARM.Collect$$libinit$$00000023)
    .ARM.Collect$$libinit$$00000025          0x0800129a   Section        0  libinit2.o(.ARM.Collect$$libinit$$00000025)
    .ARM.Collect$$libinit$$0000002C          0x0800129a   Section        0  libinit2.o(.ARM.Collect$$libinit$$0000002C)
    .ARM.Collect$$libinit$$0000002E          0x0800129a   Section        0  libinit2.o(.ARM.Collect$$libinit$$0000002E)
    .ARM.Collect$$libinit$$00000030          0x0800129a   Section        0  libinit2.o(.ARM.Collect$$libinit$$00000030)
    .ARM.Collect$$libinit$$00000032          0x0800129a   Section        0  libinit2.o(.ARM.Collect$$libinit$$00000032)
    .ARM.Collect$$libinit$$00000033          0x0800129a   Section        2  libinit2.o(.ARM.Collect$$libinit$$00000033)
    .ARM.Collect$$libshutdown$$00000000      0x0800129c   Section        2  libshutdown.o(.ARM.Collect$$libshutdown$$00000000)
    .ARM.Collect$$libshutdown$$00000003      0x0800129e   Section        0  libshutdown2.o(.ARM.Collect$$libshutdown$$00000003)
    .ARM.Collect$$libshutdown$$00000006      0x0800129e   Section        0  libshutdown2.o(.ARM.Collect$$libshutdown$$00000006)
    .ARM.Collect$$libshutdown$$00000009      0x0800129e   Section        0  libshutdown2.o(.ARM.Collect$$libshutdown$$00000009)
    .ARM.Collect$$libshutdown$$0000000B      0x0800129e   Section        0  libshutdown2.o(.ARM.Collect$$libshutdown$$0000000B)
    .ARM.Collect$$libshutdown$$0000000E      0x0800129e   Section        0  libshutdown2.o(.ARM.Collect$$libshutdown$$0000000E)
    .ARM.Collect$$libshutdown$$0000000F      0x0800129e   Section        2  libshutdown2.o(.ARM.Collect$$libshutdown$$0000000F)
    .ARM.Collect$$rtentry$$00000000          0x080012a0   Section        0  __rtentry.o(.ARM.Collect$$rtentry$$00000000)
    .ARM.Collect$$rtentry$$00000002          0x080012a0   Section        0  __rtentry2.o(.ARM.Collect$$rtentry$$00000002)
    .ARM.Collect$$rtentry$$00000004          0x080012a0   Section        6  __rtentry4.o(.ARM.Collect$$rtentry$$00000004)
    .ARM.Collect$$rtentry$$00000009          0x080012a6   Section        0  __rtentry2.o(.ARM.Collect$$rtentry$$00000009)
    .ARM.Collect$$rtentry$$0000000A          0x080012a6   Section        4  __rtentry2.o(.ARM.Collect$$rtentry$$0000000A)
    .ARM.Collect$$rtentry$$0000000C          0x080012aa   Section        0  __rtentry2.o(.ARM.Collect$$rtentry$$0000000C)
    .ARM.Collect$$rtentry$$0000000D          0x080012aa   Section        8  __rtentry2.o(.ARM.Collect$$rtentry$$0000000D)
    .ARM.Collect$$rtexit$$00000000           0x080012b2   Section        2  rtexit.o(.ARM.Collect$$rtexit$$00000000)
    .ARM.Collect$$rtexit$$00000002           0x080012b4   Section        0  rtexit2.o(.ARM.Collect$$rtexit$$00000002)
    .ARM.Collect$$rtexit$$00000003           0x080012b4   Section        4  rtexit2.o(.ARM.Collect$$rtexit$$00000003)
    .ARM.Collect$$rtexit$$00000004           0x080012b8   Section        6  rtexit2.o(.ARM.Collect$$rtexit$$00000004)
    .emb_text                                0x080012c0   Section        0  maybetermalloc1.o(.emb_text)
    .text                                    0x080012c0   Section        0  main.o(.text)
    .text                                    0x080015d0   Section        0  bsp.o(.text)
    NVIC_SetPriority                         0x08001bc7   Thumb Code    32  bsp.o(.text)
    .text                                    0x08001c00   Section        0  app_alarmevent.o(.text)
    AlarmFilterTimeOver                      0x08001e09   Thumb Code   108  app_alarmevent.o(.text)
    .text                                    0x08001e98   Section        0  app_debug.o(.text)
    Debug                                    0x08001ec1   Thumb Code    68  app_debug.o(.text)
    .text                                    0x080020ac   Section        0  app_json.o(.text)
    .text                                    0x080028fc   Section        0  app_led.o(.text)
    Led_Indicate                             0x080029b7   Thumb Code   146  app_led.o(.text)
    .text                                    0x08002ad0   Section        0  app_para.o(.text)
    DevParaRead                              0x08002c89   Thumb Code   268  app_para.o(.text)
    _flashErase                              0x08003477   Thumb Code    36  app_para.o(.text)
    .text                                    0x0800349c   Section        0  app_plt.o(.text)
    .text                                    0x0800540c   Section        0  app_usrcmd.o(.text)
    .text                                    0x080058b8   Section        0  app_vfd.o(.text)
    MeterReadIndexChg                        0x08005c29   Thumb Code    66  app_vfd.o(.text)
    .text                                    0x08006a04   Section        0  comm.o(.text)
    .text                                    0x08006efc   Section        0  stm32f10x_it.o(.text)
    .text                                    0x080072f8   Section        0  app_dtucfg.o(.text)
    .text                                    0x08007758   Section        0  app_rtc.o(.text)
    .text                                    0x08007bbc   Section        0  app_multfun.o(.text)
    .text                                    0x08007e40   Section        0  app_upgrade.o(.text)
    .text                                    0x08008374   Section        0  gc65.o(.text)
    ATCmdSend                                0x08008377   Thumb Code    48  gc65.o(.text)
    .text                                    0x0800a7d0   Section        0  gc65_bsp.o(.text)
    .text                                    0x0800a938   Section        0  uart.o(.text)
    .text                                    0x0800aa8c   Section        0  pipe.o(.text)
    .text                                    0x0800abfc   Section        0  misc.o(.text)
    .text                                    0x0800acac   Section        0  stm32f10x_dma.o(.text)
    .text                                    0x0800ae74   Section        0  stm32f10x_flash.o(.text)
    .text                                    0x0800b2f4   Section        0  stm32f10x_gpio.o(.text)
    .text                                    0x0800b558   Section        0  stm32f10x_iwdg.o(.text)
    .text                                    0x0800b594   Section        0  stm32f10x_rcc.o(.text)
    .text                                    0x0800b84c   Section        0  stm32f10x_usart.o(.text)
    .text                                    0x0800bb74   Section        0  stm32f10x_spi.o(.text)
    .text                                    0x0800bde8   Section        0  stm32f10x_can.o(.text)
    CheckITStatus                            0x0800c4db   Thumb Code    12  stm32f10x_can.o(.text)
    .text                                    0x0800c4f0   Section        0  spiflashhal.o(.text)
    .text                                    0x0800c600   Section        0  spiflashusr.o(.text)
    .text                                    0x0800c608   Section        0  app_protocol.o(.text)
    ObjRespondToServer                       0x0800c8af   Thumb Code   142  app_protocol.o(.text)
    GetStatusUpData                          0x0800e13f   Thumb Code   666  app_protocol.o(.text)
    .text                                    0x0800eb18   Section       64  startup_stm32f10x_hd.o(.text)
    .text                                    0x0800eb58   Section        0  system_stm32f10x.o(.text)
    SetSysClockTo72                          0x0800eb59   Thumb Code   160  system_stm32f10x.o(.text)
    .text                                    0x0800ecb0   Section        0  h1_alloc.o(.text)
    .text                                    0x0800ed10   Section        0  c89vsnprintf.o(.text)
    .text                                    0x0800ed44   Section        0  __2sprintf.o(.text)
    .text                                    0x0800ed70   Section        0  _printf_pad.o(.text)
    .text                                    0x0800edbe   Section        0  _printf_str.o(.text)
    .text                                    0x0800ee10   Section        0  _printf_dec.o(.text)
    .text                                    0x0800ee88   Section        0  _printf_hex_int_ll_ptr.o(.text)
    _printf_hex_common                       0x0800ee89   Thumb Code     0  _printf_hex_int_ll_ptr.o(.text)
    .text                                    0x0800ef1c   Section        0  __printf_flags_ss_wp.o(.text)
    .text                                    0x0800f0a4   Section        0  atoi.o(.text)
    .text                                    0x0800f0c0   Section        0  strtok.o(.text)
    .text                                    0x0800f0cc   Section        0  memcmp.o(.text)
    .text                                    0x0800f124   Section        0  strcpy.o(.text)
    .text                                    0x0800f16c   Section        0  strlen.o(.text)
    .text                                    0x0800f1aa   Section        0  strncmp.o(.text)
    .text                                    0x0800f240   Section      138  rt_memcpy_v6.o(.text)
    .text                                    0x0800f2ca   Section       16  aeabi_memset.o(.text)
    .text                                    0x0800f2da   Section       68  rt_memclr.o(.text)
    .text                                    0x0800f31e   Section       78  rt_memclr_w.o(.text)
    .text                                    0x0800f36c   Section      128  strcmpv7m.o(.text)
    .text                                    0x0800f3ec   Section        0  heapauxi.o(.text)
    .text                                    0x0800f3f4   Section        8  rt_heap_descriptor_intlibspace.o(.text)
    .text                                    0x0800f3fc   Section        8  rt_errno_addr_intlibspace.o(.text)
    .text                                    0x0800f404   Section        0  hguard.o(.text)
    .text                                    0x0800f408   Section        0  init_alloc.o(.text)
    .text                                    0x0800f492   Section        0  h1_init.o(.text)
    .text                                    0x0800f4a0   Section        0  h1_free.o(.text)
    .text                                    0x0800f4ee   Section        0  _printf_truncate.o(.text)
    .text                                    0x0800f512   Section        0  _printf_intcommon.o(.text)
    .text                                    0x0800f5c4   Section        0  _printf_charcount.o(.text)
    .text                                    0x0800f5ec   Section        0  _printf_fp_dec.o(.text)
    _fp_digits                               0x0800f5ef   Thumb Code   428  _printf_fp_dec.o(.text)
    .text                                    0x0800fa08   Section        0  _printf_char_common.o(.text)
    _printf_input_char                       0x0800fa09   Thumb Code    10  _printf_char_common.o(.text)
    .text                                    0x0800fa38   Section        0  _sputc.o(.text)
    .text                                    0x0800fa42   Section        0  _snputc.o(.text)
    .text                                    0x0800fa52   Section        0  _printf_char.o(.text)
    .text                                    0x0800fa80   Section        0  _printf_wctomb.o(.text)
    .text                                    0x0800fb3c   Section        0  _printf_longlong_dec.o(.text)
    .text                                    0x0800fbb8   Section        0  _printf_oct_int_ll.o(.text)
    _printf_longlong_oct_internal            0x0800fbb9   Thumb Code     0  _printf_oct_int_ll.o(.text)
    .text                                    0x0800fc28   Section        0  strtol.o(.text)
    .text                                    0x0800fc98   Section        0  strtok_int.o(.text)
    .text                                    0x0800fcdc   Section      100  rt_memcpy_w.o(.text)
    .text                                    0x0800fd40   Section        8  libspace.o(.text)
    .text                                    0x0800fd48   Section       16  rt_ctype_table.o(.text)
    .text                                    0x0800fd58   Section        8  rt_locale_intlibspace.o(.text)
    .text                                    0x0800fd60   Section        0  h1_extend.o(.text)
    .text                                    0x0800fd94   Section      138  lludiv10.o(.text)
    .text                                    0x0800fe20   Section        0  _printf_fp_infnan.o(.text)
    .text                                    0x0800fea0   Section        0  _printf_wchar.o(.text)
    .text                                    0x0800fecc   Section        0  _strtoul.o(.text)
    .text                                    0x0800ff6c   Section        0  bigflt0.o(.text)
    .text                                    0x08010048   Section        0  _wcrtomb.o(.text)
    .text                                    0x08010088   Section        0  defsig_rtmem_outer.o(.text)
    .text                                    0x08010096   Section        0  strcspn.o(.text)
    .text                                    0x080100b6   Section        0  strspn.o(.text)
    .text                                    0x080100d2   Section        2  use_no_semi.o(.text)
    .text                                    0x080100d4   Section       74  sys_stackheap_outer.o(.text)
    .text                                    0x080100d4   Section        0  indicate_semi.o(.text)
    .text                                    0x0801011e   Section        0  _chval.o(.text)
    .text                                    0x0801013a   Section        0  exit.o(.text)
    .text                                    0x08010146   Section        0  defsig_exit.o(.text)
    .text                                    0x08010150   Section        0  defsig_rtmem_inner.o(.text)
    .text                                    0x080101a0   Section        0  sys_exit.o(.text)
    .text                                    0x080101ac   Section        0  defsig_general.o(.text)
    .text                                    0x080101de   Section        0  sys_wrch.o(.text)
    CL$$btod_d2e                             0x080101ec   Section       62  btod.o(CL$$btod_d2e)
    CL$$btod_d2e_denorm_low                  0x0801022a   Section       70  btod.o(CL$$btod_d2e_denorm_low)
    CL$$btod_d2e_norm_op1                    0x08010270   Section       96  btod.o(CL$$btod_d2e_norm_op1)
    CL$$btod_div_common                      0x080102d0   Section      824  btod.o(CL$$btod_div_common)
    CL$$btod_e2e                             0x08010608   Section      198  btod.o(CL$$btod_e2e)
    CL$$btod_ediv                            0x080106ce   Section       40  btod.o(CL$$btod_ediv)
    CL$$btod_emul                            0x080106f6   Section       40  btod.o(CL$$btod_emul)
    CL$$btod_mult_common                     0x0801071e   Section      580  btod.o(CL$$btod_mult_common)
    i.CRC32Calc                              0x08010964   Section        0  crc32.o(i.CRC32Calc)
    i.CRC32CalcReset                         0x08010998   Section        0  crc32.o(i.CRC32CalcReset)
    i.FlashBufferRead                        0x080109a8   Section        0  spiflashdev.o(i.FlashBufferRead)
    i.FlashBufferWrite                       0x080109f0   Section        0  spiflashdev.o(i.FlashBufferWrite)
    i.FlashModelRead                         0x08010af8   Section        0  spiflash.o(i.FlashModelRead)
    FlashModelRead                           0x08010af9   Thumb Code    82  spiflash.o(i.FlashModelRead)
    i.FlashReadID                            0x08010b50   Section        0  spiflashdev.o(i.FlashReadID)
    i.FlashReadStatusRegister                0x08010b8c   Section        0  spiflashdev.o(i.FlashReadStatusRegister)
    FlashReadStatusRegister                  0x08010b8d   Thumb Code    32  spiflashdev.o(i.FlashReadStatusRegister)
    i.FlashSectorErase_4KByte                0x08010bac   Section        0  spiflashdev.o(i.FlashSectorErase_4KByte)
    i.FlashWaitForWriteEnd                   0x08010bec   Section        0  spiflashdev.o(i.FlashWaitForWriteEnd)
    FlashWaitForWriteEnd                     0x08010bed   Thumb Code    32  spiflashdev.o(i.FlashWaitForWriteEnd)
    i.FlashWait_Busy_AAI                     0x08010c0c   Section        0  spiflashdev.o(i.FlashWait_Busy_AAI)
    FlashWait_Busy_AAI                       0x08010c0d   Thumb Code    18  spiflashdev.o(i.FlashWait_Busy_AAI)
    i.FlashWriteDisable                      0x08010c1e   Section        0  spiflashdev.o(i.FlashWriteDisable)
    FlashWriteDisable                        0x08010c1f   Thumb Code    24  spiflashdev.o(i.FlashWriteDisable)
    i.FlashWriteEnable                       0x08010c36   Section        0  spiflashdev.o(i.FlashWriteEnable)
    FlashWriteEnable                         0x08010c37   Thumb Code    24  spiflashdev.o(i.FlashWriteEnable)
    i.SPIFlashErase4K                        0x08010c4e   Section        0  spiflash.o(i.SPIFlashErase4K)
    i.SPIFlashInit                           0x08010c64   Section        0  spiflash.o(i.SPIFlashInit)
    i.SPIFlashRead                           0x08010c84   Section        0  spiflash.o(i.SPIFlashRead)
    i.SPIFlashWrite                          0x08010ca2   Section        0  spiflash.o(i.SPIFlashWrite)
    i.SST25V_DBSY                            0x08010cc0   Section        0  spiflashdev.o(i.SST25V_DBSY)
    i.SST25V_EnableWriteStatusRegister       0x08010cd8   Section        0  spiflashdev.o(i.SST25V_EnableWriteStatusRegister)
    i.SST25V_WriteStatusRegister             0x08010cf0   Section        0  spiflashdev.o(i.SST25V_WriteStatusRegister)
    i.__ARM_fpclassify                       0x08010d14   Section        0  fpclassify.o(i.__ARM_fpclassify)
    i._is_digit                              0x08010d3c   Section        0  __printf_wp.o(i._is_digit)
    locale$$code                             0x08010d4c   Section       44  lc_numeric_c.o(locale$$code)
    locale$$code                             0x08010d78   Section       44  lc_ctype_c.o(locale$$code)
    x$fpl$dadd                               0x08010da4   Section      336  daddsub_clz.o(x$fpl$dadd)
    _dadd1                                   0x08010db5   Thumb Code     0  daddsub_clz.o(x$fpl$dadd)
    x$fpl$ddiv                               0x08010ef4   Section      688  ddiv.o(x$fpl$ddiv)
    ddiv_entry                               0x08010efb   Thumb Code     0  ddiv.o(x$fpl$ddiv)
    x$fpl$dfixu                              0x080111a4   Section       90  dfixu.o(x$fpl$dfixu)
    x$fpl$dflt                               0x080111fe   Section       46  dflt_clz.o(x$fpl$dflt)
    x$fpl$dfltu                              0x0801122c   Section       38  dflt_clz.o(x$fpl$dfltu)
    x$fpl$dfltull                            0x08011254   Section      138  dfltll_clz.o(x$fpl$dfltull)
    x$fpl$dmul                               0x080112e0   Section      340  dmul.o(x$fpl$dmul)
    x$fpl$dnaninf                            0x08011434   Section      156  dnaninf.o(x$fpl$dnaninf)
    x$fpl$dretinf                            0x080114d0   Section       12  dretinf.o(x$fpl$dretinf)
    x$fpl$dsub                               0x080114dc   Section      468  daddsub_clz.o(x$fpl$dsub)
    _dsub1                                   0x080114ed   Thumb Code     0  daddsub_clz.o(x$fpl$dsub)
    x$fpl$f2d                                0x080116b0   Section       86  f2d.o(x$fpl$f2d)
    x$fpl$fdiv                               0x08011708   Section      388  fdiv.o(x$fpl$fdiv)
    _fdiv1                                   0x08011709   Thumb Code     0  fdiv.o(x$fpl$fdiv)
    x$fpl$fflt                               0x0801188c   Section       48  fflt_clz.o(x$fpl$fflt)
    x$fpl$ffltu                              0x080118bc   Section       38  fflt_clz.o(x$fpl$ffltu)
    x$fpl$fmul                               0x080118e4   Section      258  fmul.o(x$fpl$fmul)
    x$fpl$fnaninf                            0x080119e6   Section      140  fnaninf.o(x$fpl$fnaninf)
    x$fpl$fretinf                            0x08011a72   Section       10  fretinf.o(x$fpl$fretinf)
    x$fpl$printf1                            0x08011a7c   Section        4  printf1.o(x$fpl$printf1)
    .constdata                               0x08011a80   Section     1800  app_plt.o(.constdata)
    x$fpl$usenofp                            0x08011a80   Section        0  usenofp.o(x$fpl$usenofp)
    .constdata                               0x08012188   Section      512  comm.o(.constdata)
    .constdata                               0x08012388   Section       13  app_rtc.o(.constdata)
    .constdata                               0x08012395   Section       81  app_protocol.o(.constdata)
    .constdata                               0x080123e8   Section     1024  crc32.o(.constdata)
    .constdata                               0x080127e8   Section       40  _printf_hex_int_ll_ptr.o(.constdata)
    uc_hextab                                0x080127e8   Data          20  _printf_hex_int_ll_ptr.o(.constdata)
    lc_hextab                                0x080127fc   Data          20  _printf_hex_int_ll_ptr.o(.constdata)
    .constdata                               0x08012810   Section       17  __printf_flags_ss_wp.o(.constdata)
    maptable                                 0x08012810   Data          17  __printf_flags_ss_wp.o(.constdata)
    .constdata                               0x08012824   Section        8  _printf_wctomb.o(.constdata)
    initial_mbstate                          0x08012824   Data           8  _printf_wctomb.o(.constdata)
    .constdata                               0x0801282c   Section      148  bigflt0.o(.constdata)
    tenpwrs_x                                0x0801282c   Data          60  bigflt0.o(.constdata)
    tenpwrs_i                                0x08012868   Data          64  bigflt0.o(.constdata)
    .conststring                             0x080128c0   Section      819  app_protocol.o(.conststring)
    locale$$data                             0x08012c14   Section       28  lc_numeric_c.o(locale$$data)
    __lcnum_c_name                           0x08012c18   Data           2  lc_numeric_c.o(locale$$data)
    __lcnum_c_start                          0x08012c20   Data           0  lc_numeric_c.o(locale$$data)
    __lcnum_c_point                          0x08012c2c   Data           0  lc_numeric_c.o(locale$$data)
    __lcnum_c_thousands                      0x08012c2e   Data           0  lc_numeric_c.o(locale$$data)
    __lcnum_c_grouping                       0x08012c2f   Data           0  lc_numeric_c.o(locale$$data)
    locale$$data                             0x08012c30   Section      272  lc_ctype_c.o(locale$$data)
    __lcnum_c_end                            0x08012c30   Data           0  lc_numeric_c.o(locale$$data)
    __lcctype_c_name                         0x08012c34   Data           2  lc_ctype_c.o(locale$$data)
    __lcctype_c_start                        0x08012c3c   Data           0  lc_ctype_c.o(locale$$data)
    __lcctype_c_end                          0x08012d40   Data           0  lc_ctype_c.o(locale$$data)
    .data                                    0x20000000   Section        1  bsp.o(.data)
    WdFlag                                   0x20000000   Data           1  bsp.o(.data)
    .data                                    0x20000004   Section       24  app_alarmevent.o(.data)
    AlmFltTimer                              0x2000000c   Data           4  app_alarmevent.o(.data)
    LastAlmFlg                               0x20000010   Data           4  app_alarmevent.o(.data)
    LastPreAlmFlg                            0x20000014   Data           4  app_alarmevent.o(.data)
    LastDevAlmFlg                            0x20000018   Data           4  app_alarmevent.o(.data)
    .data                                    0x2000001c   Section        8  app_debug.o(.data)
    argp                                     0x20000020   Data           4  app_debug.o(.data)
    .data                                    0x20000024   Section       18  app_led.o(.data)
    led_step                                 0x20000024   Data           1  app_led.o(.data)
    LedDelay                                 0x20000026   Data           2  app_led.o(.data)
    cycle                                    0x20000028   Data           4  app_led.o(.data)
    count                                    0x2000002c   Data           4  app_led.o(.data)
    LedCtrl                                  0x20000030   Data           6  app_led.o(.data)
    .data                                    0x20000038   Section       24  app_para.o(.data)
    temp                                     0x20000038   Data           2  app_para.o(.data)
    .data                                    0x20000050   Section       12  app_plt.o(.data)
    LastMachineStat                          0x20000052   Data           2  app_plt.o(.data)
    Power_Consume_Total                      0x20000054   Data           8  app_plt.o(.data)
    .data                                    0x2000005c   Section        1  app_plt.o(.data)
    .data                                    0x20000060   Section       92  app_vfd.o(.data)
    Meter_Writer_Flag                        0x20000060   Data           1  app_vfd.o(.data)
    RevCanFlag                               0x20000062   Data           1  app_vfd.o(.data)
    ParaStep                                 0x20000063   Data           1  app_vfd.o(.data)
    LastDTuStatus                            0x20000072   Data           2  app_vfd.o(.data)
    CommErrCnt                               0x2000009c   Data           4  app_vfd.o(.data)
    CommOkCnt                                0x200000a0   Data           4  app_vfd.o(.data)
    VfdDelay                                 0x200000a4   Data           4  app_vfd.o(.data)
    MeterDelay                               0x200000a8   Data           4  app_vfd.o(.data)
    Meter2Delay                              0x200000ac   Data           4  app_vfd.o(.data)
    Meter_Writer_Data                        0x200000b0   Data           6  app_vfd.o(.data)
    .data                                    0x200000bc   Section        2  stm32f10x_it.o(.data)
    Nms                                      0x200000bc   Data           2  stm32f10x_it.o(.data)
    .data                                    0x200000be   Section        1  app_dtucfg.o(.data)
    .data                                    0x200000bf   Section        1  app_dtucfg.o(.data)
    .data                                    0x200000c0   Section       12  app_rtc.o(.data)
    SysMsCount                               0x200000c2   Data           2  app_rtc.o(.data)
    gTime_realSysCount                       0x200000c4   Data           4  app_rtc.o(.data)
    gTime_RtcTime                            0x200000c8   Data           4  app_rtc.o(.data)
    .data                                    0x200000cc   Section        6  app_rtc.o(.data)
    .data                                    0x200000d4   Section       40  app_multfun.o(.data)
    CommTime                                 0x200000d4   Data           4  app_multfun.o(.data)
    CommErrCnt                               0x200000ec   Data           4  app_multfun.o(.data)
    ParaErrCnt                               0x200000f0   Data           4  app_multfun.o(.data)
    .data                                    0x200000fc   Section       12  app_upgrade.o(.data)
    GbRebootFlag                             0x200000fc   Data           1  app_upgrade.o(.data)
    .data                                    0x20000108   Section       28  gc65.o(.data)
    InitStep                                 0x20000108   Data           1  gc65.o(.data)
    RcvStep                                  0x20000109   Data           1  gc65.o(.data)
    RcvTmpLen                                0x2000010a   Data           2  gc65.o(.data)
    RcvSize                                  0x2000010c   Data           2  gc65.o(.data)
    .data                                    0x20000124   Section        1  uart.o(.data)
    .data                                    0x20000125   Section       20  stm32f10x_rcc.o(.data)
    ADCPrescTable                            0x20000125   Data           4  stm32f10x_rcc.o(.data)
    APBAHBPrescTable                         0x20000129   Data          16  stm32f10x_rcc.o(.data)
    .data                                    0x2000013c   Section       44  app_protocol.o(.data)
    PtlSendState                             0x2000013e   Data           1  app_protocol.o(.data)
    RetryCnt                                 0x2000013f   Data           1  app_protocol.o(.data)
    bSendHeart                               0x20000140   Data           1  app_protocol.o(.data)
    WaitNms                                  0x20000142   Data           2  app_protocol.o(.data)
    SendLen                                  0x20000144   Data           2  app_protocol.o(.data)
    StepDelay                                0x20000148   Data           4  app_protocol.o(.data)
    .data                                    0x20000168   Section        1  app_protocol.o(.data)
    .data                                    0x2000016c   Section       20  system_stm32f10x.o(.data)
    .data                                    0x20000180   Section        4  crc32.o(.data)
    crc32                                    0x20000180   Data           4  crc32.o(.data)
    .data                                    0x20000184   Section        1  spiflashdev.o(.data)
    .data                                    0x20000188   Section        4  strtok.o(.data)
    _strtok_saves1                           0x20000188   Data           4  strtok.o(.data)
    .bss                                     0x2000018c   Section       48  app_alarmevent.o(.bss)
    .bss                                     0x200001bc   Section      400  app_debug.o(.bss)
    DbgMsgstr                                0x200001bc   Data         400  app_debug.o(.bss)
    .bss                                     0x2000034c   Section       16  app_debug.o(.bss)
    .bss                                     0x2000035c   Section       12  app_json.o(.bss)
    .bss                                     0x20000368   Section       32  app_json.o(.bss)
    .bss                                     0x20000388   Section      162  app_json.o(.bss)
    .bss                                     0x2000042c   Section      324  app_json.o(.bss)
    .bss                                     0x20000570   Section       12  app_led.o(.bss)
    .bss                                     0x2000057c   Section     1020  app_para.o(.bss)
    TempPara                                 0x20000894   Data         228  app_para.o(.bss)
    .bss                                     0x20000978   Section      115  app_plt.o(.bss)
    .bss                                     0x200009ec   Section      124  app_vfd.o(.bss)
    RevCanBuf                                0x20000a34   Data          12  app_vfd.o(.bss)
    RecDataBuff                              0x20000a40   Data          20  app_vfd.o(.bss)
    RecDataBuff2                             0x20000a54   Data          20  app_vfd.o(.bss)
    .bss                                     0x20000a68   Section      220  app_vfd.o(.bss)
    .bss                                     0x20000b44   Section      220  app_vfd.o(.bss)
    .bss                                     0x20000c20   Section      220  app_vfd.o(.bss)
    .bss                                     0x20000cfc   Section     1024  app_dtucfg.o(.bss)
    .bss                                     0x200010fc   Section      512  app_upgrade.o(.bss)
    .bss                                     0x200012fc   Section     4396  gc65.o(.bss)
    ATCharRcvBuf                             0x20002028   Data        1024  gc65.o(.bss)
    .bss                                     0x20002428   Section     1028  gc65.o(.bss)
    _gprsDealBuf                             0x20002428   Data        1028  gc65.o(.bss)
    .bss                                     0x2000282c   Section      522  gc65_bsp.o(.bss)
    .bss                                     0x20002a36   Section      108  uart.o(.bss)
    .bss                                     0x20002aa2   Section     1054  uart.o(.bss)
    DMAUart2Buf                              0x20002aa2   Data        1054  uart.o(.bss)
    .bss                                     0x20002ec0   Section     2160  app_protocol.o(.bss)
    Update                                   0x200036f8   Data          36  app_protocol.o(.bss)
    SendData                                 0x2000371c   Data          20  app_protocol.o(.bss)
    .bss                                     0x20003730   Section       16  app_protocol.o(.bss)
    .bss                                     0x20003740   Section       96  libspace.o(.bss)
    HEAP                                     0x200037a0   Section      512  startup_stm32f10x_hd.o(HEAP)
    Heap_Mem                                 0x200037a0   Data         512  startup_stm32f10x_hd.o(HEAP)
    STACK                                    0x200039a0   Section     1024  startup_stm32f10x_hd.o(STACK)
    Stack_Mem                                0x200039a0   Data        1024  startup_stm32f10x_hd.o(STACK)
    __initial_sp                             0x20003da0   Data           0  startup_stm32f10x_hd.o(STACK)

    Global Symbols

    Symbol Name                              Value     Ov Type        Size  Object(Section)

    BuildAttributes$$THM_ISAv4$P$D$K$B$S$PE$A:L22UL41UL21$X:L11$S22US41US21$IEEE1$IW$USESV6$~STKCKD$USESV7$~SHL$OTIME$ROPI$IEEEJ$EBA8$UX$STANDARDLIB$REQ8$PRES8$EABIv2 0x00000000   Number         0  anon$$obj.o ABSOLUTE
    __ARM_use_no_argv                        0x00000000   Number         0  main.o ABSOLUTE
    _printf_flags                            0x00000000   Number         0  printf_stubs.o ABSOLUTE
    _printf_return_value                     0x00000000   Number         0  printf_stubs.o ABSOLUTE
    _printf_sizespec                         0x00000000   Number         0  printf_stubs.o ABSOLUTE
    _printf_widthprec                        0x00000000   Number         0  printf_stubs.o ABSOLUTE
    __ARM_exceptions_init                     - Undefined Weak Reference
    __alloca_initialize                       - Undefined Weak Reference
    __arm_preinit_                            - Undefined Weak Reference
    __cpp_initialize__aeabi_                  - Undefined Weak Reference
    __cxa_finalize                            - Undefined Weak Reference
    __sigvec_lookup                           - Undefined Weak Reference
    __user_heap_extent                        - Undefined Weak Reference
    _atexit_init                              - Undefined Weak Reference
    _call_atexit_fns                          - Undefined Weak Reference
    _clock_init                               - Undefined Weak Reference
    _fp_trap_init                             - Undefined Weak Reference
    _fp_trap_shutdown                         - Undefined Weak Reference
    _get_lc_collate                           - Undefined Weak Reference
    _get_lc_monetary                          - Undefined Weak Reference
    _get_lc_time                              - Undefined Weak Reference
    _getenv_init                              - Undefined Weak Reference
    _handle_redirection                       - Undefined Weak Reference
    _initio                                   - Undefined Weak Reference
    _mutex_acquire                            - Undefined Weak Reference
    _mutex_free                               - Undefined Weak Reference
    _mutex_release                            - Undefined Weak Reference
    _printf_fp_hex                            - Undefined Weak Reference
    _printf_mbtowc                            - Undefined Weak Reference
    _printf_wc                                - Undefined Weak Reference
    _rand_init                                - Undefined Weak Reference
    _signal_finish                            - Undefined Weak Reference
    _signal_init                              - Undefined Weak Reference
    _terminateio                              - Undefined Weak Reference
    __Vectors_Size                           0x00000130   Number         0  startup_stm32f10x_hd.o ABSOLUTE
    __Vectors                                0x08001000   Data           4  startup_stm32f10x_hd.o(RESET)
    __Vectors_End                            0x08001130   Data           0  startup_stm32f10x_hd.o(RESET)
    __main                                   0x08001131   Thumb Code     8  __main.o(!!!main)
    __scatterload                            0x08001139   Thumb Code     0  __scatter.o(!!!scatter)
    __scatterload_rt2                        0x08001139   Thumb Code    44  __scatter.o(!!!scatter)
    __scatterload_rt2_thumb_only             0x08001139   Thumb Code     0  __scatter.o(!!!scatter)
    __scatterload_null                       0x08001147   Thumb Code     0  __scatter.o(!!!scatter)
    __decompress                             0x0800116d   Thumb Code    90  __dczerorl2.o(!!dczerorl2)
    __decompress1                            0x0800116d   Thumb Code     0  __dczerorl2.o(!!dczerorl2)
    __scatterload_zeroinit                   0x080011c9   Thumb Code    28  __scatter_zi.o(!!handler_zi)
    _printf_n                                0x080011e5   Thumb Code     0  _printf_n.o(.ARM.Collect$$_printf_percent$$00000001)
    _printf_percent                          0x080011e5   Thumb Code     0  _printf_percent.o(.ARM.Collect$$_printf_percent$$00000000)
    _printf_p                                0x080011eb   Thumb Code     0  _printf_p.o(.ARM.Collect$$_printf_percent$$00000002)
    _printf_f                                0x080011f1   Thumb Code     0  _printf_f.o(.ARM.Collect$$_printf_percent$$00000003)
    _printf_e                                0x080011f7   Thumb Code     0  _printf_e.o(.ARM.Collect$$_printf_percent$$00000004)
    _printf_g                                0x080011fd   Thumb Code     0  _printf_g.o(.ARM.Collect$$_printf_percent$$00000005)
    _printf_a                                0x08001203   Thumb Code     0  _printf_a.o(.ARM.Collect$$_printf_percent$$00000006)
    _printf_ll                               0x08001209   Thumb Code     0  _printf_ll.o(.ARM.Collect$$_printf_percent$$00000007)
    _printf_i                                0x08001213   Thumb Code     0  _printf_i.o(.ARM.Collect$$_printf_percent$$00000008)
    _printf_d                                0x08001219   Thumb Code     0  _printf_d.o(.ARM.Collect$$_printf_percent$$00000009)
    _printf_u                                0x0800121f   Thumb Code     0  _printf_u.o(.ARM.Collect$$_printf_percent$$0000000A)
    _printf_o                                0x08001225   Thumb Code     0  _printf_o.o(.ARM.Collect$$_printf_percent$$0000000B)
    _printf_x                                0x0800122b   Thumb Code     0  _printf_x.o(.ARM.Collect$$_printf_percent$$0000000C)
    _printf_lli                              0x08001231   Thumb Code     0  _printf_lli.o(.ARM.Collect$$_printf_percent$$0000000D)
    _printf_lld                              0x08001237   Thumb Code     0  _printf_lld.o(.ARM.Collect$$_printf_percent$$0000000E)
    _printf_llu                              0x0800123d   Thumb Code     0  _printf_llu.o(.ARM.Collect$$_printf_percent$$0000000F)
    _printf_llo                              0x08001243   Thumb Code     0  _printf_llo.o(.ARM.Collect$$_printf_percent$$00000010)
    _printf_llx                              0x08001249   Thumb Code     0  _printf_llx.o(.ARM.Collect$$_printf_percent$$00000011)
    _printf_l                                0x0800124f   Thumb Code     0  _printf_l.o(.ARM.Collect$$_printf_percent$$00000012)
    _printf_c                                0x08001259   Thumb Code     0  _printf_c.o(.ARM.Collect$$_printf_percent$$00000013)
    _printf_s                                0x0800125f   Thumb Code     0  _printf_s.o(.ARM.Collect$$_printf_percent$$00000014)
    _printf_lc                               0x08001265   Thumb Code     0  _printf_lc.o(.ARM.Collect$$_printf_percent$$00000015)
    _printf_ls                               0x0800126b   Thumb Code     0  _printf_ls.o(.ARM.Collect$$_printf_percent$$00000016)
    _printf_percent_end                      0x08001271   Thumb Code     0  _printf_percent_end.o(.ARM.Collect$$_printf_percent$$00000017)
    __rt_lib_init                            0x08001275   Thumb Code     0  libinit.o(.ARM.Collect$$libinit$$00000000)
    __rt_lib_init_fp_1                       0x08001277   Thumb Code     0  libinit2.o(.ARM.Collect$$libinit$$00000002)
    __rt_lib_init_heap_2                     0x08001277   Thumb Code     0  libinit2.o(.ARM.Collect$$libinit$$00000005)
    __rt_lib_init_preinit_1                  0x08001277   Thumb Code     0  libinit2.o(.ARM.Collect$$libinit$$00000004)
    __rt_lib_init_heap_1                     0x0800127f   Thumb Code     0  libinit2.o(.ARM.Collect$$libinit$$0000000A)
    __rt_lib_init_lc_common                  0x0800127f   Thumb Code     0  libinit2.o(.ARM.Collect$$libinit$$0000000F)
    __rt_lib_init_rand_1                     0x0800127f   Thumb Code     0  libinit2.o(.ARM.Collect$$libinit$$0000000E)
    __rt_lib_init_user_alloc_1               0x0800127f   Thumb Code     0  libinit2.o(.ARM.Collect$$libinit$$0000000C)
    __rt_lib_init_lc_collate_1               0x08001285   Thumb Code     0  libinit2.o(.ARM.Collect$$libinit$$00000011)
    __rt_lib_init_lc_ctype_2                 0x08001285   Thumb Code     0  libinit2.o(.ARM.Collect$$libinit$$00000012)
    __rt_lib_init_lc_ctype_1                 0x08001291   Thumb Code     0  libinit2.o(.ARM.Collect$$libinit$$00000013)
    __rt_lib_init_lc_monetary_1              0x08001291   Thumb Code     0  libinit2.o(.ARM.Collect$$libinit$$00000015)
    __rt_lib_init_lc_numeric_2               0x08001291   Thumb Code     0  libinit2.o(.ARM.Collect$$libinit$$00000016)
    __rt_lib_init_alloca_1                   0x0800129b   Thumb Code     0  libinit2.o(.ARM.Collect$$libinit$$0000002E)
    __rt_lib_init_argv_1                     0x0800129b   Thumb Code     0  libinit2.o(.ARM.Collect$$libinit$$0000002C)
    __rt_lib_init_atexit_1                   0x0800129b   Thumb Code     0  libinit2.o(.ARM.Collect$$libinit$$0000001B)
    __rt_lib_init_clock_1                    0x0800129b   Thumb Code     0  libinit2.o(.ARM.Collect$$libinit$$00000021)
    __rt_lib_init_cpp_1                      0x0800129b   Thumb Code     0  libinit2.o(.ARM.Collect$$libinit$$00000032)
    __rt_lib_init_exceptions_1               0x0800129b   Thumb Code     0  libinit2.o(.ARM.Collect$$libinit$$00000030)
    __rt_lib_init_fp_trap_1                  0x0800129b   Thumb Code     0  libinit2.o(.ARM.Collect$$libinit$$0000001F)
    __rt_lib_init_getenv_1                   0x0800129b   Thumb Code     0  libinit2.o(.ARM.Collect$$libinit$$00000023)
    __rt_lib_init_lc_numeric_1               0x0800129b   Thumb Code     0  libinit2.o(.ARM.Collect$$libinit$$00000017)
    __rt_lib_init_lc_time_1                  0x0800129b   Thumb Code     0  libinit2.o(.ARM.Collect$$libinit$$00000019)
    __rt_lib_init_return                     0x0800129b   Thumb Code     0  libinit2.o(.ARM.Collect$$libinit$$00000033)
    __rt_lib_init_signal_1                   0x0800129b   Thumb Code     0  libinit2.o(.ARM.Collect$$libinit$$0000001D)
    __rt_lib_init_stdio_1                    0x0800129b   Thumb Code     0  libinit2.o(.ARM.Collect$$libinit$$00000025)
    __rt_lib_shutdown                        0x0800129d   Thumb Code     0  libshutdown.o(.ARM.Collect$$libshutdown$$00000000)
    __rt_lib_shutdown_fp_trap_1              0x0800129f   Thumb Code     0  libshutdown2.o(.ARM.Collect$$libshutdown$$00000006)
    __rt_lib_shutdown_heap_1                 0x0800129f   Thumb Code     0  libshutdown2.o(.ARM.Collect$$libshutdown$$0000000E)
    __rt_lib_shutdown_return                 0x0800129f   Thumb Code     0  libshutdown2.o(.ARM.Collect$$libshutdown$$0000000F)
    __rt_lib_shutdown_signal_1               0x0800129f   Thumb Code     0  libshutdown2.o(.ARM.Collect$$libshutdown$$00000009)
    __rt_lib_shutdown_stdio_1                0x0800129f   Thumb Code     0  libshutdown2.o(.ARM.Collect$$libshutdown$$00000003)
    __rt_lib_shutdown_user_alloc_1           0x0800129f   Thumb Code     0  libshutdown2.o(.ARM.Collect$$libshutdown$$0000000B)
    __rt_entry                               0x080012a1   Thumb Code     0  __rtentry.o(.ARM.Collect$$rtentry$$00000000)
    __rt_entry_presh_1                       0x080012a1   Thumb Code     0  __rtentry2.o(.ARM.Collect$$rtentry$$00000002)
    __rt_entry_sh                            0x080012a1   Thumb Code     0  __rtentry4.o(.ARM.Collect$$rtentry$$00000004)
    __rt_entry_li                            0x080012a7   Thumb Code     0  __rtentry2.o(.ARM.Collect$$rtentry$$0000000A)
    __rt_entry_postsh_1                      0x080012a7   Thumb Code     0  __rtentry2.o(.ARM.Collect$$rtentry$$00000009)
    __rt_entry_main                          0x080012ab   Thumb Code     0  __rtentry2.o(.ARM.Collect$$rtentry$$0000000D)
    __rt_entry_postli_1                      0x080012ab   Thumb Code     0  __rtentry2.o(.ARM.Collect$$rtentry$$0000000C)
    __rt_exit                                0x080012b3   Thumb Code     0  rtexit.o(.ARM.Collect$$rtexit$$00000000)
    __rt_exit_ls                             0x080012b5   Thumb Code     0  rtexit2.o(.ARM.Collect$$rtexit$$00000003)
    __rt_exit_prels_1                        0x080012b5   Thumb Code     0  rtexit2.o(.ARM.Collect$$rtexit$$00000002)
    __rt_exit_exit                           0x080012b9   Thumb Code     0  rtexit2.o(.ARM.Collect$$rtexit$$00000004)
    SoftWareInit                             0x080012c1   Thumb Code    76  main.o(.text)
    _maybe_terminate_alloc                   0x080012c1   Thumb Code     0  maybetermalloc1.o(.emb_text)
    main                                     0x0800130d   Thumb Code   428  main.o(.text)
    GPIO_Configuration                       0x080015d1   Thumb Code   228  bsp.o(.text)
    InitIWDG                                 0x080016b5   Thumb Code    48  bsp.o(.text)
    InitUart                                 0x080016e5   Thumb Code   406  bsp.o(.text)
    InitCan                                  0x0800187b   Thumb Code   108  bsp.o(.text)
    Can_Config                               0x080018e7   Thumb Code   140  bsp.o(.text)
    Init485Uart                              0x08001973   Thumb Code   180  bsp.o(.text)
    InterruptConfig                          0x08001a27   Thumb Code   148  bsp.o(.text)
    FeedDog                                  0x08001abb   Thumb Code    44  bsp.o(.text)
    HardWareInit                             0x08001ae7   Thumb Code   224  bsp.o(.text)
    AlarmFilterTimer                         0x08001c01   Thumb Code    26  app_alarmevent.o(.text)
    AlarmEventInit                           0x08001c1b   Thumb Code   124  app_alarmevent.o(.text)
    AlarmEventDeal                           0x08001c97   Thumb Code   294  app_alarmevent.o(.text)
    Alarm_Filter_Deal                        0x08001dbd   Thumb Code    52  app_alarmevent.o(.text)
    Start_Stop_Filter                        0x08001df1   Thumb Code    24  app_alarmevent.o(.text)
    RS485SndDly                              0x08001e99   Thumb Code    16  app_debug.o(.text)
    DisableAllDebug                          0x08001ea9   Thumb Code     8  app_debug.o(.text)
    AppDebugInit                             0x08001eb1   Thumb Code    16  app_debug.o(.text)
    DebugStrMsg                              0x08001f05   Thumb Code    88  app_debug.o(.text)
    DebugHexMsg                              0x08001f5d   Thumb Code    90  app_debug.o(.text)
    DebugMsg                                 0x08001fb7   Thumb Code   128  app_debug.o(.text)
    RS485CfgResp                             0x08002037   Thumb Code    30  app_debug.o(.text)
    JSON_ObjectBegin                         0x080020ad   Thumb Code     8  app_json.o(.text)
    JSON_ObjectEnd                           0x080020b5   Thumb Code    38  app_json.o(.text)
    JSON_AddrStringDataToObject              0x080020db   Thumb Code    28  app_json.o(.text)
    JSON_AddrNumberDataToObject              0x080020f7   Thumb Code    70  app_json.o(.text)
    JSON_AddrAndDataToObject                 0x0800213d   Thumb Code   278  app_json.o(.text)
    JSON_FlowDataToObject                    0x08002253   Thumb Code   224  app_json.o(.text)
    JSON_MeterDataToObject                   0x08002333   Thumb Code   486  app_json.o(.text)
    JSON_EventNoInfToObject                  0x08002519   Thumb Code    24  app_json.o(.text)
    JSON_EventWithInfToObject                0x08002531   Thumb Code    78  app_json.o(.text)
    JSON_NumberValToObject                   0x0800257f   Thumb Code    28  app_json.o(.text)
    JSON_StringValToObject                   0x0800259b   Thumb Code    28  app_json.o(.text)
    JSON_ExtractInit                         0x080025b7   Thumb Code     6  app_json.o(.text)
    JSON_Extract                             0x080025bd   Thumb Code   128  app_json.o(.text)
    JSON_IsObjectBegin                       0x0800263d   Thumb Code    40  app_json.o(.text)
    JSON_ArrayExtract                        0x08002665   Thumb Code   188  app_json.o(.text)
    JSON_AddrListExtract                     0x08002721   Thumb Code    70  app_json.o(.text)
    JSON_ExtractObjNode                      0x08002767   Thumb Code   310  app_json.o(.text)
    LedOnSet                                 0x080028fd   Thumb Code    42  app_led.o(.text)
    LedOffSet                                0x08002927   Thumb Code    16  app_led.o(.text)
    SysComLed                                0x08002937   Thumb Code   128  app_led.o(.text)
    Rs485ComLed                              0x08002a49   Thumb Code    46  app_led.o(.text)
    Led_Indicate_Init                        0x08002a77   Thumb Code    74  app_led.o(.text)
    crc8Cal                                  0x08002ad1   Thumb Code    26  app_para.o(.text)
    _flashWrite                              0x08002aeb   Thumb Code    80  app_para.o(.text)
    _flashRead                               0x08002b3b   Thumb Code    52  app_para.o(.text)
    DevParaDefault                           0x08002b6f   Thumb Code   282  app_para.o(.text)
    SysParaRead                              0x08002d95   Thumb Code   164  app_para.o(.text)
    DevParaWrite                             0x08002e39   Thumb Code   442  app_para.o(.text)
    ParaBackRead                             0x08002ff3   Thumb Code   150  app_para.o(.text)
    SysParaStorage                           0x08003089   Thumb Code   142  app_para.o(.text)
    SysVarInit                               0x08003117   Thumb Code    24  app_para.o(.text)
    FieldVarMaxLen                           0x0800312f   Thumb Code    32  app_para.o(.text)
    FieldValOffset                           0x0800314f   Thumb Code    22  app_para.o(.text)
    SpecAddrRead                             0x08003165   Thumb Code   212  app_para.o(.text)
    SysVarRead                               0x08003239   Thumb Code   574  app_para.o(.text)
    GetPltReadAddr                           0x0800349d   Thumb Code    98  app_plt.o(.text)
    GetMeterReadAddr                         0x080034ff   Thumb Code    28  app_plt.o(.text)
    GetMeter2ReadAddr                        0x0800351b   Thumb Code    28  app_plt.o(.text)
    GetPlt3SpecPara                          0x08003537   Thumb Code   148  app_plt.o(.text)
    GetPlt2SpecPara                          0x080035cb   Thumb Code   244  app_plt.o(.text)
    GetPlt1SpecPara                          0x080036bf   Thumb Code   226  app_plt.o(.text)
    GetPltAllPara                            0x080037a1   Thumb Code   374  app_plt.o(.text)
    Plt1SysVarRead                           0x08003917   Thumb Code    58  app_plt.o(.text)
    Plt3SysVarRead                           0x08003951   Thumb Code  1056  app_plt.o(.text)
    PltMam6080OtherVarRead                   0x08003d71   Thumb Code  1280  app_plt.o(.text)
    PltMam6080OtherDataPrase                 0x08004271   Thumb Code   846  app_plt.o(.text)
    Plt_Fault_Deal                           0x080045bf   Thumb Code   122  app_plt.o(.text)
    Plt_RunStata_Deal                        0x08004639   Thumb Code    94  app_plt.o(.text)
    Plt_PreAlarm_Deal                        0x08004697   Thumb Code     2  app_plt.o(.text)
    PltDevDataPrase                          0x08004699   Thumb Code  1780  app_plt.o(.text)
    Server_Writer_Data_Buf                   0x08004d8d   Thumb Code    78  app_plt.o(.text)
    PltSysVarWriter                          0x08004ddb   Thumb Code   228  app_plt.o(.text)
    XYMeterVarRead                           0x08004ebf   Thumb Code   402  app_plt.o(.text)
    PltDevMan860DataPrase                    0x08005051   Thumb Code   590  app_plt.o(.text)
    XYDevDataDeal                            0x0800529f   Thumb Code   272  app_plt.o(.text)
    Server_Writer_Data_SendBuf               0x080053af   Thumb Code    66  app_plt.o(.text)
    UsrCmdSet                                0x0800540d   Thumb Code    82  app_usrcmd.o(.text)
    UsrCmdQuery                              0x0800545f   Thumb Code   182  app_usrcmd.o(.text)
    DebugFtpTest                             0x08005515   Thumb Code    10  app_usrcmd.o(.text)
    UsrCmdCtrl                               0x0800551f   Thumb Code    48  app_usrcmd.o(.text)
    UsrCmdTest                               0x0800554f   Thumb Code    26  app_usrcmd.o(.text)
    UsrCmdDebug                              0x08005569   Thumb Code   114  app_usrcmd.o(.text)
    UsrCmdParse                              0x080055db   Thumb Code   284  app_usrcmd.o(.text)
    RS4850_ChgToSnd                          0x080058b9   Thumb Code    58  app_vfd.o(.text)
    RS4850_ChgToRcv                          0x080058f3   Thumb Code    26  app_vfd.o(.text)
    RS4851_ChgToSnd                          0x0800590d   Thumb Code    56  app_vfd.o(.text)
    RS4851_ChgToRcv                          0x08005945   Thumb Code    26  app_vfd.o(.text)
    RS4852_ChgToSnd                          0x0800595f   Thumb Code    58  app_vfd.o(.text)
    RS4852_ChgToRcv                          0x08005999   Thumb Code    26  app_vfd.o(.text)
    ModbusAddrInit                           0x080059b3   Thumb Code    34  app_vfd.o(.text)
    ModbusFunInit                            0x080059d5   Thumb Code     6  app_vfd.o(.text)
    ModbusOvTmInit                           0x080059db   Thumb Code     8  app_vfd.o(.text)
    ModbusRcvTimeOut                         0x080059e3   Thumb Code    46  app_vfd.o(.text)
    ModbusRcvFinish                          0x08005a11   Thumb Code    46  app_vfd.o(.text)
    IsModbusMaster                           0x08005a3f   Thumb Code     8  app_vfd.o(.text)
    ModbusUartIsr                            0x08005a47   Thumb Code    66  app_vfd.o(.text)
    ModbusSendNextChar                       0x08005a89   Thumb Code    68  app_vfd.o(.text)
    ModbusRcvCrcChk                          0x08005acd   Thumb Code    42  app_vfd.o(.text)
    VfdWriteRegPacket                        0x08005af7   Thumb Code    46  app_vfd.o(.text)
    VfdReadRegPacket                         0x08005b25   Thumb Code    46  app_vfd.o(.text)
    VfdWriteMoreRegPacket                    0x08005b53   Thumb Code    94  app_vfd.o(.text)
    VfdCtrlInit                              0x08005bb1   Thumb Code    26  app_vfd.o(.text)
    VfdWaitResp                              0x08005bcb   Thumb Code     8  app_vfd.o(.text)
    MeterWaitResp                            0x08005bd3   Thumb Code    10  app_vfd.o(.text)
    VfdClrTimeOut                            0x08005bdd   Thumb Code    14  app_vfd.o(.text)
    MeterClrTimeOut                          0x08005beb   Thumb Code    14  app_vfd.o(.text)
    Meter2ClrTimeOut                         0x08005bf9   Thumb Code    14  app_vfd.o(.text)
    ChgVfdAddr                               0x08005c07   Thumb Code     4  app_vfd.o(.text)
    SetMeterReadIndex                        0x08005c0b   Thumb Code    30  app_vfd.o(.text)
    ReadIndexChg                             0x08005c6b   Thumb Code   148  app_vfd.o(.text)
    ModbusDelay                              0x08005cff   Thumb Code    14  app_vfd.o(.text)
    ModbusStartSend                          0x08005d0d   Thumb Code    52  app_vfd.o(.text)
    Rs485ComOptResultAlarm                   0x08005d41   Thumb Code   152  app_vfd.o(.text)
    VfdWriteDataDebug                        0x08005dd9   Thumb Code     2  app_vfd.o(.text)
    SetRemoteOptResult                       0x08005ddb   Thumb Code    30  app_vfd.o(.text)
    VfdSetWhoUse                             0x08005df9   Thumb Code    48  app_vfd.o(.text)
    PltParaWrite                             0x08005e29   Thumb Code   454  app_vfd.o(.text)
    Task_VfdComm                             0x08005fef   Thumb Code   636  app_vfd.o(.text)
    Task_MeterComm                           0x0800626b   Thumb Code   374  app_vfd.o(.text)
    Task_Meter2Comm                          0x080063e1   Thumb Code   298  app_vfd.o(.text)
    Task_VfdDeal                             0x0800650b   Thumb Code   404  app_vfd.o(.text)
    Task_MeterDeal                           0x0800669f   Thumb Code   238  app_vfd.o(.text)
    DriveCan_sendData                        0x0800678d   Thumb Code    64  app_vfd.o(.text)
    Task_Meter2Deal                          0x080067cd   Thumb Code   266  app_vfd.o(.text)
    RS485ComInit                             0x080068d7   Thumb Code    44  app_vfd.o(.text)
    Task_VfdInit                             0x08006903   Thumb Code    64  app_vfd.o(.text)
    Task_MeterInit                           0x08006943   Thumb Code    58  app_vfd.o(.text)
    Task_Meter2Init                          0x0800697d   Thumb Code    54  app_vfd.o(.text)
    Vfd_Meter_Write_Data                     0x080069b3   Thumb Code    32  app_vfd.o(.text)
    CanBus_ISR_Rx                            0x080069d3   Thumb Code    34  app_vfd.o(.text)
    CharConvert                              0x08006a05   Thumb Code    14  comm.o(.text)
    stricmp                                  0x08006a13   Thumb Code    52  comm.o(.text)
    memicmp                                  0x08006a47   Thumb Code    66  comm.o(.text)
    StringiCmp                               0x08006a89   Thumb Code    44  comm.o(.text)
    IsNumber                                 0x08006ab5   Thumb Code    28  comm.o(.text)
    IsID                                     0x08006ad1   Thumb Code    42  comm.o(.text)
    IsIp                                     0x08006afb   Thumb Code    80  comm.o(.text)
    ASCIIToHex                               0x08006b4b   Thumb Code    42  comm.o(.text)
    StringToHex                              0x08006b75   Thumb Code   148  comm.o(.text)
    StrtokAfter                              0x08006c09   Thumb Code    60  comm.o(.text)
    StrtokBefore                             0x08006c45   Thumb Code    56  comm.o(.text)
    IsDigit                                  0x08006c7d   Thumb Code    14  comm.o(.text)
    CRC16_1                                  0x08006c8b   Thumb Code    38  comm.o(.text)
    WordToBuf                                0x08006cb1   Thumb Code    10  comm.o(.text)
    NetTwoByteToWord                         0x08006cbb   Thumb Code     6  comm.o(.text)
    DevTwoByteToWord                         0x08006cc1   Thumb Code     4  comm.o(.text)
    NetFourByteToDWord                       0x08006cc5   Thumb Code    14  comm.o(.text)
    DevFourByteToDWord                       0x08006cd3   Thumb Code    12  comm.o(.text)
    BufExchange                              0x08006cdf   Thumb Code    22  comm.o(.text)
    Hex2Float                                0x08006cf5   Thumb Code     4  comm.o(.text)
    DevFourByteToU16                         0x08006cf9   Thumb Code    68  comm.o(.text)
    DevEightByteToDWord                      0x08006d3d   Thumb Code    36  comm.o(.text)
    DWordToBuf                               0x08006d61   Thumb Code    18  comm.o(.text)
    my_atoi                                  0x08006d73   Thumb Code    62  comm.o(.text)
    my_atod                                  0x08006db1   Thumb Code   106  comm.o(.text)
    my_itoa                                  0x08006e1b   Thumb Code    58  comm.o(.text)
    my_atof                                  0x08006e55   Thumb Code   146  comm.o(.text)
    NMI_Handler                              0x08006efd   Thumb Code     2  stm32f10x_it.o(.text)
    HardFault_Handler                        0x08006eff   Thumb Code     2  stm32f10x_it.o(.text)
    MemManage_Handler                        0x08006f01   Thumb Code     2  stm32f10x_it.o(.text)
    BusFault_Handler                         0x08006f03   Thumb Code     2  stm32f10x_it.o(.text)
    UsageFault_Handler                       0x08006f05   Thumb Code     2  stm32f10x_it.o(.text)
    SVC_Handler                              0x08006f07   Thumb Code     2  stm32f10x_it.o(.text)
    DebugMon_Handler                         0x08006f09   Thumb Code     2  stm32f10x_it.o(.text)
    UartRcvTimeOut                           0x08006f0b   Thumb Code    38  stm32f10x_it.o(.text)
    SysTick_Handler                          0x08006f31   Thumb Code   134  stm32f10x_it.o(.text)
    USART1_IRQHandler                        0x08006fb7   Thumb Code   240  stm32f10x_it.o(.text)
    USART2_IRQHandler                        0x080070a7   Thumb Code   128  stm32f10x_it.o(.text)
    DMA1_Channel7_IRQHandler                 0x08007127   Thumb Code    48  stm32f10x_it.o(.text)
    USART3_IRQHandler                        0x08007157   Thumb Code   124  stm32f10x_it.o(.text)
    UART4_IRQHandler                         0x080071d3   Thumb Code   124  stm32f10x_it.o(.text)
    USB_LP_CAN1_RX0_IRQHandler               0x0800724f   Thumb Code    48  stm32f10x_it.o(.text)
    USB_HP_CAN_TX_IRQHandler                 0x0800727f   Thumb Code    14  stm32f10x_it.o(.text)
    CAN_RX1_IRQHandler                       0x0800728d   Thumb Code    24  stm32f10x_it.o(.text)
    dtuCfgDataCheck                          0x080072f9   Thumb Code    46  app_dtucfg.o(.text)
    dtuCfgDataCrc                            0x08007327   Thumb Code    28  app_dtucfg.o(.text)
    dtuConfigResp                            0x08007343   Thumb Code   104  app_dtucfg.o(.text)
    BigEndConvert                            0x080073ab   Thumb Code    32  app_dtucfg.o(.text)
    dtuFactoryConfig                         0x080073cb   Thumb Code   874  app_dtucfg.o(.text)
    LeapYear                                 0x08007759   Thumb Code    44  app_rtc.o(.text)
    YearDay                                  0x08007785   Thumb Code    62  app_rtc.o(.text)
    ConverseTimeNum                          0x080077c3   Thumb Code   106  app_rtc.o(.text)
    ServerTimeSet                            0x0800782d   Thumb Code   224  app_rtc.o(.text)
    RTC_GmtToBjTime                          0x0800790d   Thumb Code   132  app_rtc.o(.text)
    GprsReadNetTime                          0x08007991   Thumb Code   202  app_rtc.o(.text)
    SysTime_Updata                           0x08007a5b   Thumb Code    32  app_rtc.o(.text)
    SysTime_Get                              0x08007a7b   Thumb Code     6  app_rtc.o(.text)
    SysTime_Delay                            0x08007a81   Thumb Code    14  app_rtc.o(.text)
    SysTime_Fresh                            0x08007a8f   Thumb Code    12  app_rtc.o(.text)
    GetRtctime                               0x08007a9b   Thumb Code   290  app_rtc.o(.text)
    RegTimerInit                             0x08007bbd   Thumb Code    16  app_multfun.o(.text)
    RegTimerStop                             0x08007bcd   Thumb Code    14  app_multfun.o(.text)
    RegTimerErrCode                          0x08007bdb   Thumb Code    52  app_multfun.o(.text)
    RegTimerRun                              0x08007c0f   Thumb Code    84  app_multfun.o(.text)
    rst_data_process                         0x08007c63   Thumb Code    78  app_multfun.o(.text)
    MultFunInit                              0x08007cb1   Thumb Code    94  app_multfun.o(.text)
    Task_MultFun_1s                          0x08007d0f   Thumb Code   210  app_multfun.o(.text)
    UpdateFileCrcCheck                       0x08007e41   Thumb Code   122  app_upgrade.o(.text)
    SysAppInfUpdate                          0x08007ebb   Thumb Code    44  app_upgrade.o(.text)
    UpgradeSectorErase                       0x08007ee7   Thumb Code    56  app_upgrade.o(.text)
    FtpDataGetFlag                           0x08007f1f   Thumb Code    26  app_upgrade.o(.text)
    ModelIsFtping                            0x08007f39   Thumb Code    10  app_upgrade.o(.text)
    FTPConnectRequestSet                     0x08007f43   Thumb Code    12  app_upgrade.o(.text)
    FtpTimeDelay                             0x08007f4f   Thumb Code    14  app_upgrade.o(.text)
    UpdateFileGet                            0x08007f5d   Thumb Code    58  app_upgrade.o(.text)
    UpdateFileWrite                          0x08007f97   Thumb Code   100  app_upgrade.o(.text)
    UpgradeFlagSet                           0x08007ffb   Thumb Code    26  app_upgrade.o(.text)
    RebootRequest                            0x08008015   Thumb Code    10  app_upgrade.o(.text)
    GetRebootFlag                            0x0800801f   Thumb Code     8  app_upgrade.o(.text)
    UpgradeTask                              0x08008027   Thumb Code   172  app_upgrade.o(.text)
    FtpInfoInit                              0x080080d3   Thumb Code   124  app_upgrade.o(.text)
    UpgradeVersionInit                       0x0800814f   Thumb Code   158  app_upgrade.o(.text)
    UpgradeSizeInit                          0x080081ed   Thumb Code    14  app_upgrade.o(.text)
    UpgradeServerInit                        0x080081fb   Thumb Code    46  app_upgrade.o(.text)
    UpgradeUsrInit                           0x08008229   Thumb Code   326  app_upgrade.o(.text)
    ATRespDataPost                           0x08008375   Thumb Code     2  gc65.o(.text)
    GprsRcvDataPost                          0x080083a7   Thumb Code     2  gc65.o(.text)
    GprsSndDataPost                          0x080083a9   Thumb Code    12  gc65.o(.text)
    GprsSndDataAccept                        0x080083b5   Thumb Code    24  gc65.o(.text)
    GprsSndDataFlush                         0x080083cd   Thumb Code     8  gc65.o(.text)
    SendGprsCondition                        0x080083d5   Thumb Code    28  gc65.o(.text)
    gprsIsConnect                            0x080083f1   Thumb Code    10  gc65.o(.text)
    SendIPDATA                               0x080083fb   Thumb Code    32  gc65.o(.text)
    SendATCondition                          0x0800841b   Thumb Code   136  gc65.o(.text)
    GprsParaInit                             0x080084a3   Thumb Code    36  gc65.o(.text)
    GprsAppInit                              0x080084c7   Thumb Code    62  gc65.o(.text)
    QDataValid                               0x08008505   Thumb Code     4  gc65.o(.text)
    QDataRead                                0x08008509   Thumb Code     4  gc65.o(.text)
    RemoveBlackatoi                          0x0800850d   Thumb Code     6  gc65.o(.text)
    GprsUartIsr                              0x08008513   Thumb Code   376  gc65.o(.text)
    ATstrToInt32U                            0x0800868b   Thumb Code    48  gc65.o(.text)
    GprsReAPN                                0x080086bb   Thumb Code    26  gc65.o(.text)
    GprsReConnect                            0x080086d5   Thumb Code    22  gc65.o(.text)
    GprsReadQeng                             0x080086eb   Thumb Code   350  gc65.o(.text)
    ATCmdParse                               0x08008849   Thumb Code  2534  gc65.o(.text)
    ATCmdSetAPN                              0x0800922f   Thumb Code    32  gc65.o(.text)
    InsertTo                                 0x0800924f   Thumb Code    38  gc65.o(.text)
    ReturnToInserStage                       0x08009275   Thumb Code    26  gc65.o(.text)
    SetReset                                 0x0800928f   Thumb Code     2  gc65.o(.text)
    DelayReConnect                           0x08009291   Thumb Code    24  gc65.o(.text)
    DelayRePPP                               0x080092a9   Thumb Code    24  gc65.o(.text)
    HaveDataSend                             0x080092c1   Thumb Code   146  gc65.o(.text)
    GC65Timer                                0x08009353   Thumb Code    58  gc65.o(.text)
    TaskGC65                                 0x0800938d   Thumb Code  5048  gc65.o(.text)
    GetMultLoc                               0x0800a745   Thumb Code    80  gc65.o(.text)
    GprsUartCmd                              0x0800a7d1   Thumb Code    10  gc65_bsp.o(.text)
    GprsUART_SetDMAReceive                   0x0800a7db   Thumb Code    72  gc65_bsp.o(.text)
    GPRSUartDMAInit                          0x0800a823   Thumb Code   124  gc65_bsp.o(.text)
    GprsUartDMAReceive                       0x0800a89f   Thumb Code    22  gc65_bsp.o(.text)
    GetGprsUartDMABuf                        0x0800a8b5   Thumb Code     6  gc65_bsp.o(.text)
    DMA1_Channel6_IRQHandler                 0x0800a8bb   Thumb Code    56  gc65_bsp.o(.text)
    GprsDMAReceiveDisable                    0x0800a8f3   Thumb Code    48  gc65_bsp.o(.text)
    UartSendData                             0x0800a939   Thumb Code   212  uart.o(.text)
    UartIntSendData                          0x0800aa0d   Thumb Code    34  uart.o(.text)
    UartFirstChar                            0x0800aa2f   Thumb Code    28  uart.o(.text)
    UartTimerOver                            0x0800aa4b   Thumb Code    40  uart.o(.text)
    pipeCreate                               0x0800aa8d   Thumb Code   122  pipe.o(.text)
    pipeDataWrite                            0x0800ab07   Thumb Code   112  pipe.o(.text)
    pipeDataRead                             0x0800ab77   Thumb Code    96  pipe.o(.text)
    pipeFlush                                0x0800abd7   Thumb Code    24  pipe.o(.text)
    PipeDataValid                            0x0800abef   Thumb Code    14  pipe.o(.text)
    NVIC_PriorityGroupConfig                 0x0800abfd   Thumb Code    10  misc.o(.text)
    NVIC_Init                                0x0800ac07   Thumb Code    94  misc.o(.text)
    NVIC_SetVectorTable                      0x0800ac65   Thumb Code    14  misc.o(.text)
    NVIC_SystemLPConfig                      0x0800ac73   Thumb Code    20  misc.o(.text)
    SysTick_CLKSourceConfig                  0x0800ac87   Thumb Code    24  misc.o(.text)
    DMA_DeInit                               0x0800acad   Thumb Code   218  stm32f10x_dma.o(.text)
    DMA_Init                                 0x0800ad87   Thumb Code    58  stm32f10x_dma.o(.text)
    DMA_StructInit                           0x0800adc1   Thumb Code    26  stm32f10x_dma.o(.text)
    DMA_Cmd                                  0x0800addb   Thumb Code    22  stm32f10x_dma.o(.text)
    DMA_ITConfig                             0x0800adf1   Thumb Code    16  stm32f10x_dma.o(.text)
    DMA_SetCurrDataCounter                   0x0800ae01   Thumb Code     4  stm32f10x_dma.o(.text)
    DMA_GetCurrDataCounter                   0x0800ae05   Thumb Code     6  stm32f10x_dma.o(.text)
    DMA_GetFlagStatus                        0x0800ae0b   Thumb Code    28  stm32f10x_dma.o(.text)
    DMA_ClearFlag                            0x0800ae27   Thumb Code    20  stm32f10x_dma.o(.text)
    DMA_GetITStatus                          0x0800ae3b   Thumb Code    28  stm32f10x_dma.o(.text)
    DMA_ClearITPendingBit                    0x0800ae57   Thumb Code    20  stm32f10x_dma.o(.text)
    FLASH_SetLatency                         0x0800ae75   Thumb Code    14  stm32f10x_flash.o(.text)
    FLASH_HalfCycleAccessCmd                 0x0800ae83   Thumb Code    18  stm32f10x_flash.o(.text)
    FLASH_PrefetchBufferCmd                  0x0800ae95   Thumb Code    18  stm32f10x_flash.o(.text)
    FLASH_Unlock                             0x0800aea7   Thumb Code    12  stm32f10x_flash.o(.text)
    FLASH_UnlockBank1                        0x0800aeb3   Thumb Code    12  stm32f10x_flash.o(.text)
    FLASH_Lock                               0x0800aebf   Thumb Code    12  stm32f10x_flash.o(.text)
    FLASH_LockBank1                          0x0800aecb   Thumb Code    12  stm32f10x_flash.o(.text)
    FLASH_GetBank1Status                     0x0800aed7   Thumb Code    34  stm32f10x_flash.o(.text)
    FLASH_WaitForLastOperation               0x0800aef9   Thumb Code    34  stm32f10x_flash.o(.text)
    FLASH_ErasePage                          0x0800af1b   Thumb Code    56  stm32f10x_flash.o(.text)
    FLASH_EraseAllPages                      0x0800af53   Thumb Code    52  stm32f10x_flash.o(.text)
    FLASH_WaitForLastBank1Operation          0x0800af87   Thumb Code    34  stm32f10x_flash.o(.text)
    FLASH_EraseAllBank1Pages                 0x0800afa9   Thumb Code    52  stm32f10x_flash.o(.text)
    FLASH_GetReadOutProtectionStatus         0x0800afdd   Thumb Code    14  stm32f10x_flash.o(.text)
    FLASH_EraseOptionBytes                   0x0800afeb   Thumb Code   108  stm32f10x_flash.o(.text)
    FLASH_ProgramWord                        0x0800b057   Thumb Code    72  stm32f10x_flash.o(.text)
    FLASH_ProgramHalfWord                    0x0800b09f   Thumb Code    48  stm32f10x_flash.o(.text)
    FLASH_ProgramOptionByteData              0x0800b0cf   Thumb Code    62  stm32f10x_flash.o(.text)
    FLASH_EnableWriteProtection              0x0800b10d   Thumb Code   158  stm32f10x_flash.o(.text)
    FLASH_ReadOutProtection                  0x0800b1ab   Thumb Code   118  stm32f10x_flash.o(.text)
    FLASH_UserOptionByteConfig               0x0800b221   Thumb Code    92  stm32f10x_flash.o(.text)
    FLASH_GetUserOptionByte                  0x0800b27d   Thumb Code     8  stm32f10x_flash.o(.text)
    FLASH_GetWriteProtectionOptionByte       0x0800b285   Thumb Code     6  stm32f10x_flash.o(.text)
    FLASH_GetPrefetchBufferStatus            0x0800b28b   Thumb Code    14  stm32f10x_flash.o(.text)
    FLASH_ITConfig                           0x0800b299   Thumb Code    18  stm32f10x_flash.o(.text)
    FLASH_GetFlagStatus                      0x0800b2ab   Thumb Code    28  stm32f10x_flash.o(.text)
    FLASH_ClearFlag                          0x0800b2c7   Thumb Code     6  stm32f10x_flash.o(.text)
    FLASH_GetStatus                          0x0800b2cd   Thumb Code    34  stm32f10x_flash.o(.text)
    GPIO_DeInit                              0x0800b2f5   Thumb Code   152  stm32f10x_gpio.o(.text)
    GPIO_AFIODeInit                          0x0800b38d   Thumb Code    22  stm32f10x_gpio.o(.text)
    GPIO_Init                                0x0800b3a3   Thumb Code   156  stm32f10x_gpio.o(.text)
    GPIO_StructInit                          0x0800b43f   Thumb Code    16  stm32f10x_gpio.o(.text)
    GPIO_ReadInputDataBit                    0x0800b44f   Thumb Code    14  stm32f10x_gpio.o(.text)
    GPIO_ReadInputData                       0x0800b45d   Thumb Code     6  stm32f10x_gpio.o(.text)
    GPIO_ReadOutputDataBit                   0x0800b463   Thumb Code    14  stm32f10x_gpio.o(.text)
    GPIO_ReadOutputData                      0x0800b471   Thumb Code     6  stm32f10x_gpio.o(.text)
    GPIO_SetBits                             0x0800b477   Thumb Code     4  stm32f10x_gpio.o(.text)
    GPIO_ResetBits                           0x0800b47b   Thumb Code     4  stm32f10x_gpio.o(.text)
    GPIO_WriteBit                            0x0800b47f   Thumb Code    10  stm32f10x_gpio.o(.text)
    GPIO_Write                               0x0800b489   Thumb Code     4  stm32f10x_gpio.o(.text)
    GPIO_PinLockConfig                       0x0800b48d   Thumb Code    16  stm32f10x_gpio.o(.text)
    GPIO_EventOutputConfig                   0x0800b49d   Thumb Code    22  stm32f10x_gpio.o(.text)
    GPIO_EventOutputCmd                      0x0800b4b3   Thumb Code     6  stm32f10x_gpio.o(.text)
    GPIO_PinRemapConfig                      0x0800b4b9   Thumb Code    82  stm32f10x_gpio.o(.text)
    GPIO_EXTILineConfig                      0x0800b50b   Thumb Code    34  stm32f10x_gpio.o(.text)
    GPIO_ETH_MediaInterfaceConfig            0x0800b52d   Thumb Code     8  stm32f10x_gpio.o(.text)
    IWDG_WriteAccessCmd                      0x0800b559   Thumb Code     6  stm32f10x_iwdg.o(.text)
    IWDG_SetPrescaler                        0x0800b55f   Thumb Code     6  stm32f10x_iwdg.o(.text)
    IWDG_SetReload                           0x0800b565   Thumb Code     6  stm32f10x_iwdg.o(.text)
    IWDG_ReloadCounter                       0x0800b56b   Thumb Code    10  stm32f10x_iwdg.o(.text)
    IWDG_Enable                              0x0800b575   Thumb Code    10  stm32f10x_iwdg.o(.text)
    IWDG_GetFlagStatus                       0x0800b57f   Thumb Code    16  stm32f10x_iwdg.o(.text)
    RCC_DeInit                               0x0800b595   Thumb Code    50  stm32f10x_rcc.o(.text)
    RCC_HSEConfig                            0x0800b5c7   Thumb Code    48  stm32f10x_rcc.o(.text)
    RCC_GetFlagStatus                        0x0800b5f7   Thumb Code    42  stm32f10x_rcc.o(.text)
    RCC_WaitForHSEStartUp                    0x0800b621   Thumb Code    44  stm32f10x_rcc.o(.text)
    RCC_AdjustHSICalibrationValue            0x0800b64d   Thumb Code    16  stm32f10x_rcc.o(.text)
    RCC_HSICmd                               0x0800b65d   Thumb Code     6  stm32f10x_rcc.o(.text)
    RCC_PLLConfig                            0x0800b663   Thumb Code    16  stm32f10x_rcc.o(.text)
    RCC_PLLCmd                               0x0800b673   Thumb Code     6  stm32f10x_rcc.o(.text)
    RCC_SYSCLKConfig                         0x0800b679   Thumb Code    14  stm32f10x_rcc.o(.text)
    RCC_GetSYSCLKSource                      0x0800b687   Thumb Code    10  stm32f10x_rcc.o(.text)
    RCC_HCLKConfig                           0x0800b691   Thumb Code    14  stm32f10x_rcc.o(.text)
    RCC_PCLK1Config                          0x0800b69f   Thumb Code    14  stm32f10x_rcc.o(.text)
    RCC_PCLK2Config                          0x0800b6ad   Thumb Code    16  stm32f10x_rcc.o(.text)
    RCC_ITConfig                             0x0800b6bd   Thumb Code    18  stm32f10x_rcc.o(.text)
    RCC_USBCLKConfig                         0x0800b6cf   Thumb Code     8  stm32f10x_rcc.o(.text)
    RCC_ADCCLKConfig                         0x0800b6d7   Thumb Code    14  stm32f10x_rcc.o(.text)
    RCC_LSEConfig                            0x0800b6e5   Thumb Code    28  stm32f10x_rcc.o(.text)
    RCC_LSICmd                               0x0800b701   Thumb Code     6  stm32f10x_rcc.o(.text)
    RCC_RTCCLKConfig                         0x0800b707   Thumb Code    10  stm32f10x_rcc.o(.text)
    RCC_RTCCLKCmd                            0x0800b711   Thumb Code     8  stm32f10x_rcc.o(.text)
    RCC_GetClocksFreq                        0x0800b719   Thumb Code   132  stm32f10x_rcc.o(.text)
    RCC_AHBPeriphClockCmd                    0x0800b79d   Thumb Code    18  stm32f10x_rcc.o(.text)
    RCC_APB2PeriphClockCmd                   0x0800b7af   Thumb Code    18  stm32f10x_rcc.o(.text)
    RCC_APB1PeriphClockCmd                   0x0800b7c1   Thumb Code    18  stm32f10x_rcc.o(.text)
    RCC_APB2PeriphResetCmd                   0x0800b7d3   Thumb Code    18  stm32f10x_rcc.o(.text)
    RCC_APB1PeriphResetCmd                   0x0800b7e5   Thumb Code    18  stm32f10x_rcc.o(.text)
    RCC_BackupResetCmd                       0x0800b7f7   Thumb Code     8  stm32f10x_rcc.o(.text)
    RCC_ClockSecuritySystemCmd               0x0800b7ff   Thumb Code     6  stm32f10x_rcc.o(.text)
    RCC_MCOConfig                            0x0800b805   Thumb Code     6  stm32f10x_rcc.o(.text)
    RCC_ClearFlag                            0x0800b80b   Thumb Code    12  stm32f10x_rcc.o(.text)
    RCC_GetITStatus                          0x0800b817   Thumb Code    16  stm32f10x_rcc.o(.text)
    RCC_ClearITPendingBit                    0x0800b827   Thumb Code     6  stm32f10x_rcc.o(.text)
    USART_DeInit                             0x0800b84d   Thumb Code    96  stm32f10x_usart.o(.text)
    USART_Init                               0x0800b8ad   Thumb Code   166  stm32f10x_usart.o(.text)
    USART_StructInit                         0x0800b953   Thumb Code    22  stm32f10x_usart.o(.text)
    USART_ClockInit                          0x0800b969   Thumb Code    30  stm32f10x_usart.o(.text)
    USART_ClockStructInit                    0x0800b987   Thumb Code    12  stm32f10x_usart.o(.text)
    USART_Cmd                                0x0800b993   Thumb Code    20  stm32f10x_usart.o(.text)
    USART_ITConfig                           0x0800b9a7   Thumb Code    48  stm32f10x_usart.o(.text)
    USART_DMACmd                             0x0800b9d7   Thumb Code    16  stm32f10x_usart.o(.text)
    USART_SetAddress                         0x0800b9e7   Thumb Code    16  stm32f10x_usart.o(.text)
    USART_WakeUpConfig                       0x0800b9f7   Thumb Code    16  stm32f10x_usart.o(.text)
    USART_ReceiverWakeUpCmd                  0x0800ba07   Thumb Code    20  stm32f10x_usart.o(.text)
    USART_LINBreakDetectLengthConfig         0x0800ba1b   Thumb Code    16  stm32f10x_usart.o(.text)
    USART_LINCmd                             0x0800ba2b   Thumb Code    20  stm32f10x_usart.o(.text)
    USART_SendData                           0x0800ba3f   Thumb Code     8  stm32f10x_usart.o(.text)
    USART_ReceiveData                        0x0800ba47   Thumb Code     8  stm32f10x_usart.o(.text)
    USART_SendBreak                          0x0800ba4f   Thumb Code    10  stm32f10x_usart.o(.text)
    USART_SetGuardTime                       0x0800ba59   Thumb Code    16  stm32f10x_usart.o(.text)
    USART_SetPrescaler                       0x0800ba69   Thumb Code    16  stm32f10x_usart.o(.text)
    USART_SmartCardCmd                       0x0800ba79   Thumb Code    20  stm32f10x_usart.o(.text)
    USART_SmartCardNACKCmd                   0x0800ba8d   Thumb Code    20  stm32f10x_usart.o(.text)
    USART_HalfDuplexCmd                      0x0800baa1   Thumb Code    20  stm32f10x_usart.o(.text)
    USART_OverSampling8Cmd                   0x0800bab5   Thumb Code    20  stm32f10x_usart.o(.text)
    USART_OneBitMethodCmd                    0x0800bac9   Thumb Code    20  stm32f10x_usart.o(.text)
    USART_IrDAConfig                         0x0800badd   Thumb Code    16  stm32f10x_usart.o(.text)
    USART_IrDACmd                            0x0800baed   Thumb Code    20  stm32f10x_usart.o(.text)
    USART_GetFlagStatus                      0x0800bb01   Thumb Code    14  stm32f10x_usart.o(.text)
    USART_ClearFlag                          0x0800bb0f   Thumb Code     6  stm32f10x_usart.o(.text)
    USART_GetITStatus                        0x0800bb15   Thumb Code    62  stm32f10x_usart.o(.text)
    USART_ClearITPendingBit                  0x0800bb53   Thumb Code    12  stm32f10x_usart.o(.text)
    SPI_I2S_DeInit                           0x0800bb75   Thumb Code    72  stm32f10x_spi.o(.text)
    SPI_Init                                 0x0800bbbd   Thumb Code    56  stm32f10x_spi.o(.text)
    I2S_Init                                 0x0800bbf5   Thumb Code   150  stm32f10x_spi.o(.text)
    SPI_StructInit                           0x0800bc8b   Thumb Code    24  stm32f10x_spi.o(.text)
    I2S_StructInit                           0x0800bca3   Thumb Code    18  stm32f10x_spi.o(.text)
    SPI_Cmd                                  0x0800bcb5   Thumb Code    20  stm32f10x_spi.o(.text)
    I2S_Cmd                                  0x0800bcc9   Thumb Code    20  stm32f10x_spi.o(.text)
    SPI_I2S_ITConfig                         0x0800bcdd   Thumb Code    24  stm32f10x_spi.o(.text)
    SPI_I2S_DMACmd                           0x0800bcf5   Thumb Code    16  stm32f10x_spi.o(.text)
    SPI_I2S_SendData                         0x0800bd05   Thumb Code     4  stm32f10x_spi.o(.text)
    SPI_I2S_ReceiveData                      0x0800bd09   Thumb Code     4  stm32f10x_spi.o(.text)
    SPI_NSSInternalSoftwareConfig            0x0800bd0d   Thumb Code    24  stm32f10x_spi.o(.text)
    SPI_SSOutputCmd                          0x0800bd25   Thumb Code    20  stm32f10x_spi.o(.text)
    SPI_DataSizeConfig                       0x0800bd39   Thumb Code    16  stm32f10x_spi.o(.text)
    SPI_TransmitCRC                          0x0800bd49   Thumb Code    10  stm32f10x_spi.o(.text)
    SPI_CalculateCRC                         0x0800bd53   Thumb Code    20  stm32f10x_spi.o(.text)
    SPI_GetCRC                               0x0800bd67   Thumb Code    12  stm32f10x_spi.o(.text)
    SPI_GetCRCPolynomial                     0x0800bd73   Thumb Code     4  stm32f10x_spi.o(.text)
    SPI_BiDirectionalLineConfig              0x0800bd77   Thumb Code    22  stm32f10x_spi.o(.text)
    SPI_I2S_GetFlagStatus                    0x0800bd8d   Thumb Code    14  stm32f10x_spi.o(.text)
    SPI_I2S_ClearFlag                        0x0800bd9b   Thumb Code     6  stm32f10x_spi.o(.text)
    SPI_I2S_GetITStatus                      0x0800bda1   Thumb Code    44  stm32f10x_spi.o(.text)
    SPI_I2S_ClearITPendingBit                0x0800bdcd   Thumb Code    14  stm32f10x_spi.o(.text)
    CAN_DeInit                               0x0800bde9   Thumb Code    38  stm32f10x_can.o(.text)
    CAN_Init                                 0x0800be0f   Thumb Code   232  stm32f10x_can.o(.text)
    CAN_FilterInit                           0x0800bef7   Thumb Code   194  stm32f10x_can.o(.text)
    CAN_StructInit                           0x0800bfb9   Thumb Code    32  stm32f10x_can.o(.text)
    CAN_SlaveStartBank                       0x0800bfd9   Thumb Code    38  stm32f10x_can.o(.text)
    CAN_DBGFreeze                            0x0800bfff   Thumb Code    20  stm32f10x_can.o(.text)
    CAN_TTComModeCmd                         0x0800c013   Thumb Code    90  stm32f10x_can.o(.text)
    CAN_Transmit                             0x0800c06d   Thumb Code   164  stm32f10x_can.o(.text)
    CAN_TransmitStatus                       0x0800c111   Thumb Code    88  stm32f10x_can.o(.text)
    CAN_CancelTransmit                       0x0800c169   Thumb Code    36  stm32f10x_can.o(.text)
    CAN_Receive                              0x0800c18d   Thumb Code   178  stm32f10x_can.o(.text)
    CAN_FIFORelease                          0x0800c23f   Thumb Code    22  stm32f10x_can.o(.text)
    CAN_MessagePending                       0x0800c255   Thumb Code    22  stm32f10x_can.o(.text)
    CAN_OperatingModeRequest                 0x0800c26b   Thumb Code   140  stm32f10x_can.o(.text)
    CAN_Sleep                                0x0800c2f7   Thumb Code    30  stm32f10x_can.o(.text)
    CAN_WakeUp                               0x0800c315   Thumb Code    40  stm32f10x_can.o(.text)
    CAN_GetLastErrorCode                     0x0800c33d   Thumb Code    10  stm32f10x_can.o(.text)
    CAN_GetReceiveErrorCounter               0x0800c347   Thumb Code     6  stm32f10x_can.o(.text)
    CAN_GetLSBTransmitErrorCounter           0x0800c34d   Thumb Code     8  stm32f10x_can.o(.text)
    CAN_ITConfig                             0x0800c355   Thumb Code    16  stm32f10x_can.o(.text)
    CAN_GetFlagStatus                        0x0800c365   Thumb Code    52  stm32f10x_can.o(.text)
    CAN_ClearFlag                            0x0800c399   Thumb Code    44  stm32f10x_can.o(.text)
    CAN_GetITStatus                          0x0800c3c5   Thumb Code   162  stm32f10x_can.o(.text)
    CAN_ClearITPendingBit                    0x0800c467   Thumb Code   116  stm32f10x_can.o(.text)
    FlashSelect                              0x0800c4f1   Thumb Code    20  spiflashhal.o(.text)
    FlashHalInit                             0x0800c505   Thumb Code   188  spiflashhal.o(.text)
    FlashSPISend                             0x0800c5c1   Thumb Code    48  spiflashhal.o(.text)
    FlashLockCreate                          0x0800c601   Thumb Code     2  spiflashusr.o(.text)
    FlashLockPend                            0x0800c603   Thumb Code     2  spiflashusr.o(.text)
    FlashLockPost                            0x0800c605   Thumb Code     2  spiflashusr.o(.text)
    GB_GetMsgHead                            0x0800c609   Thumb Code    86  app_protocol.o(.text)
    Packet                                   0x0800c65f   Thumb Code    78  app_protocol.o(.text)
    GB_GetAckMsgHead                         0x0800c6ad   Thumb Code    74  app_protocol.o(.text)
    AckPacket                                0x0800c6f7   Thumb Code    76  app_protocol.o(.text)
    JSON_RtcTimeGet                          0x0800c743   Thumb Code   242  app_protocol.o(.text)
    GB_GeneralAck                            0x0800c835   Thumb Code   122  app_protocol.o(.text)
    ServerDataGetRespond                     0x0800c93d   Thumb Code   474  app_protocol.o(.text)
    isGprsCon                                0x0800cb17   Thumb Code    10  app_protocol.o(.text)
    SetParaSaveFlag                          0x0800cb21   Thumb Code    44  app_protocol.o(.text)
    ServerParaSet                            0x0800cb4d   Thumb Code   446  app_protocol.o(.text)
    RebootDelay                              0x0800cd0b   Thumb Code    18  app_protocol.o(.text)
    ServerCmd_Head_Deal                      0x0800cd1d   Thumb Code   124  app_protocol.o(.text)
    ServerCmdDeal                            0x0800cd99   Thumb Code  1166  app_protocol.o(.text)
    GPRSDataDeal                             0x0800d227   Thumb Code   512  app_protocol.o(.text)
    GetRegister                              0x0800d427   Thumb Code    76  app_protocol.o(.text)
    GetEventInfo                             0x0800d473   Thumb Code  3076  app_protocol.o(.text)
    GetHeartData                             0x0800e077   Thumb Code   100  app_protocol.o(.text)
    GetVfdOptInfo                            0x0800e0db   Thumb Code   100  app_protocol.o(.text)
    GetUpdateData                            0x0800e3d9   Thumb Code    70  app_protocol.o(.text)
    ProSendInit                              0x0800e41f   Thumb Code    32  app_protocol.o(.text)
    GetRsp                                   0x0800e43f   Thumb Code    40  app_protocol.o(.text)
    WaitRsp                                  0x0800e467   Thumb Code    44  app_protocol.o(.text)
    GetAckVaule                              0x0800e493   Thumb Code     6  app_protocol.o(.text)
    ProDataSend                              0x0800e499   Thumb Code   270  app_protocol.o(.text)
    ClearHeartTimer                          0x0800e5a7   Thumb Code     8  app_protocol.o(.text)
    Task_ProSend                             0x0800e5af   Thumb Code  1060  app_protocol.o(.text)
    DevStatToSystem                          0x0800e9d3   Thumb Code   116  app_protocol.o(.text)
    Task_ProDeal                             0x0800ea47   Thumb Code    72  app_protocol.o(.text)
    IsReg                                    0x0800ea8f   Thumb Code    12  app_protocol.o(.text)
    Reset_Handler                            0x0800eb19   Thumb Code     8  startup_stm32f10x_hd.o(.text)
    PendSV_Handler                           0x0800eb2f   Thumb Code     2  startup_stm32f10x_hd.o(.text)
    ADC1_2_IRQHandler                        0x0800eb33   Thumb Code     0  startup_stm32f10x_hd.o(.text)
    ADC3_IRQHandler                          0x0800eb33   Thumb Code     0  startup_stm32f10x_hd.o(.text)
    CAN1_RX1_IRQHandler                      0x0800eb33   Thumb Code     0  startup_stm32f10x_hd.o(.text)
    CAN1_SCE_IRQHandler                      0x0800eb33   Thumb Code     0  startup_stm32f10x_hd.o(.text)
    DMA1_Channel1_IRQHandler                 0x0800eb33   Thumb Code     0  startup_stm32f10x_hd.o(.text)
    DMA1_Channel2_IRQHandler                 0x0800eb33   Thumb Code     0  startup_stm32f10x_hd.o(.text)
    DMA1_Channel3_IRQHandler                 0x0800eb33   Thumb Code     0  startup_stm32f10x_hd.o(.text)
    DMA1_Channel4_IRQHandler                 0x0800eb33   Thumb Code     0  startup_stm32f10x_hd.o(.text)
    DMA1_Channel5_IRQHandler                 0x0800eb33   Thumb Code     0  startup_stm32f10x_hd.o(.text)
    DMA2_Channel1_IRQHandler                 0x0800eb33   Thumb Code     0  startup_stm32f10x_hd.o(.text)
    DMA2_Channel2_IRQHandler                 0x0800eb33   Thumb Code     0  startup_stm32f10x_hd.o(.text)
    DMA2_Channel3_IRQHandler                 0x0800eb33   Thumb Code     0  startup_stm32f10x_hd.o(.text)
    DMA2_Channel4_5_IRQHandler               0x0800eb33   Thumb Code     0  startup_stm32f10x_hd.o(.text)
    EXTI0_IRQHandler                         0x0800eb33   Thumb Code     0  startup_stm32f10x_hd.o(.text)
    EXTI15_10_IRQHandler                     0x0800eb33   Thumb Code     0  startup_stm32f10x_hd.o(.text)
    EXTI1_IRQHandler                         0x0800eb33   Thumb Code     0  startup_stm32f10x_hd.o(.text)
    EXTI2_IRQHandler                         0x0800eb33   Thumb Code     0  startup_stm32f10x_hd.o(.text)
    EXTI3_IRQHandler                         0x0800eb33   Thumb Code     0  startup_stm32f10x_hd.o(.text)
    EXTI4_IRQHandler                         0x0800eb33   Thumb Code     0  startup_stm32f10x_hd.o(.text)
    EXTI9_5_IRQHandler                       0x0800eb33   Thumb Code     0  startup_stm32f10x_hd.o(.text)
    FLASH_IRQHandler                         0x0800eb33   Thumb Code     0  startup_stm32f10x_hd.o(.text)
    FSMC_IRQHandler                          0x0800eb33   Thumb Code     0  startup_stm32f10x_hd.o(.text)
    I2C1_ER_IRQHandler                       0x0800eb33   Thumb Code     0  startup_stm32f10x_hd.o(.text)
    I2C1_EV_IRQHandler                       0x0800eb33   Thumb Code     0  startup_stm32f10x_hd.o(.text)
    I2C2_ER_IRQHandler                       0x0800eb33   Thumb Code     0  startup_stm32f10x_hd.o(.text)
    I2C2_EV_IRQHandler                       0x0800eb33   Thumb Code     0  startup_stm32f10x_hd.o(.text)
    PVD_IRQHandler                           0x0800eb33   Thumb Code     0  startup_stm32f10x_hd.o(.text)
    RCC_IRQHandler                           0x0800eb33   Thumb Code     0  startup_stm32f10x_hd.o(.text)
    RTCAlarm_IRQHandler                      0x0800eb33   Thumb Code     0  startup_stm32f10x_hd.o(.text)
    RTC_IRQHandler                           0x0800eb33   Thumb Code     0  startup_stm32f10x_hd.o(.text)
    SDIO_IRQHandler                          0x0800eb33   Thumb Code     0  startup_stm32f10x_hd.o(.text)
    SPI1_IRQHandler                          0x0800eb33   Thumb Code     0  startup_stm32f10x_hd.o(.text)
    SPI2_IRQHandler                          0x0800eb33   Thumb Code     0  startup_stm32f10x_hd.o(.text)
    SPI3_IRQHandler                          0x0800eb33   Thumb Code     0  startup_stm32f10x_hd.o(.text)
    TAMPER_IRQHandler                        0x0800eb33   Thumb Code     0  startup_stm32f10x_hd.o(.text)
    TIM1_BRK_IRQHandler                      0x0800eb33   Thumb Code     0  startup_stm32f10x_hd.o(.text)
    TIM1_CC_IRQHandler                       0x0800eb33   Thumb Code     0  startup_stm32f10x_hd.o(.text)
    TIM1_TRG_COM_IRQHandler                  0x0800eb33   Thumb Code     0  startup_stm32f10x_hd.o(.text)
    TIM1_UP_IRQHandler                       0x0800eb33   Thumb Code     0  startup_stm32f10x_hd.o(.text)
    TIM2_IRQHandler                          0x0800eb33   Thumb Code     0  startup_stm32f10x_hd.o(.text)
    TIM3_IRQHandler                          0x0800eb33   Thumb Code     0  startup_stm32f10x_hd.o(.text)
    TIM4_IRQHandler                          0x0800eb33   Thumb Code     0  startup_stm32f10x_hd.o(.text)
    TIM5_IRQHandler                          0x0800eb33   Thumb Code     0  startup_stm32f10x_hd.o(.text)
    TIM6_IRQHandler                          0x0800eb33   Thumb Code     0  startup_stm32f10x_hd.o(.text)
    TIM7_IRQHandler                          0x0800eb33   Thumb Code     0  startup_stm32f10x_hd.o(.text)
    TIM8_BRK_IRQHandler                      0x0800eb33   Thumb Code     0  startup_stm32f10x_hd.o(.text)
    TIM8_CC_IRQHandler                       0x0800eb33   Thumb Code     0  startup_stm32f10x_hd.o(.text)
    TIM8_TRG_COM_IRQHandler                  0x0800eb33   Thumb Code     0  startup_stm32f10x_hd.o(.text)
    TIM8_UP_IRQHandler                       0x0800eb33   Thumb Code     0  startup_stm32f10x_hd.o(.text)
    UART5_IRQHandler                         0x0800eb33   Thumb Code     0  startup_stm32f10x_hd.o(.text)
    USBWakeUp_IRQHandler                     0x0800eb33   Thumb Code     0  startup_stm32f10x_hd.o(.text)
    USB_HP_CAN1_TX_IRQHandler                0x0800eb33   Thumb Code     0  startup_stm32f10x_hd.o(.text)
    WWDG_IRQHandler                          0x0800eb33   Thumb Code     0  startup_stm32f10x_hd.o(.text)
    __user_initial_stackheap                 0x0800eb35   Thumb Code     0  startup_stm32f10x_hd.o(.text)
    SystemInit                               0x0800ebf9   Thumb Code    62  system_stm32f10x.o(.text)
    SystemCoreClockUpdate                    0x0800ec37   Thumb Code    86  system_stm32f10x.o(.text)
    malloc                                   0x0800ecb1   Thumb Code    94  h1_alloc.o(.text)
    __c89vsnprintf                           0x0800ed11   Thumb Code    48  c89vsnprintf.o(.text)
    __2sprintf                               0x0800ed45   Thumb Code    38  __2sprintf.o(.text)
    _printf_pre_padding                      0x0800ed71   Thumb Code    44  _printf_pad.o(.text)
    _printf_post_padding                     0x0800ed9d   Thumb Code    34  _printf_pad.o(.text)
    _printf_str                              0x0800edbf   Thumb Code    82  _printf_str.o(.text)
    _printf_int_dec                          0x0800ee11   Thumb Code   104  _printf_dec.o(.text)
    _printf_longlong_hex                     0x0800ee89   Thumb Code    86  _printf_hex_int_ll_ptr.o(.text)
    _printf_int_hex                          0x0800eedf   Thumb Code    28  _printf_hex_int_ll_ptr.o(.text)
    _printf_ll_hex                           0x0800eefb   Thumb Code    12  _printf_hex_int_ll_ptr.o(.text)
    _printf_hex_ptr                          0x0800ef07   Thumb Code    18  _printf_hex_int_ll_ptr.o(.text)
    __printf                                 0x0800ef1d   Thumb Code   388  __printf_flags_ss_wp.o(.text)
    atoi                                     0x0800f0a5   Thumb Code    26  atoi.o(.text)
    strtok                                   0x0800f0c1   Thumb Code     6  strtok.o(.text)
    memcmp                                   0x0800f0cd   Thumb Code    88  memcmp.o(.text)
    strcpy                                   0x0800f125   Thumb Code    72  strcpy.o(.text)
    strlen                                   0x0800f16d   Thumb Code    62  strlen.o(.text)
    strncmp                                  0x0800f1ab   Thumb Code   150  strncmp.o(.text)
    __aeabi_memcpy                           0x0800f241   Thumb Code     0  rt_memcpy_v6.o(.text)
    __rt_memcpy                              0x0800f241   Thumb Code   138  rt_memcpy_v6.o(.text)
    _memcpy_lastbytes                        0x0800f2a7   Thumb Code     0  rt_memcpy_v6.o(.text)
    __aeabi_memset                           0x0800f2cb   Thumb Code    16  aeabi_memset.o(.text)
    __aeabi_memclr                           0x0800f2db   Thumb Code     0  rt_memclr.o(.text)
    __rt_memclr                              0x0800f2db   Thumb Code    68  rt_memclr.o(.text)
    _memset                                  0x0800f2df   Thumb Code     0  rt_memclr.o(.text)
    __aeabi_memclr4                          0x0800f31f   Thumb Code     0  rt_memclr_w.o(.text)
    __aeabi_memclr8                          0x0800f31f   Thumb Code     0  rt_memclr_w.o(.text)
    __rt_memclr_w                            0x0800f31f   Thumb Code    78  rt_memclr_w.o(.text)
    _memset_w                                0x0800f323   Thumb Code     0  rt_memclr_w.o(.text)
    strcmp                                   0x0800f36d   Thumb Code   128  strcmpv7m.o(.text)
    __use_two_region_memory                  0x0800f3ed   Thumb Code     2  heapauxi.o(.text)
    __rt_heap_escrow                         0x0800f3ef   Thumb Code     2  heapauxi.o(.text)
    __rt_heap_expand                         0x0800f3f1   Thumb Code     2  heapauxi.o(.text)
    __rt_heap_descriptor                     0x0800f3f5   Thumb Code     8  rt_heap_descriptor_intlibspace.o(.text)
    __aeabi_errno_addr                       0x0800f3fd   Thumb Code     8  rt_errno_addr_intlibspace.o(.text)
    __errno$intlibspace                      0x0800f3fd   Thumb Code     0  rt_errno_addr_intlibspace.o(.text)
    __rt_errno_addr$intlibspace              0x0800f3fd   Thumb Code     0  rt_errno_addr_intlibspace.o(.text)
    __use_no_heap                            0x0800f405   Thumb Code     2  hguard.o(.text)
    __heap$guard                             0x0800f407   Thumb Code     2  hguard.o(.text)
    _terminate_user_alloc                    0x0800f409   Thumb Code     2  init_alloc.o(.text)
    _init_user_alloc                         0x0800f40b   Thumb Code     2  init_alloc.o(.text)
    __Heap_Full                              0x0800f40d   Thumb Code    34  init_alloc.o(.text)
    __Heap_Broken                            0x0800f42f   Thumb Code     6  init_alloc.o(.text)
    _init_alloc                              0x0800f435   Thumb Code    94  init_alloc.o(.text)
    __Heap_Initialize                        0x0800f493   Thumb Code    10  h1_init.o(.text)
    __Heap_DescSize                          0x0800f49d   Thumb Code     4  h1_init.o(.text)
    free                                     0x0800f4a1   Thumb Code    78  h1_free.o(.text)
    _printf_truncate_signed                  0x0800f4ef   Thumb Code    18  _printf_truncate.o(.text)
    _printf_truncate_unsigned                0x0800f501   Thumb Code    18  _printf_truncate.o(.text)
    _printf_int_common                       0x0800f513   Thumb Code   178  _printf_intcommon.o(.text)
    _printf_charcount                        0x0800f5c5   Thumb Code    40  _printf_charcount.o(.text)
    __lib_sel_fp_printf                      0x0800f5ed   Thumb Code     2  _printf_fp_dec.o(.text)
    _printf_fp_dec_real                      0x0800f79b   Thumb Code   620  _printf_fp_dec.o(.text)
    _printf_char_common                      0x0800fa13   Thumb Code    32  _printf_char_common.o(.text)
    _sputc                                   0x0800fa39   Thumb Code    10  _sputc.o(.text)
    _snputc                                  0x0800fa43   Thumb Code    16  _snputc.o(.text)
    _printf_cs_common                        0x0800fa53   Thumb Code    20  _printf_char.o(.text)
    _printf_char                             0x0800fa67   Thumb Code    16  _printf_char.o(.text)
    _printf_string                           0x0800fa77   Thumb Code     8  _printf_char.o(.text)
    _printf_wctomb                           0x0800fa81   Thumb Code   182  _printf_wctomb.o(.text)
    _printf_longlong_dec                     0x0800fb3d   Thumb Code   108  _printf_longlong_dec.o(.text)
    _printf_longlong_oct                     0x0800fbb9   Thumb Code    68  _printf_oct_int_ll.o(.text)
    _printf_int_oct                          0x0800fbfd   Thumb Code    24  _printf_oct_int_ll.o(.text)
    _printf_ll_oct                           0x0800fc15   Thumb Code    12  _printf_oct_int_ll.o(.text)
    strtol                                   0x0800fc29   Thumb Code   112  strtol.o(.text)
    __strtok_internal                        0x0800fc99   Thumb Code    64  strtok_int.o(.text)
    __aeabi_memcpy4                          0x0800fcdd   Thumb Code     0  rt_memcpy_w.o(.text)
    __aeabi_memcpy8                          0x0800fcdd   Thumb Code     0  rt_memcpy_w.o(.text)
    __rt_memcpy_w                            0x0800fcdd   Thumb Code   100  rt_memcpy_w.o(.text)
    _memcpy_lastbytes_aligned                0x0800fd25   Thumb Code     0  rt_memcpy_w.o(.text)
    __user_libspace                          0x0800fd41   Thumb Code     8  libspace.o(.text)
    __user_perproc_libspace                  0x0800fd41   Thumb Code     0  libspace.o(.text)
    __user_perthread_libspace                0x0800fd41   Thumb Code     0  libspace.o(.text)
    __rt_ctype_table                         0x0800fd49   Thumb Code    16  rt_ctype_table.o(.text)
    __rt_locale                              0x0800fd59   Thumb Code     8  rt_locale_intlibspace.o(.text)
    __Heap_ProvideMemory                     0x0800fd61   Thumb Code    52  h1_extend.o(.text)
    _ll_udiv10                               0x0800fd95   Thumb Code   138  lludiv10.o(.text)
    _printf_fp_infnan                        0x0800fe21   Thumb Code   112  _printf_fp_infnan.o(.text)
    _printf_lcs_common                       0x0800fea1   Thumb Code    20  _printf_wchar.o(.text)
    _printf_wchar                            0x0800feb5   Thumb Code    16  _printf_wchar.o(.text)
    _printf_wstring                          0x0800fec5   Thumb Code     8  _printf_wchar.o(.text)
    _strtoul                                 0x0800fecd   Thumb Code   158  _strtoul.o(.text)
    _btod_etento                             0x0800ff6d   Thumb Code   216  bigflt0.o(.text)
    _wcrtomb                                 0x08010049   Thumb Code    64  _wcrtomb.o(.text)
    __rt_SIGRTMEM                            0x08010089   Thumb Code    14  defsig_rtmem_outer.o(.text)
    strcspn                                  0x08010097   Thumb Code    32  strcspn.o(.text)
    strspn                                   0x080100b7   Thumb Code    28  strspn.o(.text)
    __I$use$semihosting                      0x080100d3   Thumb Code     0  use_no_semi.o(.text)
    __use_no_semihosting_swi                 0x080100d3   Thumb Code     2  use_no_semi.o(.text)
    __semihosting_library_function           0x080100d5   Thumb Code     0  indicate_semi.o(.text)
    __user_setup_stackheap                   0x080100d5   Thumb Code    74  sys_stackheap_outer.o(.text)
    _chval                                   0x0801011f   Thumb Code    28  _chval.o(.text)
    exit                                     0x0801013b   Thumb Code    12  exit.o(.text)
    __sig_exit                               0x08010147   Thumb Code    10  defsig_exit.o(.text)
    __rt_SIGRTMEM_inner                      0x08010151   Thumb Code    22  defsig_rtmem_inner.o(.text)
    _sys_exit                                0x080101a1   Thumb Code     8  sys_exit.o(.text)
    __default_signal_display                 0x080101ad   Thumb Code    50  defsig_general.o(.text)
    _ttywrch                                 0x080101df   Thumb Code    14  sys_wrch.o(.text)
    _btod_d2e                                0x080101ed   Thumb Code    62  btod.o(CL$$btod_d2e)
    _d2e_denorm_low                          0x0801022b   Thumb Code    70  btod.o(CL$$btod_d2e_denorm_low)
    _d2e_norm_op1                            0x08010271   Thumb Code    96  btod.o(CL$$btod_d2e_norm_op1)
    __btod_div_common                        0x080102d1   Thumb Code   696  btod.o(CL$$btod_div_common)
    _e2e                                     0x08010609   Thumb Code   198  btod.o(CL$$btod_e2e)
    _btod_ediv                               0x080106cf   Thumb Code    40  btod.o(CL$$btod_ediv)
    _btod_emul                               0x080106f7   Thumb Code    40  btod.o(CL$$btod_emul)
    __btod_mult_common                       0x0801071f   Thumb Code   580  btod.o(CL$$btod_mult_common)
    CRC32Calc                                0x08010965   Thumb Code    42  crc32.o(i.CRC32Calc)
    CRC32CalcReset                           0x08010999   Thumb Code    10  crc32.o(i.CRC32CalcReset)
    FlashBufferRead                          0x080109a9   Thumb Code    70  spiflashdev.o(i.FlashBufferRead)
    FlashBufferWrite                         0x080109f1   Thumb Code   258  spiflashdev.o(i.FlashBufferWrite)
    FlashReadID                              0x08010b51   Thumb Code    60  spiflashdev.o(i.FlashReadID)
    FlashSectorErase_4KByte                  0x08010bad   Thumb Code    64  spiflashdev.o(i.FlashSectorErase_4KByte)
    SPIFlashErase4K                          0x08010c4f   Thumb Code    22  spiflash.o(i.SPIFlashErase4K)
    SPIFlashInit                             0x08010c65   Thumb Code    32  spiflash.o(i.SPIFlashInit)
    SPIFlashRead                             0x08010c85   Thumb Code    30  spiflash.o(i.SPIFlashRead)
    SPIFlashWrite                            0x08010ca3   Thumb Code    30  spiflash.o(i.SPIFlashWrite)
    SST25V_DBSY                              0x08010cc1   Thumb Code    24  spiflashdev.o(i.SST25V_DBSY)
    SST25V_EnableWriteStatusRegister         0x08010cd9   Thumb Code    24  spiflashdev.o(i.SST25V_EnableWriteStatusRegister)
    SST25V_WriteStatusRegister               0x08010cf1   Thumb Code    36  spiflashdev.o(i.SST25V_WriteStatusRegister)
    __ARM_fpclassify                         0x08010d15   Thumb Code    40  fpclassify.o(i.__ARM_fpclassify)
    _is_digit                                0x08010d3d   Thumb Code    14  __printf_wp.o(i._is_digit)
    _get_lc_numeric                          0x08010d4d   Thumb Code    44  lc_numeric_c.o(locale$$code)
    _get_lc_ctype                            0x08010d79   Thumb Code    44  lc_ctype_c.o(locale$$code)
    __aeabi_dadd                             0x08010da5   Thumb Code     0  daddsub_clz.o(x$fpl$dadd)
    _dadd                                    0x08010da5   Thumb Code   332  daddsub_clz.o(x$fpl$dadd)
    __aeabi_ddiv                             0x08010ef5   Thumb Code     0  ddiv.o(x$fpl$ddiv)
    _ddiv                                    0x08010ef5   Thumb Code   552  ddiv.o(x$fpl$ddiv)
    __aeabi_d2uiz                            0x080111a5   Thumb Code     0  dfixu.o(x$fpl$dfixu)
    _dfixu                                   0x080111a5   Thumb Code    90  dfixu.o(x$fpl$dfixu)
    __aeabi_i2d                              0x080111ff   Thumb Code     0  dflt_clz.o(x$fpl$dflt)
    _dflt                                    0x080111ff   Thumb Code    46  dflt_clz.o(x$fpl$dflt)
    __aeabi_ui2d                             0x0801122d   Thumb Code     0  dflt_clz.o(x$fpl$dfltu)
    _dfltu                                   0x0801122d   Thumb Code    38  dflt_clz.o(x$fpl$dfltu)
    __aeabi_ul2d                             0x08011255   Thumb Code     0  dfltll_clz.o(x$fpl$dfltull)
    _ll_uto_d                                0x08011255   Thumb Code   138  dfltll_clz.o(x$fpl$dfltull)
    __aeabi_dmul                             0x080112e1   Thumb Code     0  dmul.o(x$fpl$dmul)
    _dmul                                    0x080112e1   Thumb Code   332  dmul.o(x$fpl$dmul)
    __fpl_dnaninf                            0x08011435   Thumb Code   156  dnaninf.o(x$fpl$dnaninf)
    __fpl_dretinf                            0x080114d1   Thumb Code    12  dretinf.o(x$fpl$dretinf)
    __aeabi_dsub                             0x080114dd   Thumb Code     0  daddsub_clz.o(x$fpl$dsub)
    _dsub                                    0x080114dd   Thumb Code   464  daddsub_clz.o(x$fpl$dsub)
    __aeabi_f2d                              0x080116b1   Thumb Code     0  f2d.o(x$fpl$f2d)
    _f2d                                     0x080116b1   Thumb Code    86  f2d.o(x$fpl$f2d)
    __aeabi_fdiv                             0x08011709   Thumb Code     0  fdiv.o(x$fpl$fdiv)
    _fdiv                                    0x08011709   Thumb Code   384  fdiv.o(x$fpl$fdiv)
    __aeabi_i2f                              0x0801188d   Thumb Code     0  fflt_clz.o(x$fpl$fflt)
    _fflt                                    0x0801188d   Thumb Code    48  fflt_clz.o(x$fpl$fflt)
    __aeabi_ui2f                             0x080118bd   Thumb Code     0  fflt_clz.o(x$fpl$ffltu)
    _ffltu                                   0x080118bd   Thumb Code    38  fflt_clz.o(x$fpl$ffltu)
    __aeabi_fmul                             0x080118e5   Thumb Code     0  fmul.o(x$fpl$fmul)
    _fmul                                    0x080118e5   Thumb Code   258  fmul.o(x$fpl$fmul)
    __fpl_fnaninf                            0x080119e7   Thumb Code   140  fnaninf.o(x$fpl$fnaninf)
    __fpl_fretinf                            0x08011a73   Thumb Code    10  fretinf.o(x$fpl$fretinf)
    _printf_fp_dec                           0x08011a7d   Thumb Code     4  printf1.o(x$fpl$printf1)
    Plt_Mam860_DataList                      0x08011a80   Data         136  app_plt.o(.constdata)
    __I$use$fp                               0x08011a80   Number         0  usenofp.o(x$fpl$usenofp)
    Plt_Mam6080_DataList                     0x08011b08   Data        1456  app_plt.o(.constdata)
    Xy_DataList                              0x080120b8   Data         208  app_plt.o(.constdata)
    chCRCHTalbe                              0x08012188   Data         256  comm.o(.constdata)
    chCRCLTalbe                              0x08012288   Data         256  comm.o(.constdata)
    Table                                    0x08012388   Data          13  app_rtc.o(.constdata)
    CutLineHead                              0x08012395   Data          40  app_protocol.o(.constdata)
    CutLineEnd                               0x080123bd   Data          41  app_protocol.o(.constdata)
    CRC32Tab                                 0x080123e8   Data        1024  crc32.o(.constdata)
    Region$$Table$$Base                      0x08012bf4   Number         0  anon$$obj.o(Region$$Table)
    Region$$Table$$Limit                     0x08012c14   Number         0  anon$$obj.o(Region$$Table)
    __ctype                                  0x08012c3d   Data           0  lc_ctype_c.o(locale$$data)
    StartFilterTimer                         0x20000004   Data           2  app_alarmevent.o(.data)
    StopFilterTimer                          0x20000006   Data           2  app_alarmevent.o(.data)
    PreAlmFilterTimer                        0x20000008   Data           4  app_alarmevent.o(.data)
    AppDebug                                 0x2000001c   Data           4  app_debug.o(.data)
    GpSysPara                                0x2000003c   Data           4  app_para.o(.data)
    GpUsrPara                                0x20000040   Data           4  app_para.o(.data)
    GpOthInfo                                0x20000044   Data           4  app_para.o(.data)
    GpAlmInfo                                0x20000048   Data           4  app_para.o(.data)
    GpSysStat                                0x2000004c   Data           4  app_para.o(.data)
    PltAlowWrite                             0x20000050   Data           1  app_plt.o(.data)
    RemoteWritePara                          0x20000051   Data           1  app_plt.o(.data)
    EnterPltParaWrite                        0x2000005c   Data           1  app_plt.o(.data)
    MainVfd_Addr                             0x20000061   Data           1  app_vfd.o(.data)
    GbEventFlag                              0x20000064   Data           1  app_vfd.o(.data)
    VfdInitFlag                              0x20000065   Data           1  app_vfd.o(.data)
    GbMeterEventFlag                         0x20000066   Data           1  app_vfd.o(.data)
    GbMeter2EventFlag                        0x20000067   Data           1  app_vfd.o(.data)
    bRemoteBoot                              0x20000068   Data           1  app_vfd.o(.data)
    bRemoteStop                              0x20000069   Data           1  app_vfd.o(.data)
    VfdWhoUse                                0x2000006a   Data           1  app_vfd.o(.data)
    MeterWhoUse                              0x2000006b   Data           1  app_vfd.o(.data)
    Meter2WhoUse                             0x2000006c   Data           1  app_vfd.o(.data)
    VfdOptRlt                                0x2000006d   Data           1  app_vfd.o(.data)
    MeterOptRlt                              0x2000006e   Data           1  app_vfd.o(.data)
    Meter2OptRlt                             0x2000006f   Data           1  app_vfd.o(.data)
    Flow_Addr                                0x20000070   Data           1  app_vfd.o(.data)
    Meter_Addr                               0x20000071   Data           1  app_vfd.o(.data)
    VfdOptAddr                               0x20000074   Data           2  app_vfd.o(.data)
    pVfd                                     0x20000078   Data           4  app_vfd.o(.data)
    pMeter                                   0x2000007c   Data           4  app_vfd.o(.data)
    pMeter2                                  0x20000080   Data           4  app_vfd.o(.data)
    VfdChgToSnd                              0x20000084   Data           4  app_vfd.o(.data)
    VfdChgToRcv                              0x20000088   Data           4  app_vfd.o(.data)
    MeterChgToSnd                            0x2000008c   Data           4  app_vfd.o(.data)
    MeterChgToRcv                            0x20000090   Data           4  app_vfd.o(.data)
    Meter2ChgToSnd                           0x20000094   Data           4  app_vfd.o(.data)
    Meter2ChgToRcv                           0x20000098   Data           4  app_vfd.o(.data)
    SvrVfdOpt                                0x200000b6   Data           6  app_vfd.o(.data)
    GbCfgCmd                                 0x200000be   Data           1  app_dtucfg.o(.data)
    GbDtuEnterCfg                            0x200000bf   Data           1  app_dtucfg.o(.data)
    TimeFlag                                 0x200000c0   Data           1  app_rtc.o(.data)
    SysTime                                  0x200000cc   Data           6  app_rtc.o(.data)
    MoneyCheckTimer                          0x200000d8   Data           4  app_multfun.o(.data)
    RmtBootTimer                             0x200000dc   Data           4  app_multfun.o(.data)
    RmtStopTimer                             0x200000e0   Data           4  app_multfun.o(.data)
    CfgDelay                                 0x200000e4   Data           4  app_multfun.o(.data)
    AlmDealDelay                             0x200000e8   Data           4  app_multfun.o(.data)
    BeforeReg                                0x200000f4   Data           8  app_multfun.o(.data)
    Upgrade                                  0x20000100   Data           8  app_upgrade.o(.data)
    pToGprs                                  0x20000110   Data           4  gc65.o(.data)
    pGprsSnd                                 0x20000114   Data           4  gc65.o(.data)
    pATResp                                  0x20000118   Data           4  gc65.o(.data)
    pGprsRcv                                 0x2000011c   Data           4  gc65.o(.data)
    dtuStatus                                0x20000120   Data           4  gc65.o(.data)
    DebugUartRcvStat                         0x20000124   Data           1  uart.o(.data)
    Rsp                                      0x2000013c   Data           1  app_protocol.o(.data)
    Ack                                      0x2000013d   Data           1  app_protocol.o(.data)
    GbUpLoadAllPara                          0x20000141   Data           1  app_protocol.o(.data)
    ParaUpload                               0x2000014c   Data           4  app_protocol.o(.data)
    ParaUpdate                               0x20000150   Data           4  app_protocol.o(.data)
    RebootTime                               0x20000154   Data           4  app_protocol.o(.data)
    InitParaUp                               0x20000158   Data           4  app_protocol.o(.data)
    RegDelay                                 0x2000015c   Data           4  app_protocol.o(.data)
    ParaUploadDelay                          0x20000160   Data           4  app_protocol.o(.data)
    Heart_CycleMoment                        0x20000164   Data           4  app_protocol.o(.data)
    GbeInitParaSend                          0x20000168   Data           1  app_protocol.o(.data)
    SystemCoreClock                          0x2000016c   Data           4  system_stm32f10x.o(.data)
    AHBPrescTable                            0x20000170   Data          16  system_stm32f10x.o(.data)
    FlashModle                               0x20000184   Data           1  spiflashdev.o(.data)
    AlmFilterTimer                           0x2000018c   Data          48  app_alarmevent.o(.bss)
    DebugCheck                               0x2000034c   Data          16  app_debug.o(.bss)
    JsonNode                                 0x2000035c   Data          12  app_json.o(.bss)
    JsonObjNode                              0x20000368   Data          32  app_json.o(.bss)
    HeartAddrList                            0x20000388   Data         162  app_json.o(.bss)
    JsonArrayBuf                             0x2000042c   Data         324  app_json.o(.bss)
    Led_indicate                             0x20000570   Data          12  app_led.o(.bss)
    SysParaBuf                               0x2000057c   Data         228  app_para.o(.bss)
    UsrParaBuf                               0x20000660   Data          20  app_para.o(.bss)
    OthInfoBuf                               0x20000674   Data          16  app_para.o(.bss)
    AlmInfoBuf                               0x20000684   Data          16  app_para.o(.bss)
    SysStatBuf                               0x20000694   Data         492  app_para.o(.bss)
    ParaFat                                  0x20000880   Data          20  app_para.o(.bss)
    Server_Data_Buf                          0x20000978   Data          84  app_plt.o(.bss)
    VarBuf                                   0x200009cc   Data          31  app_plt.o(.bss)
    VfdCtrl                                  0x200009ec   Data          24  app_vfd.o(.bss)
    MeterCtrl                                0x20000a04   Data          24  app_vfd.o(.bss)
    Meter2Ctrl                               0x20000a1c   Data          24  app_vfd.o(.bss)
    RS4850Modbus                             0x20000a68   Data         220  app_vfd.o(.bss)
    RS4851Modbus                             0x20000b44   Data         220  app_vfd.o(.bss)
    RS4852Modbus                             0x20000c20   Data         220  app_vfd.o(.bss)
    dtuTmpBuf                                0x20000cfc   Data        1024  app_dtucfg.o(.bss)
    UpgradeBuf                               0x200010fc   Data         512  app_upgrade.o(.bss)
    GprsRcvBuf                               0x200012fc   Data         802  gc65.o(.bss)
    GprsSndBuf                               0x2000161e   Data        1282  gc65.o(.bss)
    ATRespBuf                                0x20001b20   Data         906  gc65.o(.bss)
    FtpInf                                   0x20001eac   Data         128  gc65.o(.bss)
    GprsCtrlInfo                             0x20001f2c   Data         252  gc65.o(.bss)
    DMAUart2Buf                              0x2000282c   Data         522  gc65_bsp.o(.bss)
    UartTest                                 0x20002a36   Data         108  uart.o(.bss)
    AlmStat                                  0x20002ec0   Data          20  app_protocol.o(.bss)
    SysEvent                                 0x20002ed4   Data          20  app_protocol.o(.bss)
    ProSndInf                                0x20002ee8   Data          16  app_protocol.o(.bss)
    SendBuf                                  0x20002ef8   Data        1024  app_protocol.o(.bss)
    ProAckBuf                                0x200032f8   Data        1024  app_protocol.o(.bss)
    AlmMask                                  0x20003730   Data          16  app_protocol.o(.bss)
    __libspace_start                         0x20003740   Data          96  libspace.o(.bss)
    __temporary_stack_top$libspace           0x200037a0   Data           0  libspace.o(.bss)



==============================================================================

Memory Map of the image

  Image Entry point : 0x08001131

  Load Region LR_IROM1 (Base: 0x08001000, Size: 0x00011ecc, Max: 0x00040000, ABSOLUTE, COMPRESSED[0x00011d8c])

    Execution Region ER_IROM1 (Base: 0x08001000, Size: 0x00011d40, Max: 0x00040000, ABSOLUTE)

    Base Addr    Size         Type   Attr      Idx    E Section Name        Object

    0x08001000   0x00000130   Data   RO           98    RESET               startup_stm32f10x_hd.o
    0x08001130   0x00000008   Code   RO          212  * !!!main             c_w.l(__main.o)
    0x08001138   0x00000034   Code   RO          461    !!!scatter          c_w.l(__scatter.o)
    0x0800116c   0x0000005a   Code   RO          460    !!dczerorl2         c_w.l(__dczerorl2.o)
    0x080011c6   0x00000002   PAD
    0x080011c8   0x0000001c   Code   RO          462    !!handler_zi        c_w.l(__scatter_zi.o)
    0x080011e4   0x00000000   Code   RO          198    .ARM.Collect$$_printf_percent$$00000000  c_w.l(_printf_percent.o)
    0x080011e4   0x00000006   Code   RO          270    .ARM.Collect$$_printf_percent$$00000001  c_w.l(_printf_n.o)
    0x080011ea   0x00000006   Code   RO          271    .ARM.Collect$$_printf_percent$$00000002  c_w.l(_printf_p.o)
    0x080011f0   0x00000006   Code   RO          197    .ARM.Collect$$_printf_percent$$00000003  c_w.l(_printf_f.o)
    0x080011f6   0x00000006   Code   RO          275    .ARM.Collect$$_printf_percent$$00000004  c_w.l(_printf_e.o)
    0x080011fc   0x00000006   Code   RO          276    .ARM.Collect$$_printf_percent$$00000005  c_w.l(_printf_g.o)
    0x08001202   0x00000006   Code   RO          277    .ARM.Collect$$_printf_percent$$00000006  c_w.l(_printf_a.o)
    0x08001208   0x0000000a   Code   RO          282    .ARM.Collect$$_printf_percent$$00000007  c_w.l(_printf_ll.o)
    0x08001212   0x00000006   Code   RO          273    .ARM.Collect$$_printf_percent$$00000008  c_w.l(_printf_i.o)
    0x08001218   0x00000006   Code   RO          196    .ARM.Collect$$_printf_percent$$00000009  c_w.l(_printf_d.o)
    0x0800121e   0x00000006   Code   RO          274    .ARM.Collect$$_printf_percent$$0000000A  c_w.l(_printf_u.o)
    0x08001224   0x00000006   Code   RO          272    .ARM.Collect$$_printf_percent$$0000000B  c_w.l(_printf_o.o)
    0x0800122a   0x00000006   Code   RO          195    .ARM.Collect$$_printf_percent$$0000000C  c_w.l(_printf_x.o)
    0x08001230   0x00000006   Code   RO          279    .ARM.Collect$$_printf_percent$$0000000D  c_w.l(_printf_lli.o)
    0x08001236   0x00000006   Code   RO          280    .ARM.Collect$$_printf_percent$$0000000E  c_w.l(_printf_lld.o)
    0x0800123c   0x00000006   Code   RO          281    .ARM.Collect$$_printf_percent$$0000000F  c_w.l(_printf_llu.o)
    0x08001242   0x00000006   Code   RO          286    .ARM.Collect$$_printf_percent$$00000010  c_w.l(_printf_llo.o)
    0x08001248   0x00000006   Code   RO          287    .ARM.Collect$$_printf_percent$$00000011  c_w.l(_printf_llx.o)
    0x0800124e   0x0000000a   Code   RO          283    .ARM.Collect$$_printf_percent$$00000012  c_w.l(_printf_l.o)
    0x08001258   0x00000006   Code   RO          269    .ARM.Collect$$_printf_percent$$00000013  c_w.l(_printf_c.o)
    0x0800125e   0x00000006   Code   RO          194    .ARM.Collect$$_printf_percent$$00000014  c_w.l(_printf_s.o)
    0x08001264   0x00000006   Code   RO          284    .ARM.Collect$$_printf_percent$$00000015  c_w.l(_printf_lc.o)
    0x0800126a   0x00000006   Code   RO          285    .ARM.Collect$$_printf_percent$$00000016  c_w.l(_printf_ls.o)
    0x08001270   0x00000004   Code   RO          278    .ARM.Collect$$_printf_percent$$00000017  c_w.l(_printf_percent_end.o)
    0x08001274   0x00000002   Code   RO          416    .ARM.Collect$$libinit$$00000000  c_w.l(libinit.o)
    0x08001276   0x00000000   Code   RO          293    .ARM.Collect$$libinit$$00000002  c_w.l(libinit2.o)
    0x08001276   0x00000000   Code   RO          295    .ARM.Collect$$libinit$$00000004  c_w.l(libinit2.o)
    0x08001276   0x00000008   Code   RO          296    .ARM.Collect$$libinit$$00000005  c_w.l(libinit2.o)
    0x0800127e   0x00000000   Code   RO          298    .ARM.Collect$$libinit$$0000000A  c_w.l(libinit2.o)
    0x0800127e   0x00000000   Code   RO          300    .ARM.Collect$$libinit$$0000000C  c_w.l(libinit2.o)
    0x0800127e   0x00000000   Code   RO          302    .ARM.Collect$$libinit$$0000000E  c_w.l(libinit2.o)
    0x0800127e   0x00000006   Code   RO          303    .ARM.Collect$$libinit$$0000000F  c_w.l(libinit2.o)
    0x08001284   0x00000000   Code   RO          305    .ARM.Collect$$libinit$$00000011  c_w.l(libinit2.o)
    0x08001284   0x0000000c   Code   RO          306    .ARM.Collect$$libinit$$00000012  c_w.l(libinit2.o)
    0x08001290   0x00000000   Code   RO          307    .ARM.Collect$$libinit$$00000013  c_w.l(libinit2.o)
    0x08001290   0x00000000   Code   RO          309    .ARM.Collect$$libinit$$00000015  c_w.l(libinit2.o)
    0x08001290   0x0000000a   Code   RO          310    .ARM.Collect$$libinit$$00000016  c_w.l(libinit2.o)
    0x0800129a   0x00000000   Code   RO          311    .ARM.Collect$$libinit$$00000017  c_w.l(libinit2.o)
    0x0800129a   0x00000000   Code   RO          313    .ARM.Collect$$libinit$$00000019  c_w.l(libinit2.o)
    0x0800129a   0x00000000   Code   RO          315    .ARM.Collect$$libinit$$0000001B  c_w.l(libinit2.o)
    0x0800129a   0x00000000   Code   RO          317    .ARM.Collect$$libinit$$0000001D  c_w.l(libinit2.o)
    0x0800129a   0x00000000   Code   RO          319    .ARM.Collect$$libinit$$0000001F  c_w.l(libinit2.o)
    0x0800129a   0x00000000   Code   RO          321    .ARM.Collect$$libinit$$00000021  c_w.l(libinit2.o)
    0x0800129a   0x00000000   Code   RO          323    .ARM.Collect$$libinit$$00000023  c_w.l(libinit2.o)
    0x0800129a   0x00000000   Code   RO          325    .ARM.Collect$$libinit$$00000025  c_w.l(libinit2.o)
    0x0800129a   0x00000000   Code   RO          329    .ARM.Collect$$libinit$$0000002C  c_w.l(libinit2.o)
    0x0800129a   0x00000000   Code   RO          331    .ARM.Collect$$libinit$$0000002E  c_w.l(libinit2.o)
    0x0800129a   0x00000000   Code   RO          333    .ARM.Collect$$libinit$$00000030  c_w.l(libinit2.o)
    0x0800129a   0x00000000   Code   RO          335    .ARM.Collect$$libinit$$00000032  c_w.l(libinit2.o)
    0x0800129a   0x00000002   Code   RO          336    .ARM.Collect$$libinit$$00000033  c_w.l(libinit2.o)
    0x0800129c   0x00000002   Code   RO          457    .ARM.Collect$$libshutdown$$00000000  c_w.l(libshutdown.o)
    0x0800129e   0x00000000   Code   RO          426    .ARM.Collect$$libshutdown$$00000003  c_w.l(libshutdown2.o)
    0x0800129e   0x00000000   Code   RO          429    .ARM.Collect$$libshutdown$$00000006  c_w.l(libshutdown2.o)
    0x0800129e   0x00000000   Code   RO          432    .ARM.Collect$$libshutdown$$00000009  c_w.l(libshutdown2.o)
    0x0800129e   0x00000000   Code   RO          434    .ARM.Collect$$libshutdown$$0000000B  c_w.l(libshutdown2.o)
    0x0800129e   0x00000000   Code   RO          437    .ARM.Collect$$libshutdown$$0000000E  c_w.l(libshutdown2.o)
    0x0800129e   0x00000002   Code   RO          438    .ARM.Collect$$libshutdown$$0000000F  c_w.l(libshutdown2.o)
    0x080012a0   0x00000000   Code   RO          235    .ARM.Collect$$rtentry$$00000000  c_w.l(__rtentry.o)
    0x080012a0   0x00000000   Code   RO          346    .ARM.Collect$$rtentry$$00000002  c_w.l(__rtentry2.o)
    0x080012a0   0x00000006   Code   RO          358    .ARM.Collect$$rtentry$$00000004  c_w.l(__rtentry4.o)
    0x080012a6   0x00000000   Code   RO          348    .ARM.Collect$$rtentry$$00000009  c_w.l(__rtentry2.o)
    0x080012a6   0x00000004   Code   RO          349    .ARM.Collect$$rtentry$$0000000A  c_w.l(__rtentry2.o)
    0x080012aa   0x00000000   Code   RO          351    .ARM.Collect$$rtentry$$0000000C  c_w.l(__rtentry2.o)
    0x080012aa   0x00000008   Code   RO          352    .ARM.Collect$$rtentry$$0000000D  c_w.l(__rtentry2.o)
    0x080012b2   0x00000002   Code   RO          418    .ARM.Collect$$rtexit$$00000000  c_w.l(rtexit.o)
    0x080012b4   0x00000000   Code   RO          441    .ARM.Collect$$rtexit$$00000002  c_w.l(rtexit2.o)
    0x080012b4   0x00000004   Code   RO          442    .ARM.Collect$$rtexit$$00000003  c_w.l(rtexit2.o)
    0x080012b8   0x00000006   Code   RO          443    .ARM.Collect$$rtexit$$00000004  c_w.l(rtexit2.o)
    0x080012be   0x00000002   PAD
    0x080012c0   0x00000000   Code   RO          365    .emb_text           c_w.l(maybetermalloc1.o)
    0x080012c0   0x00000310   Code   RO            1    .text               main.o
    0x080015d0   0x00000630   Code   RO            2    .text               bsp.o
    0x08001c00   0x00000298   Code   RO            4    .text               app_alarmevent.o
    0x08001e98   0x00000214   Code   RO            7    .text               app_debug.o
    0x080020ac   0x00000850   Code   RO           11    .text               app_json.o
    0x080028fc   0x000001d4   Code   RO           16    .text               app_led.o
    0x08002ad0   0x000009ca   Code   RO           20    .text               app_para.o
    0x0800349a   0x00000002   PAD
    0x0800349c   0x00001f70   Code   RO           23    .text               app_plt.o
    0x0800540c   0x000004ac   Code   RO           29    .text               app_usrcmd.o
    0x080058b8   0x0000114c   Code   RO           34    .text               app_vfd.o
    0x08006a04   0x000004f8   Code   RO           40    .text               comm.o
    0x08006efc   0x000003fc   Code   RO           42    .text               stm32f10x_it.o
    0x080072f8   0x00000460   Code   RO           44    .text               app_dtucfg.o
    0x08007758   0x00000464   Code   RO           48    .text               app_rtc.o
    0x08007bbc   0x00000284   Code   RO           52    .text               app_multfun.o
    0x08007e40   0x00000534   Code   RO           55    .text               app_upgrade.o
    0x08008374   0x0000245c   Code   RO           58    .text               gc65.o
    0x0800a7d0   0x00000168   Code   RO           69    .text               gc65_bsp.o
    0x0800a938   0x00000154   Code   RO           71    .text               uart.o
    0x0800aa8c   0x00000170   Code   RO           75    .text               pipe.o
    0x0800abfc   0x000000b0   Code   RO           76    .text               misc.o
    0x0800acac   0x000001c8   Code   RO           77    .text               stm32f10x_dma.o
    0x0800ae74   0x00000480   Code   RO           78    .text               stm32f10x_flash.o
    0x0800b2f4   0x00000264   Code   RO           79    .text               stm32f10x_gpio.o
    0x0800b558   0x0000003c   Code   RO           80    .text               stm32f10x_iwdg.o
    0x0800b594   0x000002b8   Code   RO           81    .text               stm32f10x_rcc.o
    0x0800b84c   0x00000328   Code   RO           83    .text               stm32f10x_usart.o
    0x0800bb74   0x00000274   Code   RO           84    .text               stm32f10x_spi.o
    0x0800bde8   0x00000708   Code   RO           85    .text               stm32f10x_can.o
    0x0800c4f0   0x00000110   Code   RO           86    .text               spiflashhal.o
    0x0800c600   0x00000006   Code   RO           87    .text               spiflashusr.o
    0x0800c606   0x00000002   PAD
    0x0800c608   0x00002510   Code   RO           88    .text               app_protocol.o
    0x0800eb18   0x00000040   Code   RO           99    .text               startup_stm32f10x_hd.o
    0x0800eb58   0x00000158   Code   RO          100    .text               system_stm32f10x.o
    0x0800ecb0   0x0000005e   Code   RO          132    .text               c_w.l(h1_alloc.o)
    0x0800ed0e   0x00000002   PAD
    0x0800ed10   0x00000034   Code   RO          160    .text               c_w.l(c89vsnprintf.o)
    0x0800ed44   0x0000002c   Code   RO          161    .text               c_w.l(__2sprintf.o)
    0x0800ed70   0x0000004e   Code   RO          164    .text               c_w.l(_printf_pad.o)
    0x0800edbe   0x00000052   Code   RO          165    .text               c_w.l(_printf_str.o)
    0x0800ee10   0x00000078   Code   RO          166    .text               c_w.l(_printf_dec.o)
    0x0800ee88   0x00000094   Code   RO          179    .text               c_w.l(_printf_hex_int_ll_ptr.o)
    0x0800ef1c   0x00000188   Code   RO          192    .text               c_w.l(__printf_flags_ss_wp.o)
    0x0800f0a4   0x0000001a   Code   RO          199    .text               c_w.l(atoi.o)
    0x0800f0be   0x00000002   PAD
    0x0800f0c0   0x0000000c   Code   RO          200    .text               c_w.l(strtok.o)
    0x0800f0cc   0x00000058   Code   RO          202    .text               c_w.l(memcmp.o)
    0x0800f124   0x00000048   Code   RO          203    .text               c_w.l(strcpy.o)
    0x0800f16c   0x0000003e   Code   RO          204    .text               c_w.l(strlen.o)
    0x0800f1aa   0x00000096   Code   RO          205    .text               c_w.l(strncmp.o)
    0x0800f240   0x0000008a   Code   RO          206    .text               c_w.l(rt_memcpy_v6.o)
    0x0800f2ca   0x00000010   Code   RO          207    .text               c_w.l(aeabi_memset.o)
    0x0800f2da   0x00000044   Code   RO          208    .text               c_w.l(rt_memclr.o)
    0x0800f31e   0x0000004e   Code   RO          209    .text               c_w.l(rt_memclr_w.o)
    0x0800f36c   0x00000080   Code   RO          210    .text               c_w.l(strcmpv7m.o)
    0x0800f3ec   0x00000006   Code   RO          211    .text               c_w.l(heapauxi.o)
    0x0800f3f2   0x00000002   PAD
    0x0800f3f4   0x00000008   Code   RO          238    .text               c_w.l(rt_heap_descriptor_intlibspace.o)
    0x0800f3fc   0x00000008   Code   RO          241    .text               c_w.l(rt_errno_addr_intlibspace.o)
    0x0800f404   0x00000004   Code   RO          242    .text               c_w.l(hguard.o)
    0x0800f408   0x0000008a   Code   RO          243    .text               c_w.l(init_alloc.o)
    0x0800f492   0x0000000e   Code   RO          246    .text               c_w.l(h1_init.o)
    0x0800f4a0   0x0000004e   Code   RO          247    .text               c_w.l(h1_free.o)
    0x0800f4ee   0x00000024   Code   RO          255    .text               c_w.l(_printf_truncate.o)
    0x0800f512   0x000000b2   Code   RO          256    .text               c_w.l(_printf_intcommon.o)
    0x0800f5c4   0x00000028   Code   RO          257    .text               c_w.l(_printf_charcount.o)
    0x0800f5ec   0x0000041a   Code   RO          258    .text               c_w.l(_printf_fp_dec.o)
    0x0800fa06   0x00000002   PAD
    0x0800fa08   0x00000030   Code   RO          259    .text               c_w.l(_printf_char_common.o)
    0x0800fa38   0x0000000a   Code   RO          260    .text               c_w.l(_sputc.o)
    0x0800fa42   0x00000010   Code   RO          261    .text               c_w.l(_snputc.o)
    0x0800fa52   0x0000002c   Code   RO          262    .text               c_w.l(_printf_char.o)
    0x0800fa7e   0x00000002   PAD
    0x0800fa80   0x000000bc   Code   RO          263    .text               c_w.l(_printf_wctomb.o)
    0x0800fb3c   0x0000007c   Code   RO          265    .text               c_w.l(_printf_longlong_dec.o)
    0x0800fbb8   0x00000070   Code   RO          268    .text               c_w.l(_printf_oct_int_ll.o)
    0x0800fc28   0x00000070   Code   RO          288    .text               c_w.l(strtol.o)
    0x0800fc98   0x00000044   Code   RO          289    .text               c_w.l(strtok_int.o)
    0x0800fcdc   0x00000064   Code   RO          290    .text               c_w.l(rt_memcpy_w.o)
    0x0800fd40   0x00000008   Code   RO          343    .text               c_w.l(libspace.o)
    0x0800fd48   0x00000010   Code   RO          360    .text               c_w.l(rt_ctype_table.o)
    0x0800fd58   0x00000008   Code   RO          363    .text               c_w.l(rt_locale_intlibspace.o)
    0x0800fd60   0x00000034   Code   RO          367    .text               c_w.l(h1_extend.o)
    0x0800fd94   0x0000008a   Code   RO          369    .text               c_w.l(lludiv10.o)
    0x0800fe1e   0x00000002   PAD
    0x0800fe20   0x00000080   Code   RO          370    .text               c_w.l(_printf_fp_infnan.o)
    0x0800fea0   0x0000002c   Code   RO          372    .text               c_w.l(_printf_wchar.o)
    0x0800fecc   0x0000009e   Code   RO          373    .text               c_w.l(_strtoul.o)
    0x0800ff6a   0x00000002   PAD
    0x0800ff6c   0x000000dc   Code   RO          374    .text               c_w.l(bigflt0.o)
    0x08010048   0x00000040   Code   RO          387    .text               c_w.l(_wcrtomb.o)
    0x08010088   0x0000000e   Code   RO          390    .text               c_w.l(defsig_rtmem_outer.o)
    0x08010096   0x00000020   Code   RO          392    .text               c_w.l(strcspn.o)
    0x080100b6   0x0000001c   Code   RO          393    .text               c_w.l(strspn.o)
    0x080100d2   0x00000002   Code   RO          400    .text               c_w.l(use_no_semi.o)
    0x080100d4   0x00000000   Code   RO          401    .text               c_w.l(indicate_semi.o)
    0x080100d4   0x0000004a   Code   RO          402    .text               c_w.l(sys_stackheap_outer.o)
    0x0801011e   0x0000001c   Code   RO          405    .text               c_w.l(_chval.o)
    0x0801013a   0x0000000c   Code   RO          408    .text               c_w.l(exit.o)
    0x08010146   0x0000000a   Code   RO          409    .text               c_w.l(defsig_exit.o)
    0x08010150   0x00000050   Code   RO          410    .text               c_w.l(defsig_rtmem_inner.o)
    0x080101a0   0x0000000c   Code   RO          417    .text               c_w.l(sys_exit.o)
    0x080101ac   0x00000032   Code   RO          423    .text               c_w.l(defsig_general.o)
    0x080101de   0x0000000e   Code   RO          439    .text               c_w.l(sys_wrch.o)
    0x080101ec   0x0000003e   Code   RO          376    CL$$btod_d2e        c_w.l(btod.o)
    0x0801022a   0x00000046   Code   RO          378    CL$$btod_d2e_denorm_low  c_w.l(btod.o)
    0x08010270   0x00000060   Code   RO          377    CL$$btod_d2e_norm_op1  c_w.l(btod.o)
    0x080102d0   0x00000338   Code   RO          386    CL$$btod_div_common  c_w.l(btod.o)
    0x08010608   0x000000c6   Code   RO          383    CL$$btod_e2e        c_w.l(btod.o)
    0x080106ce   0x00000028   Code   RO          380    CL$$btod_ediv       c_w.l(btod.o)
    0x080106f6   0x00000028   Code   RO          379    CL$$btod_emul       c_w.l(btod.o)
    0x0801071e   0x00000244   Code   RO          385    CL$$btod_mult_common  c_w.l(btod.o)
    0x08010962   0x00000002   PAD
    0x08010964   0x00000034   Code   RO          110    i.CRC32Calc         crc32.lib(crc32.o)
    0x08010998   0x00000010   Code   RO          111    i.CRC32CalcReset    crc32.lib(crc32.o)
    0x080109a8   0x00000046   Code   RO          115    i.FlashBufferRead   SPIFlash.lib(spiflashdev.o)
    0x080109ee   0x00000002   PAD
    0x080109f0   0x00000108   Code   RO          116    i.FlashBufferWrite  SPIFlash.lib(spiflashdev.o)
    0x08010af8   0x00000058   Code   RO          102    i.FlashModelRead    SPIFlash.lib(spiflash.o)
    0x08010b50   0x0000003c   Code   RO          117    i.FlashReadID       SPIFlash.lib(spiflashdev.o)
    0x08010b8c   0x00000020   Code   RO          118    i.FlashReadStatusRegister  SPIFlash.lib(spiflashdev.o)
    0x08010bac   0x00000040   Code   RO          119    i.FlashSectorErase_4KByte  SPIFlash.lib(spiflashdev.o)
    0x08010bec   0x00000020   Code   RO          120    i.FlashWaitForWriteEnd  SPIFlash.lib(spiflashdev.o)
    0x08010c0c   0x00000012   Code   RO          121    i.FlashWait_Busy_AAI  SPIFlash.lib(spiflashdev.o)
    0x08010c1e   0x00000018   Code   RO          122    i.FlashWriteDisable  SPIFlash.lib(spiflashdev.o)
    0x08010c36   0x00000018   Code   RO          123    i.FlashWriteEnable  SPIFlash.lib(spiflashdev.o)
    0x08010c4e   0x00000016   Code   RO          104    i.SPIFlashErase4K   SPIFlash.lib(spiflash.o)
    0x08010c64   0x00000020   Code   RO          106    i.SPIFlashInit      SPIFlash.lib(spiflash.o)
    0x08010c84   0x0000001e   Code   RO          108    i.SPIFlashRead      SPIFlash.lib(spiflash.o)
    0x08010ca2   0x0000001e   Code   RO          109    i.SPIFlashWrite     SPIFlash.lib(spiflash.o)
    0x08010cc0   0x00000018   Code   RO          125    i.SST25V_DBSY       SPIFlash.lib(spiflashdev.o)
    0x08010cd8   0x00000018   Code   RO          126    i.SST25V_EnableWriteStatusRegister  SPIFlash.lib(spiflashdev.o)
    0x08010cf0   0x00000024   Code   RO          127    i.SST25V_WriteStatusRegister  SPIFlash.lib(spiflashdev.o)
    0x08010d14   0x00000028   Code   RO          399    i.__ARM_fpclassify  m_ws.l(fpclassify.o)
    0x08010d3c   0x0000000e   Code   RO          188    i._is_digit         c_w.l(__printf_wp.o)
    0x08010d4a   0x00000002   PAD
    0x08010d4c   0x0000002c   Code   RO          389    locale$$code        c_w.l(lc_numeric_c.o)
    0x08010d78   0x0000002c   Code   RO          407    locale$$code        c_w.l(lc_ctype_c.o)
    0x08010da4   0x00000150   Code   RO          213    x$fpl$dadd          fz_ws.l(daddsub_clz.o)
    0x08010ef4   0x000002b0   Code   RO          217    x$fpl$ddiv          fz_ws.l(ddiv.o)
    0x080111a4   0x0000005a   Code   RO          218    x$fpl$dfixu         fz_ws.l(dfixu.o)
    0x080111fe   0x0000002e   Code   RO          221    x$fpl$dflt          fz_ws.l(dflt_clz.o)
    0x0801122c   0x00000026   Code   RO          220    x$fpl$dfltu         fz_ws.l(dflt_clz.o)
    0x08011252   0x00000002   PAD
    0x08011254   0x0000008a   Code   RO          224    x$fpl$dfltull       fz_ws.l(dfltll_clz.o)
    0x080112de   0x00000002   PAD
    0x080112e0   0x00000154   Code   RO          225    x$fpl$dmul          fz_ws.l(dmul.o)
    0x08011434   0x0000009c   Code   RO          337    x$fpl$dnaninf       fz_ws.l(dnaninf.o)
    0x080114d0   0x0000000c   Code   RO          338    x$fpl$dretinf       fz_ws.l(dretinf.o)
    0x080114dc   0x000001d4   Code   RO          215    x$fpl$dsub          fz_ws.l(daddsub_clz.o)
    0x080116b0   0x00000056   Code   RO          226    x$fpl$f2d           fz_ws.l(f2d.o)
    0x08011706   0x00000002   PAD
    0x08011708   0x00000184   Code   RO          228    x$fpl$fdiv          fz_ws.l(fdiv.o)
    0x0801188c   0x00000030   Code   RO          230    x$fpl$fflt          fz_ws.l(fflt_clz.o)
    0x080118bc   0x00000026   Code   RO          229    x$fpl$ffltu         fz_ws.l(fflt_clz.o)
    0x080118e2   0x00000002   PAD
    0x080118e4   0x00000102   Code   RO          232    x$fpl$fmul          fz_ws.l(fmul.o)
    0x080119e6   0x0000008c   Code   RO          339    x$fpl$fnaninf       fz_ws.l(fnaninf.o)
    0x08011a72   0x0000000a   Code   RO          340    x$fpl$fretinf       fz_ws.l(fretinf.o)
    0x08011a7c   0x00000004   Code   RO          233    x$fpl$printf1       fz_ws.l(printf1.o)
    0x08011a80   0x00000000   Code   RO          341    x$fpl$usenofp       fz_ws.l(usenofp.o)
    0x08011a80   0x00000708   Data   RO           25    .constdata          app_plt.o
    0x08012188   0x00000200   Data   RO           41    .constdata          comm.o
    0x08012388   0x0000000d   Data   RO           49    .constdata          app_rtc.o
    0x08012395   0x00000051   Data   RO           91    .constdata          app_protocol.o
    0x080123e6   0x00000002   PAD
    0x080123e8   0x00000400   Data   RO          112    .constdata          crc32.lib(crc32.o)
    0x080127e8   0x00000028   Data   RO          180    .constdata          c_w.l(_printf_hex_int_ll_ptr.o)
    0x08012810   0x00000011   Data   RO          193    .constdata          c_w.l(__printf_flags_ss_wp.o)
    0x08012821   0x00000003   PAD
    0x08012824   0x00000008   Data   RO          264    .constdata          c_w.l(_printf_wctomb.o)
    0x0801282c   0x00000094   Data   RO          375    .constdata          c_w.l(bigflt0.o)
    0x080128c0   0x00000333   Data   RO           92    .conststring        app_protocol.o
    0x08012bf3   0x00000001   PAD
    0x08012bf4   0x00000020   Data   RO          458    Region$$Table       anon$$obj.o
    0x08012c14   0x0000001c   Data   RO          388    locale$$data        c_w.l(lc_numeric_c.o)
    0x08012c30   0x00000110   Data   RO          406    locale$$data        c_w.l(lc_ctype_c.o)


    Execution Region RW_IRAM1 (Base: 0x20000000, Size: 0x00003da0, Max: 0x0000c000, ABSOLUTE, COMPRESSED[0x0000004c])

    Base Addr    Size         Type   Attr      Idx    E Section Name        Object

    0x20000000   0x00000001   Data   RW            3    .data               bsp.o
    0x20000001   0x00000003   PAD
    0x20000004   0x00000018   Data   RW            6    .data               app_alarmevent.o
    0x2000001c   0x00000008   Data   RW           10    .data               app_debug.o
    0x20000024   0x00000012   Data   RW           18    .data               app_led.o
    0x20000036   0x00000002   PAD
    0x20000038   0x00000018   Data   RW           22    .data               app_para.o
    0x20000050   0x0000000c   Data   RW           26    .data               app_plt.o
    0x2000005c   0x00000001   Data   RW           27    .data               app_plt.o
    0x2000005d   0x00000003   PAD
    0x20000060   0x0000005c   Data   RW           39    .data               app_vfd.o
    0x200000bc   0x00000002   Data   RW           43    .data               stm32f10x_it.o
    0x200000be   0x00000001   Data   RW           46    .data               app_dtucfg.o
    0x200000bf   0x00000001   Data   RW           47    .data               app_dtucfg.o
    0x200000c0   0x0000000c   Data   RW           50    .data               app_rtc.o
    0x200000cc   0x00000006   Data   RW           51    .data               app_rtc.o
    0x200000d2   0x00000002   PAD
    0x200000d4   0x00000028   Data   RW           53    .data               app_multfun.o
    0x200000fc   0x0000000c   Data   RW           57    .data               app_upgrade.o
    0x20000108   0x0000001c   Data   RW           62    .data               gc65.o
    0x20000124   0x00000001   Data   RW           74    .data               uart.o
    0x20000125   0x00000014   Data   RW           82    .data               stm32f10x_rcc.o
    0x20000139   0x00000003   PAD
    0x2000013c   0x0000002c   Data   RW           93    .data               app_protocol.o
    0x20000168   0x00000001   Data   RW           95    .data               app_protocol.o
    0x20000169   0x00000003   PAD
    0x2000016c   0x00000014   Data   RW          101    .data               system_stm32f10x.o
    0x20000180   0x00000004   Data   RW          113    .data               crc32.lib(crc32.o)
    0x20000184   0x00000001   Data   RW          128    .data               SPIFlash.lib(spiflashdev.o)
    0x20000185   0x00000003   PAD
    0x20000188   0x00000004   Data   RW          201    .data               c_w.l(strtok.o)
    0x2000018c   0x00000030   Zero   RW            5    .bss                app_alarmevent.o
    0x200001bc   0x00000190   Zero   RW            8    .bss                app_debug.o
    0x2000034c   0x00000010   Zero   RW            9    .bss                app_debug.o
    0x2000035c   0x0000000c   Zero   RW           12    .bss                app_json.o
    0x20000368   0x00000020   Zero   RW           13    .bss                app_json.o
    0x20000388   0x000000a2   Zero   RW           14    .bss                app_json.o
    0x2000042a   0x00000002   PAD
    0x2000042c   0x00000144   Zero   RW           15    .bss                app_json.o
    0x20000570   0x0000000c   Zero   RW           17    .bss                app_led.o
    0x2000057c   0x000003fc   Zero   RW           21    .bss                app_para.o
    0x20000978   0x00000073   Zero   RW           24    .bss                app_plt.o
    0x200009eb   0x00000001   PAD
    0x200009ec   0x0000007c   Zero   RW           35    .bss                app_vfd.o
    0x20000a68   0x000000dc   Zero   RW           36    .bss                app_vfd.o
    0x20000b44   0x000000dc   Zero   RW           37    .bss                app_vfd.o
    0x20000c20   0x000000dc   Zero   RW           38    .bss                app_vfd.o
    0x20000cfc   0x00000400   Zero   RW           45    .bss                app_dtucfg.o
    0x200010fc   0x00000200   Zero   RW           56    .bss                app_upgrade.o
    0x200012fc   0x0000112c   Zero   RW           59    .bss                gc65.o
    0x20002428   0x00000404   Zero   RW           61    .bss                gc65.o
    0x2000282c   0x0000020a   Zero   RW           70    .bss                gc65_bsp.o
    0x20002a36   0x0000006c   Zero   RW           72    .bss                uart.o
    0x20002aa2   0x0000041e   Zero   RW           73    .bss                uart.o
    0x20002ec0   0x00000870   Zero   RW           89    .bss                app_protocol.o
    0x20003730   0x00000010   Zero   RW           90    .bss                app_protocol.o
    0x20003740   0x00000060   Zero   RW          344    .bss                c_w.l(libspace.o)
    0x200037a0   0x00000200   Zero   RW           97    HEAP                startup_stm32f10x_hd.o
    0x200039a0   0x00000400   Zero   RW           96    STACK               startup_stm32f10x_hd.o


==============================================================================

Image component sizes


      Code (inc. data)   RO Data    RW Data    ZI Data      Debug   Object Name

       664         36          0         24         48          0   app_alarmevent.o
       532         88          0          8        416          0   app_debug.o
      1120         36          0          2       1024          0   app_dtucfg.o
      2128        244          0          0        530          0   app_json.o
       468         16          0         18         12          0   app_led.o
       644         96          0         40          0          0   app_multfun.o
      2506        398          0         24       1020          0   app_para.o
      8048        670       1800         13        115          0   app_plt.o
      9488       1544        900         45       2176          0   app_protocol.o
      1124         40         13         18          0          0   app_rtc.o
      1332        288          0         12        512          0   app_upgrade.o
      1196        450          0          0          0          0   app_usrcmd.o
      4428        138          0         92        784          0   app_vfd.o
      1584         66          0          1          0          0   bsp.o
      1272         22        512          0          0          0   comm.o
      9308       1780          0         28       5424          0   gc65.o
       360         22          0          0        522          0   gc65_bsp.o
       784        280          0          0          0          0   main.o
       176         14          0          0          0          0   misc.o
       368          0          0          0          0          0   pipe.o
       272         16          0          0          0          0   spiflashhal.o
         6          0          0          0          0          0   spiflashusr.o
        64         26        304          0       1536          0   startup_stm32f10x_hd.o
      1800         44          0          0          0          0   stm32f10x_can.o
       456         10          0          0          0          0   stm32f10x_dma.o
      1152         22          0          0          0          0   stm32f10x_flash.o
       612         36          0          0          0          0   stm32f10x_gpio.o
      1020         84          0          2          0          0   stm32f10x_it.o
        60          6          0          0          0          0   stm32f10x_iwdg.o
       696         32          0         20          0          0   stm32f10x_rcc.o
       628         14          0          0          0          0   stm32f10x_spi.o
       808         22          0          0          0          0   stm32f10x_usart.o
       344         36          0         20          0          0   system_stm32f10x.o
       340         38          0          1       1162          0   uart.o

    ----------------------------------------------------------------------
     55792       6614       3564        384      15284          0   Object Totals
         0          0         32          0          0          0   (incl. Generated)
         4          0          3         16          3          0   (incl. Padding)

    ----------------------------------------------------------------------

      Code (inc. data)   RO Data    RW Data    ZI Data      Debug   Library Member Name

       202          6          0          0          0          0   spiflash.o
       672          6          0          1          0          0   spiflashdev.o
        44          6          0          0          0          0   __2sprintf.o
        90          0          0          0          0          0   __dczerorl2.o
         8          0          0          0          0          0   __main.o
       392          4         17          0          0          0   __printf_flags_ss_wp.o
        14          0          0          0          0          0   __printf_wp.o
         0          0          0          0          0          0   __rtentry.o
        12          0          0          0          0          0   __rtentry2.o
         6          0          0          0          0          0   __rtentry4.o
        52          8          0          0          0          0   __scatter.o
        28          0          0          0          0          0   __scatter_zi.o
        28          0          0          0          0          0   _chval.o
         6          0          0          0          0          0   _printf_a.o
         6          0          0          0          0          0   _printf_c.o
        44          0          0          0          0          0   _printf_char.o
        48          6          0          0          0          0   _printf_char_common.o
        40          0          0          0          0          0   _printf_charcount.o
         6          0          0          0          0          0   _printf_d.o
       120         16          0          0          0          0   _printf_dec.o
         6          0          0          0          0          0   _printf_e.o
         6          0          0          0          0          0   _printf_f.o
      1050          0          0          0          0          0   _printf_fp_dec.o
       128         16          0          0          0          0   _printf_fp_infnan.o
         6          0          0          0          0          0   _printf_g.o
       148          4         40          0          0          0   _printf_hex_int_ll_ptr.o
         6          0          0          0          0          0   _printf_i.o
       178          0          0          0          0          0   _printf_intcommon.o
        10          0          0          0          0          0   _printf_l.o
         6          0          0          0          0          0   _printf_lc.o
        10          0          0          0          0          0   _printf_ll.o
         6          0          0          0          0          0   _printf_lld.o
         6          0          0          0          0          0   _printf_lli.o
         6          0          0          0          0          0   _printf_llo.o
         6          0          0          0          0          0   _printf_llu.o
         6          0          0          0          0          0   _printf_llx.o
       124         16          0          0          0          0   _printf_longlong_dec.o
         6          0          0          0          0          0   _printf_ls.o
         6          0          0          0          0          0   _printf_n.o
         6          0          0          0          0          0   _printf_o.o
       112          8          0          0          0          0   _printf_oct_int_ll.o
         6          0          0          0          0          0   _printf_p.o
        78          0          0          0          0          0   _printf_pad.o
         0          0          0          0          0          0   _printf_percent.o
         4          0          0          0          0          0   _printf_percent_end.o
         6          0          0          0          0          0   _printf_s.o
        82          0          0          0          0          0   _printf_str.o
        36          0          0          0          0          0   _printf_truncate.o
         6          0          0          0          0          0   _printf_u.o
        44          0          0          0          0          0   _printf_wchar.o
       188          6          8          0          0          0   _printf_wctomb.o
         6          0          0          0          0          0   _printf_x.o
        16          0          0          0          0          0   _snputc.o
        10          0          0          0          0          0   _sputc.o
       158          0          0          0          0          0   _strtoul.o
        64          0          0          0          0          0   _wcrtomb.o
        16          0          0          0          0          0   aeabi_memset.o
        26          0          0          0          0          0   atoi.o
       220          4        148          0          0          0   bigflt0.o
      1910        128          0          0          0          0   btod.o
        52          4          0          0          0          0   c89vsnprintf.o
        10          0          0          0          0          0   defsig_exit.o
        50          0          0          0          0          0   defsig_general.o
        80         58          0          0          0          0   defsig_rtmem_inner.o
        14          0          0          0          0          0   defsig_rtmem_outer.o
        12          0          0          0          0          0   exit.o
        94          0          0          0          0          0   h1_alloc.o
        52          0          0          0          0          0   h1_extend.o
        78          0          0          0          0          0   h1_free.o
        14          0          0          0          0          0   h1_init.o
         6          0          0          0          0          0   heapauxi.o
         4          0          0          0          0          0   hguard.o
         0          0          0          0          0          0   indicate_semi.o
       138          0          0          0          0          0   init_alloc.o
        44         10        272          0          0          0   lc_ctype_c.o
        44         10         28          0          0          0   lc_numeric_c.o
         2          0          0          0          0          0   libinit.o
        38          0          0          0          0          0   libinit2.o
         2          0          0          0          0          0   libshutdown.o
         2          0          0          0          0          0   libshutdown2.o
         8          4          0          0         96          0   libspace.o
       138          0          0          0          0          0   lludiv10.o
         0          0          0          0          0          0   maybetermalloc1.o
        88          0          0          0          0          0   memcmp.o
        16          4          0          0          0          0   rt_ctype_table.o
         8          4          0          0          0          0   rt_errno_addr_intlibspace.o
         8          4          0          0          0          0   rt_heap_descriptor_intlibspace.o
         8          4          0          0          0          0   rt_locale_intlibspace.o
        68          0          0          0          0          0   rt_memclr.o
        78          0          0          0          0          0   rt_memclr_w.o
       138          0          0          0          0          0   rt_memcpy_v6.o
       100          0          0          0          0          0   rt_memcpy_w.o
         2          0          0          0          0          0   rtexit.o
        10          0          0          0          0          0   rtexit2.o
       128          0          0          0          0          0   strcmpv7m.o
        72          0          0          0          0          0   strcpy.o
        32          0          0          0          0          0   strcspn.o
        62          0          0          0          0          0   strlen.o
       150          0          0          0          0          0   strncmp.o
        28          0          0          0          0          0   strspn.o
        12          6          0          4          0          0   strtok.o
        68          4          0          0          0          0   strtok_int.o
       112          0          0          0          0          0   strtol.o
        12          4          0          0          0          0   sys_exit.o
        74          0          0          0          0          0   sys_stackheap_outer.o
        14          0          0          0          0          0   sys_wrch.o
         2          0          0          0          0          0   use_no_semi.o
        68         16       1024          4          0          0   crc32.o
       804         16          0          0          0          0   daddsub_clz.o
       688        140          0          0          0          0   ddiv.o
        90          4          0          0          0          0   dfixu.o
        84          0          0          0          0          0   dflt_clz.o
       138          0          0          0          0          0   dfltll_clz.o
       340         12          0          0          0          0   dmul.o
       156          4          0          0          0          0   dnaninf.o
        12          0          0          0          0          0   dretinf.o
        86          4          0          0          0          0   f2d.o
       388         76          0          0          0          0   fdiv.o
        86          0          0          0          0          0   fflt_clz.o
       258          4          0          0          0          0   fmul.o
       140          4          0          0          0          0   fnaninf.o
        10          0          0          0          0          0   fretinf.o
         4          0          0          0          0          0   printf1.o
         0          0          0          0          0          0   usenofp.o
        40          0          0          0          0          0   fpclassify.o

    ----------------------------------------------------------------------
     12128        630       1540         12         96          0   Library Totals
        32          0          3          3          0          0   (incl. Padding)

    ----------------------------------------------------------------------

      Code (inc. data)   RO Data    RW Data    ZI Data      Debug   Library Name

       874         12          0          1          0          0   SPIFlash.lib
      7830        338        513          4         96          0   c_w.l
        68         16       1024          4          0          0   crc32.lib
      3284        264          0          0          0          0   fz_ws.l
        40          0          0          0          0          0   m_ws.l

    ----------------------------------------------------------------------
     12128        630       1540         12         96          0   Library Totals

    ----------------------------------------------------------------------

==============================================================================


      Code (inc. data)   RO Data    RW Data    ZI Data      Debug   

     67920       7244       5104        396      15380          0   Grand Totals
     67920       7244       5104         76      15380          0   ELF Image Totals (compressed)
     67920       7244       5104         76          0          0   ROM Totals

==============================================================================

    Total RO  Size (Code + RO Data)                73024 (  71.31kB)
    Total RW  Size (RW Data + ZI Data)             15776 (  15.41kB)
    Total ROM Size (Code + RO Data + RW Data)      73100 (  71.39kB)

==============================================================================

